
btcalleg.exe:     file format elf32-tradlittlemips

Disassembly of section .text:

bfc26000 <audio_device_op_entry>:
bfc26000:	6b0a      	li	v1,10
bfc26002:	e805      	break	0

bfc26004 <libc_op_entry>:
bfc26004:	6b10      	li	v1,16
bfc26006:	e805      	break	0

bfc26008 <sys_op_entry>:
bfc26008:	6b0f      	li	v1,15
bfc2600a:	e805      	break	0

bfc2600c <base_op_entry>:
bfc2600c:	6b00      	li	v1,0
bfc2600e:	e805      	break	0

bfc26010 <key_op_entry>:
bfc26010:	6b08      	li	v1,8
bfc26012:	e805      	break	0

bfc26014 <mmm_hfp_cmd>:
bfc26014:	6b42      	li	v1,66
bfc26016:	e805      	break	0

bfc26018 <stub_mod_cmd>:
bfc26018:	6b40      	li	v1,64
bfc2601a:	e805      	break	0

bfc2601c <btcall_deal_app_msg>:
bfc2601c:	64e5      	save	40,ra,s0
 * \  Cailizhen          2015-1          creat
 * \   Wekan       2015-3-30     reviwe
 *******************************************************************************/
app_result_e btcall_deal_app_msg(void)
{
bfc2601e:	6800      	li	s0,0
    private_msg_t cur_msg;
    app_result_e result = RESULT_NULL;
bfc26020:	6c11      	li	a0,17

    //更新共享查询
    g_p_btcall_info = sys_share_query_update(APP_ID_BTCALLEG);
bfc26022:	67b0      	move	a1,s0
bfc26024:	67d0      	move	a2,s0
bfc26026:	b20a      	lw	v0,bfc2604c <btcall_deal_app_msg+0x30>
bfc26028:	ea40      	jalr	v0
bfc2602a:	6f46      	li	a3,70
bfc2602c:	b307      	lw	v1,bfc26048 <btcall_deal_app_msg+0x2c>
bfc2602e:	db40      	sw	v0,0(v1)
bfc26030:	b208      	lw	v0,bfc26050 <btcall_deal_app_msg+0x34>

    if (get_app_msg(&cur_msg) == TRUE)
bfc26032:	ea40      	jalr	v0
bfc26034:	0404      	addiu	a0,sp,16
bfc26036:	7201      	cmpi	v0,1
bfc26038:	6104      	btnez	bfc26042 <btcall_deal_app_msg+0x26>
bfc2603a:	b207      	lw	v0,bfc26054 <btcall_deal_app_msg+0x38>
    {
        result = app_message_deal(&cur_msg);
bfc2603c:	ea40      	jalr	v0
bfc2603e:	0404      	addiu	a0,sp,16
bfc26040:	6702      	move	s0,v0
bfc26042:	6750      	move	v0,s0
    }

    return result;
}
bfc26044:	6465      	restore	40,ra,s0
bfc26046:	e8a0      	jrc	ra
bfc26048:	967c      	lw	a2,496(sp)
bfc2604a:	9fc1      	lw	a2,4(a3)
bfc2604c:	6009      	bteqz	bfc26060 <deal_callin+0x8>
bfc2604e:	bfc2      	lwu	a2,8(a3)
bfc26050:	6485      	save	40
bfc26052:	bfc2      	lwu	a2,8(a3)
bfc26054:	6995      	li	s1,149
bfc26056:	600a      	bteqz	bfc2606c <deal_callin+0x14>

bfc26058 <deal_callin>:
bfc26058:	64f4      	save	32,ra,s0-s1


/******************************************************************************
 * \  par  Description:   处理callin时，播报电话本，铃声和退出事件
 * \  param[in]     null0
 * \  param[out]   null
 * \  return           null
 * \  note
 * \  <author>       <time>        <opt>
 * \   Wekan       2015-6-17      split
 *******************************************************************************/

void deal_callin(void)
{
bfc2605a:	b223      	lw	v0,bfc260e4 <.LBE2+0x44>
    if (g_p_bt_stack_cur_info->rmt_dev[g_p_bt_stack_cur_info->hfp_active_id].hfp_status == HFP_STATUS_INCOMING)
bfc2605c:	9a80      	lw	a0,0(v0)
bfc2605e:	f020 a469 	lbu	v1,41(a0)
bfc26062:	326c      	sll	v0,v1,3
bfc26064:	e269      	addu	v0,v1
bfc26066:	3244      	sll	v0,1
bfc26068:	e289      	addu	v0,a0
bfc2606a:	a253      	lbu	v0,19(v0)
bfc2606c:	7202      	cmpi	v0,2
bfc2606e:	6119      	btnez	bfc260a2 <.LBE2+0x2>
bfc26070:	b31e      	lw	v1,bfc260e8 <.LBE2+0x48>
    {
        if ((btcall_gl_var.g_sco_deal_flag == 0)
bfc26072:	a380      	lbu	a0,0(v1)
bfc26074:	2c35      	bnez	a0,bfc260e0 <.LBE2+0x40>
bfc26076:	a346      	lbu	v0,6(v1)
bfc26078:	7201      	cmpi	v0,1
bfc2607a:	6032      	bteqz	bfc260e0 <.LBE2+0x40>
bfc2607c:	b21c      	lw	v0,bfc260ec <.LBE2+0x4c>
bfc2607e:	824f      	lb	v0,15(v0)
bfc26080:	ea4f      	not	v0
bfc26082:	2a2e      	bnez	v0,bfc260e0 <.LBE2+0x40>

bfc26084 <.LBB2>:
bfc26084:	a348      	lbu	v0,8(v1)
            && (btcall_gl_var.callin_ring_mode != CALLIN_RING_MODE_ONLY_PB)
            && (g_callring_data.callring_timer_id == -1))
        {
            uint16 callring_start_delay;
            
            if (btcall_gl_var.callin_ring_first == 1)
bfc26086:	7201      	cmpi	v0,1
bfc26088:	6104      	btnez	bfc26092 <.LBB2+0xe>
bfc2608a:	f7c0 6d10 	li	a1,2000
            {
                callring_start_delay = 2000;
bfc2608e:	c388      	sb	a0,8(v1)
                btcall_gl_var.callin_ring_first = 0;
bfc26090:	1001      	b	bfc26094 <.LBB2+0x10>
bfc26092:	6dc8      	li	a1,200
            }
            else
            {
                callring_start_delay = 200;
bfc26094:	b617      	lw	a2,bfc260f0 <.LBE2+0x50>
            }
            
            g_callring_data.callring_timer_id = set_single_shot_app_timer(APP_TIMER_ATTRB_CONTROL,
bfc26096:	b218      	lw	v0,bfc260f4 <.LBE2+0x54>
bfc26098:	ea40      	jalr	v0
bfc2609a:	6c01      	li	a0,1
bfc2609c:	b314      	lw	v1,bfc260ec <.LBE2+0x4c>
bfc2609e:	c34f      	sb	v0,15(v1)

bfc260a0 <.LBE2>:
bfc260a0:	101f      	b	bfc260e0 <.LBE2+0x40>
bfc260a2:	b212      	lw	v0,bfc260e8 <.LBE2+0x48>
            callring_start_delay, (timer_proc) callring_start);
        }
    }
    else
    {
        if (btcall_gl_var.callin_ring_mode != CALLIN_RING_MODE_ONLY_PB)
bfc260a4:	a246      	lbu	v0,6(v0)
bfc260a6:	7201      	cmpi	v0,1
bfc260a8:	601b      	bteqz	bfc260e0 <.LBE2+0x40>
bfc260aa:	b011      	lw	s0,bfc260ec <.LBE2+0x4c>
        {
            if (g_callring_data.callring_timer_id != -1)
bfc260ac:	808f      	lb	a0,15(s0)
bfc260ae:	ea8f      	not	v0,a0
bfc260b0:	2205      	beqz	v0,bfc260bc <.LBE2+0x1c>
bfc260b2:	b212      	lw	v0,bfc260f8 <.LBE2+0x58>
            {
                kill_app_timer(g_callring_data.callring_timer_id);
bfc260b4:	eac0      	jalrc	v0
bfc260b6:	6a01      	li	v0,1
bfc260b8:	ea4b      	neg	v0
bfc260ba:	c04f      	sb	v0,15(s0)
                g_callring_data.callring_timer_id = -1;
bfc260bc:	b20c      	lw	v0,bfc260ec <.LBE2+0x4c>
            }
            
            if (g_callring_data.callring_thread_exist != 0)
bfc260be:	a240      	lbu	v0,0(v0)
bfc260c0:	2203      	beqz	v0,bfc260c8 <.LBE2+0x28>
bfc260c2:	6b01      	li	v1,1
            {
                //等待来电铃声线程退出
                btcall_gl_var.need_exit_thread = TRUE;
bfc260c4:	b209      	lw	v0,bfc260e8 <.LBE2+0x48>
bfc260c6:	c262      	sb	v1,2(v0)
bfc260c8:	b209      	lw	v0,bfc260ec <.LBE2+0x4c>
            }
            while (g_callring_data.callring_thread_exist != 0)
            {
                sys_os_time_dly(1);
bfc260ca:	a240      	lbu	v0,0(v0)
bfc260cc:	2209      	beqz	v0,bfc260e0 <.LBE2+0x40>
bfc260ce:	b10c      	lw	s1,bfc260fc <.LBE2+0x5c>
bfc260d0:	b007      	lw	s0,bfc260ec <.LBE2+0x4c>
bfc260d2:	6c01      	li	a0,1
bfc260d4:	6d00      	li	a1,0
bfc260d6:	67c5      	move	a2,a1
bfc260d8:	e940      	jalr	s1
bfc260da:	6f31      	li	a3,49
bfc260dc:	a040      	lbu	v0,0(s0)
bfc260de:	2af9      	bnez	v0,bfc260d2 <.LBE2+0x32>
bfc260e0:	6474      	restore	32,ra,s0-s1
            }
        }
    }
    
}
bfc260e2:	e8a0      	jrc	ra
bfc260e4:	9670      	lw	a2,448(sp)
bfc260e6:	9fc1      	lw	a2,4(a3)
bfc260e8:	964c      	lw	a2,304(sp)
bfc260ea:	9fc1      	lw	a2,4(a3)
bfc260ec:	9660      	lw	a2,384(sp)
bfc260ee:	9fc1      	lw	a2,4(a3)
bfc260f0:	6939      	li	s1,57
bfc260f2:	600e      	bteqz	bfc26110 <bt_stack_status+0x10>
bfc260f4:	6b19      	li	v1,25
bfc260f6:	60a2      	bteqz	bfc2603c <btcall_deal_app_msg+0x20>
bfc260f8:	6c0d      	li	a0,13
bfc260fa:	60a2      	bteqz	bfc26040 <btcall_deal_app_msg+0x24>
bfc260fc:	6009      	bteqz	bfc26110 <bt_stack_status+0x10>
bfc260fe:	bfc2      	lwu	a2,8(a3)

bfc26100 <bt_stack_status>:
bfc26100:	64f5      	save	40,ra,s0-s1


btcall_status_e bt_stack_status(const bt_stack_sub_info_t*cur_dev)
{
bfc26102:	6704      	move	s0,a0
bfc26104:	a46f      	lbu	v1,15(a0)
    btcall_status_e ret = BTCALL_IDLE;
    static uint32 sco_link_out_tick = 0;
    static uint8 hfp_sta = 0xff;
    static uint8 sco_link = 0xff;
    switch (cur_dev->hfp_status)
bfc26106:	5b07      	sltiu	v1,7
bfc26108:	6020      	bteqz	bfc2614a <bt_stack_status+0x4a>
bfc2610a:	0a04      	la	v0,bfc26118 <bt_stack_status+0x18>
bfc2610c:	3364      	sll	v1,1
bfc2610e:	e34d      	addu	v1,v0
bfc26110:	8b60      	lh	v1,0(v1)
bfc26112:	e34d      	addu	v1,v0
bfc26114:	eb80      	jrc	v1
bfc26116:	0000      	addiu	s0,sp,0
bfc26118:	0033      	addiu	s0,sp,204
bfc2611a:	000f      	addiu	s0,sp,60
bfc2611c:	0015      	addiu	s0,sp,84
bfc2611e:	001b      	addiu	s0,sp,108
bfc26120:	0021      	addiu	s0,sp,132
bfc26122:	0027      	addiu	s0,sp,156
bfc26124:	002d      	addiu	s0,sp,180
bfc26126:	6a01      	li	v0,1
    {
        case HFP_STATUS_LINKED:
            ret = BTCALL_STOP;
bfc26128:	d204      	sw	v0,16(sp)
bfc2612a:	1011      	b	bfc2614e <bt_stack_status+0x4e>
        break;
bfc2612c:	6a02      	li	v0,2
        
        case HFP_STATUS_INCOMING:
            ret = BTCALL_CALLIN;
bfc2612e:	d204      	sw	v0,16(sp)
bfc26130:	100e      	b	bfc2614e <bt_stack_status+0x4e>
        break;
bfc26132:	6a03      	li	v0,3
        
        case HFP_STATUS_OUTGOING:
            ret = BTCALL_CALLOUT;
bfc26134:	d204      	sw	v0,16(sp)
bfc26136:	100b      	b	bfc2614e <bt_stack_status+0x4e>
        break;
bfc26138:	6a04      	li	v0,4
        
        case HFP_STATUS_CALLING:
            ret = BTCALL_HFP;
bfc2613a:	d204      	sw	v0,16(sp)
bfc2613c:	1008      	b	bfc2614e <bt_stack_status+0x4e>
        break;
bfc2613e:	6a05      	li	v0,5
        
        case HFP_STATUS_PHONE:
            ret = BTCALL_PHONE;
bfc26140:	d204      	sw	v0,16(sp)
bfc26142:	1005      	b	bfc2614e <bt_stack_status+0x4e>
        break;
bfc26144:	6a06      	li	v0,6
		
		case HFP_STATUS_SIRI:
        	ret = BTCALL_SIRI;
bfc26146:	d204      	sw	v0,16(sp)
bfc26148:	1002      	b	bfc2614e <bt_stack_status+0x4e>
        break;
bfc2614a:	6a00      	li	v0,0
        
        case HFP_STATUS_NONE:
        default:
            ret = BTCALL_IDLE;
bfc2614c:	d204      	sw	v0,16(sp)
bfc2614e:	a06a      	lbu	v1,10(s0)
        break;
    }
    
    if(sco_link != (cur_dev->hfp_attr.sco_link))
bfc26150:	b228      	lw	v0,bfc261f0 <bt_stack_status+0xf0>
bfc26152:	a2a0      	lbu	a1,0(v0)
bfc26154:	6a01      	li	v0,1
bfc26156:	eb4c      	and	v1,v0
bfc26158:	ed6a      	cmp	a1,v1
bfc2615a:	6007      	bteqz	bfc2616a <bt_stack_status+0x6a>
bfc2615c:	35a0      	sll	a1,8
    {
        libc_print("SCO-link(old-new):",(sco_link << 8) + (cur_dev->hfp_attr.sco_link), 2);
bfc2615e:	0c18      	la	a0,bfc261bc <bt_stack_status+0xbc>
bfc26160:	e575      	addu	a1,v1
bfc26162:	6e02      	li	a2,2
bfc26164:	b224      	lw	v0,bfc261f4 <bt_stack_status+0xf4>
bfc26166:	ea40      	jalr	v0
bfc26168:	6f4b      	li	a3,75
bfc2616a:	b124      	lw	s1,bfc261f8 <bt_stack_status+0xf8>
        //sco_link = cur_dev->hfp_attr.sco_link;
    }
    
    
    if(hfp_sta != cur_dev->hfp_status)
bfc2616c:	a04f      	lbu	v0,15(s0)
bfc2616e:	a1a0      	lbu	a1,0(s1)
bfc26170:	eaaa      	cmp	v0,a1
bfc26172:	6009      	bteqz	bfc26186 <bt_stack_status+0x86>
bfc26174:	35a0      	sll	a1,8
    {
        libc_print("call-hfp(old-new):",(hfp_sta << 8) + cur_dev->hfp_status, 2);
bfc26176:	0c17      	la	a0,bfc261d0 <bt_stack_status+0xd0>
bfc26178:	e555      	addu	a1,v0
bfc2617a:	6e02      	li	a2,2
bfc2617c:	b21e      	lw	v0,bfc261f4 <bt_stack_status+0xf4>
bfc2617e:	ea40      	jalr	v0
bfc26180:	6f4b      	li	a3,75
bfc26182:	a04f      	lbu	v0,15(s0)
        hfp_sta = cur_dev->hfp_status;
bfc26184:	c140      	sb	v0,0(s1)
bfc26186:	b21b      	lw	v0,bfc261f0 <bt_stack_status+0xf0>
    }
    
    if ((sco_link == 1) && (cur_dev->hfp_attr.sco_link == 0))
bfc26188:	a240      	lbu	v0,0(v0)
bfc2618a:	7201      	cmpi	v0,1
bfc2618c:	610e      	btnez	bfc261aa <bt_stack_status+0xaa>
bfc2618e:	a04a      	lbu	v0,10(s0)
bfc26190:	6901      	li	s1,1
bfc26192:	67c2      	move	a2,v0
bfc26194:	ee2c      	and	a2,s1
bfc26196:	2e09      	bnez	a2,bfc261aa <bt_stack_status+0xaa>
bfc26198:	a04f      	lbu	v0,15(s0)
    {
        if(cur_dev->hfp_status != HFP_STATUS_PHONE)
bfc2619a:	7205      	cmpi	v0,5
bfc2619c:	6006      	bteqz	bfc261aa <bt_stack_status+0xaa>
bfc2619e:	0c12      	la	a0,bfc261e4 <bt_stack_status+0xe4>
        {
            libc_print("force-stop.",0, 0);
bfc261a0:	67a6      	move	a1,a2
bfc261a2:	b215      	lw	v0,bfc261f4 <bt_stack_status+0xf4>
bfc261a4:	ea40      	jalr	v0
bfc261a6:	6f4b      	li	a3,75
bfc261a8:	d104      	sw	s1,16(sp)
            ret = BTCALL_STOP;
bfc261aa:	a04a      	lbu	v0,10(s0)
        }
    }
    sco_link = cur_dev->hfp_attr.sco_link;
bfc261ac:	6b01      	li	v1,1
bfc261ae:	ea6c      	and	v0,v1
bfc261b0:	b310      	lw	v1,bfc261f0 <bt_stack_status+0xf0>
bfc261b2:	c340      	sb	v0,0(v1)
bfc261b4:	9204      	lw	v0,16(sp)
    
    return ret;
}
bfc261b6:	6475      	restore	40,ra,s0-s1
bfc261b8:	e8a0      	jrc	ra
bfc261ba:	0000      	addiu	s0,sp,0
bfc261bc:	4353      	daddiu	v0,v1,3
bfc261be:	2d4f      	bnez	a1,bfc2625e <get_message_loop+0x62>
bfc261c0:	696c      	li	s1,108
bfc261c2:	6b6e      	li	v1,110
bfc261c4:	6f28      	li	a3,40
bfc261c6:	646c      	restore	96,ra,s0
bfc261c8:	6e2d      	li	a2,45
bfc261ca:	7765      	cmpi	a3,101
bfc261cc:	3a29      	ld	s1,72(v0)
bfc261ce:	0000      	addiu	s0,sp,0
bfc261d0:	6163      	btnez	bfc26298 <get_message_loop+0x9c>
bfc261d2:	6c6c      	li	a0,108
bfc261d4:	682d      	li	s0,45
bfc261d6:	7066      	cmpi	s0,102
bfc261d8:	6f28      	li	a3,40
bfc261da:	646c      	restore	96,ra,s0
bfc261dc:	6e2d      	li	a2,45
bfc261de:	7765      	cmpi	a3,101
bfc261e0:	3a29      	ld	s1,72(v0)
bfc261e2:	0000      	addiu	s0,sp,0
bfc261e4:	6f66      	li	a3,102
bfc261e6:	6372      	addiu	sp,912
bfc261e8:	2d65      	bnez	a1,bfc262b4 <get_message_loop+0xb8>
bfc261ea:	7473      	cmpi	a0,115
bfc261ec:	706f      	cmpi	s0,111
bfc261ee:	002e      	addiu	s0,sp,184
bfc261f0:	9585      	lw	a1,532(sp)
bfc261f2:	9fc1      	lw	a2,4(a3)
bfc261f4:	6009      	bteqz	bfc26208 <get_message_loop+0xc>
bfc261f6:	bfc2      	lwu	a2,8(a3)
bfc261f8:	9584      	lw	a1,528(sp)
bfc261fa:	9fc1      	lw	a2,4(a3)

bfc261fc <get_message_loop>:
bfc261fc:	64f6      	save	48,ra,s0-s1

/******************************************************************************
 * \  par  Description:   读取消息的处理
 * \  param[in]     null0
 * \  param[out]   null
 * \  return           需要顶层处理的事件
 * \  note
 * \  <author>       <time>        <opt>
 * \  Cailizhen          2015-1          creat
 * \   Wekan       2015-3-30     reviwe
 *******************************************************************************/
app_result_e get_message_loop(void)
{
bfc261fe:	6a00      	li	v0,0
    app_result_e result = RESULT_NULL;
    uint8 last_hfp_status = HFP_STATUS_NONE;
bfc26200:	d204      	sw	v0,16(sp)
bfc26202:	6b01      	li	v1,1
    uint8 hfp_sta_tmp;
    uint8 hfp_active_id;
    btcall_gl_var.callin_ring_first = 1;
bfc26204:	b256      	lw	v0,bfc2635c <.LBE5+0x62>
bfc26206:	c268      	sb	v1,8(v0)
bfc26208:	b356      	lw	v1,bfc26360 <.LBE5+0x66>

    while (1)
    {
        
        hfp_active_id = g_p_bt_stack_cur_info->hfp_active_id;
bfc2620a:	9b80      	lw	a0,0(v1)
bfc2620c:	f020 a429 	lbu	s1,41(a0)
bfc26210:	322c      	sll	v0,s1,3
        hfp_sta_tmp = g_p_bt_stack_cur_info->rmt_dev[hfp_active_id].hfp_status;
bfc26212:	e229      	addu	v0,s1
bfc26214:	3244      	sll	v0,1
bfc26216:	d206      	sw	v0,24(sp)
bfc26218:	e291      	addu	a0,v0,a0
bfc2621a:	a453      	lbu	v0,19(a0)
bfc2621c:	d205      	sw	v0,20(sp)
bfc2621e:	b252      	lw	v0,bfc26364 <.LBE5+0x6a>
        g_p_btcall_info->status = bt_stack_status(&g_p_bt_stack_cur_info->rmt_dev[hfp_active_id]); 
bfc26220:	9a00      	lw	s0,0(v0)
bfc26222:	b252      	lw	v0,bfc26368 <.LBE5+0x6e>
bfc26224:	ea40      	jalr	v0
bfc26226:	4484      	addiu	a0,a0,4
bfc26228:	c040      	sb	v0,0(s0)
bfc2622a:	b34d      	lw	v1,bfc2635c <.LBE5+0x62>
        if (btcall_gl_var.tts_play_flag == 0)
bfc2622c:	a344      	lbu	v0,4(v1)
bfc2622e:	2a56      	bnez	v0,bfc262dc <get_message_loop+0xe0>
bfc26230:	a340      	lbu	v0,0(v1)
        {
            if ((btcall_gl_var.g_sco_deal_flag == 0)
bfc26232:	2a1b      	bnez	v0,bfc2626a <get_message_loop+0x6e>
bfc26234:	b34b      	lw	v1,bfc26360 <.LBE5+0x66>
bfc26236:	9b40      	lw	v0,0(v1)
bfc26238:	9306      	lw	v1,24(sp)
bfc2623a:	e349      	addu	v0,v1,v0
bfc2623c:	a24e      	lbu	v0,14(v0)
bfc2623e:	6b01      	li	v1,1
bfc26240:	ea6c      	and	v0,v1
bfc26242:	2213      	beqz	v0,bfc2626a <get_message_loop+0x6e>
bfc26244:	b346      	lw	v1,bfc2635c <.LBE5+0x62>
                    && (g_p_bt_stack_cur_info->rmt_dev[hfp_active_id].hfp_attr.sco_link == 1))
            {
                if ((btcall_gl_var.ignore_uncall_sco == 1)
bfc26246:	a34d      	lbu	v0,13(v1)
bfc26248:	7201      	cmpi	v0,1
bfc2624a:	6105      	btnez	bfc26256 <get_message_loop+0x5a>
bfc2624c:	9205      	lw	v0,20(sp)
bfc2624e:	7204      	cmpi	v0,4
bfc26250:	6002      	bteqz	bfc26256 <get_message_loop+0x5a>
bfc26252:	7202      	cmpi	v0,2
bfc26254:	6134      	btnez	bfc262be <get_message_loop+0xc2>
bfc26256:	9305      	lw	v1,20(sp)
                        && (hfp_sta_tmp != HFP_STATUS_CALLING)
                        && (hfp_sta_tmp != HFP_STATUS_INCOMING))
                {
                    ; //过滤非打电话的SCO语音
                }
                else
                {
                    if ((hfp_sta_tmp != HFP_STATUS_INCOMING)
bfc26258:	7302      	cmpi	v1,2
bfc2625a:	6104      	btnez	bfc26264 <get_message_loop+0x68>
bfc2625c:	b340      	lw	v1,bfc2635c <.LBE5+0x62>
bfc2625e:	a346      	lbu	v0,6(v1)
bfc26260:	7201      	cmpi	v0,1
bfc26262:	602d      	bteqz	bfc262be <get_message_loop+0xc2>
bfc26264:	b242      	lw	v0,bfc2636c <.LBE5+0x72>
                            || (btcall_gl_var.callin_ring_mode != CALLIN_RING_MODE_ONLY_PB))
                    { //除了来电铃声，且采用电话本播报取代铃声这种情况外，
                      //其他情况都可以创建解码线程
                        bt_engine_hfp_sco_connect_ind_handle();
bfc26266:	eac0      	jalrc	v0
bfc26268:	102a      	b	bfc262be <get_message_loop+0xc2>
bfc2626a:	b33d      	lw	v1,bfc2635c <.LBE5+0x62>
                        //libc_print("CORE_PLL_CTL=", act_readl(CORE_PLL_CTL), 2);
                    }
                }
            }         
            else if ((btcall_gl_var.g_sco_deal_flag == 1))
bfc2626c:	a340      	lbu	v0,0(v1)
bfc2626e:	7201      	cmpi	v0,1
bfc26270:	6126      	btnez	bfc262be <get_message_loop+0xc2>
bfc26272:	b240      	lw	v0,bfc26370 <.LBE5+0x76>
            {
                if(g_stub_tools_type == STUB_PC_TOOL_ATT_MODE)
bfc26274:	a240      	lbu	v0,0(v0)
bfc26276:	7204      	cmpi	v0,4
bfc26278:	6113      	btnez	bfc262a0 <get_message_loop+0xa4>
bfc2627a:	b33a      	lw	v1,bfc26360 <.LBE5+0x66>
                {
                    //自动化测试模式使用的分支条件
                    if(g_p_bt_stack_cur_info->rmt_dev[hfp_active_id].hfp_attr.sco_link == 0)
bfc2627c:	9b40      	lw	v0,0(v1)
bfc2627e:	332c      	sll	v1,s1,3
bfc26280:	e32d      	addu	v1,s1
bfc26282:	3364      	sll	v1,1
bfc26284:	e34d      	addu	v1,v0
bfc26286:	a34e      	lbu	v0,14(v1)
bfc26288:	6801      	li	s0,1
bfc2628a:	e84c      	and	s0,v0
bfc2628c:	2818      	bnez	s0,bfc262be <get_message_loop+0xc2>
bfc2628e:	b23a      	lw	v0,bfc26374 <.LBE5+0x7a>
                    {
                        bt_engine_hfp_sco_disconnect_ind_handle();
bfc26290:	eac0      	jalrc	v0
bfc26292:	6c05      	li	a0,5
                        sys_os_time_dly(5);                       
bfc26294:	67b0      	move	a1,s0
bfc26296:	67d0      	move	a2,s0
bfc26298:	b238      	lw	v0,bfc26378 <.LBE5+0x7e>
bfc2629a:	ea40      	jalr	v0
bfc2629c:	6f31      	li	a3,49
bfc2629e:	100f      	b	bfc262be <get_message_loop+0xc2>
bfc262a0:	b231      	lw	v0,bfc26364 <.LBE5+0x6a>
                    }                    
                }
                else
                {
                    if((g_p_btcall_info->status <= BTCALL_STOP) || (g_p_btcall_info->status == BTCALL_PHONE))
bfc262a2:	9a40      	lw	v0,0(v0)
bfc262a4:	a240      	lbu	v0,0(v0)
bfc262a6:	5a02      	sltiu	v0,2
bfc262a8:	6102      	btnez	bfc262ae <get_message_loop+0xb2>
bfc262aa:	7205      	cmpi	v0,5
bfc262ac:	6108      	btnez	bfc262be <get_message_loop+0xc2>
bfc262ae:	b232      	lw	v0,bfc26374 <.LBE5+0x7a>
                    {
                        bt_engine_hfp_sco_disconnect_ind_handle();
bfc262b0:	eac0      	jalrc	v0
bfc262b2:	6c05      	li	a0,5
                        sys_os_time_dly(5);//留点时间asqt工具
bfc262b4:	6d00      	li	a1,0
bfc262b6:	67c5      	move	a2,a1
bfc262b8:	b230      	lw	v0,bfc26378 <.LBE5+0x7e>
bfc262ba:	ea40      	jalr	v0
bfc262bc:	6f31      	li	a3,49
bfc262be:	9205      	lw	v0,20(sp)
                    }
                }    
            }
            else
            {
                ;//nothing
            }

            if ((hfp_sta_tmp != last_hfp_status)
bfc262c0:	9304      	lw	v1,16(sp)
bfc262c2:	ea6a      	cmp	v0,v1
bfc262c4:	6104      	btnez	bfc262ce <get_message_loop+0xd2>
bfc262c6:	b326      	lw	v1,bfc2635c <.LBE5+0x62>
bfc262c8:	a349      	lbu	v0,9(v1)
bfc262ca:	7201      	cmpi	v0,1
bfc262cc:	6107      	btnez	bfc262dc <get_message_loop+0xe0>
bfc262ce:	b22c      	lw	v0,bfc2637c <.LBE5+0x82>
                    || (btcall_gl_var.callin_pb_back == 1))
            {
                deal_callin();
bfc262d0:	eac0      	jalrc	v0
bfc262d2:	6a00      	li	v0,0
                btcall_gl_var.callin_pb_back = 0;
bfc262d4:	b322      	lw	v1,bfc2635c <.LBE5+0x62>
bfc262d6:	c349      	sb	v0,9(v1)
bfc262d8:	9205      	lw	v0,20(sp)
                last_hfp_status = hfp_sta_tmp;
bfc262da:	d204      	sw	v0,16(sp)
bfc262dc:	b222      	lw	v0,bfc26364 <.LBE5+0x6a>
            }
            
        }

        if ((g_p_btcall_info->status == BTCALL_IDLE) || (g_p_btcall_info->status == BTCALL_STOP))
bfc262de:	9a40      	lw	v0,0(v0)
bfc262e0:	a240      	lbu	v0,0(v0)
bfc262e2:	5a02      	sltiu	v0,2
bfc262e4:	6007      	bteqz	bfc262f4 <.LBB5>

bfc262e6 <.LBB3>:
bfc262e6:	6b02      	li	v1,2
}

///修改后台引擎状态
static inline void change_engine_state(engine_state_e engine_state)
{
bfc262e8:	b226      	lw	v0,bfc26380 <.LBE5+0x86>
    g_app_info_state_all.engine_state = engine_state;
bfc262ea:	c261      	sb	v1,1(v0)

bfc262ec <.LBE3>:
bfc262ec:	6a01      	li	v0,1
        {
            change_engine_state(ENGINE_STATE_PAUSE);
            btcall_gl_var.callin_ring_first = 1;
bfc262ee:	b31c      	lw	v1,bfc2635c <.LBE5+0x62>
bfc262f0:	c348      	sb	v0,8(v1)
bfc262f2:	1003      	b	bfc262fa <.LBE5>

bfc262f4 <.LBB5>:
bfc262f4:	b223      	lw	v0,bfc26380 <.LBE5+0x86>

///修改后台引擎状态
static inline void change_engine_state(engine_state_e engine_state)
{
    g_app_info_state_all.engine_state = engine_state;
bfc262f6:	6b01      	li	v1,1
bfc262f8:	c261      	sb	v1,1(v0)

bfc262fa <.LBE5>:
bfc262fa:	b223      	lw	v0,bfc26384 <.LBE5+0x8a>
        }
        else
        {
            change_engine_state(ENGINE_STATE_PLAYING);
        }

        //处理当前应用的私有消息
        result = btcall_deal_app_msg();
bfc262fc:	eac0      	jalrc	v0
bfc262fe:	6702      	move	s0,v0
bfc26300:	2a07      	bnez	v0,bfc26310 <.LBE5+0x16>
        if (result != RESULT_NULL)
bfc26302:	6c01      	li	a0,1
        {
            break;
        }

        //挂起10ms，多任务调度
        sys_os_time_dly(1);
bfc26304:	67a2      	move	a1,v0
bfc26306:	67c2      	move	a2,v0
bfc26308:	b21c      	lw	v0,bfc26378 <.LBE5+0x7e>
bfc2630a:	ea40      	jalr	v0
bfc2630c:	6f31      	li	a3,49
bfc2630e:	177c      	b	bfc26208 <get_message_loop+0xc>
bfc26310:	6c11      	li	a0,17
    }

    //销毁共享查询
    if (sys_share_query_destroy(APP_ID_BTCALLEG) == -1)
bfc26312:	6d00      	li	a1,0
bfc26314:	67c5      	move	a2,a1
bfc26316:	b119      	lw	s1,bfc26378 <.LBE5+0x7e>
bfc26318:	e940      	jalr	s1
bfc2631a:	6f44      	li	a3,68
bfc2631c:	ea4f      	not	v0
bfc2631e:	2a06      	bnez	v0,bfc2632c <.LBE5+0x32>
bfc26320:	0c05      	la	a0,bfc26334 <.LBE5+0x3a>
    {
        PRINT_ERR("btcall share query destroy fail!\n");
bfc26322:	6d00      	li	a1,0
bfc26324:	67c5      	move	a2,a1
bfc26326:	e940      	jalr	s1
bfc26328:	6f4b      	li	a3,75
bfc2632a:	17ff      	b	bfc2632a <.LBE5+0x30>
        while (1)
bfc2632c:	6750      	move	v0,s0
        {
            ;//nothing
        }
    }

    return result;
}
bfc2632e:	6476      	restore	48,ra,s0-s1
bfc26330:	e8a0      	jrc	ra
bfc26332:	0000      	addiu	s0,sp,0
bfc26334:	453c      	daddiu	s1,a1,-4
bfc26336:	203e      	beqz	s0,bfc263b4 <handle_timers+0x2c>
bfc26338:	7462      	cmpi	a0,98
bfc2633a:	6163      	btnez	bfc26402 <handle_timers+0x7a>
bfc2633c:	6c6c      	li	a0,108
bfc2633e:	7320      	cmpi	v1,32
bfc26340:	6168      	btnez	bfc26412 <handle_timers+0x8a>
bfc26342:	6572      	move	s3,v0
bfc26344:	7120      	cmpi	s1,32
bfc26346:	6575      	move	s3,a1
bfc26348:	7972      	sd	v1,144(s1)
bfc2634a:	6420      	restore	128,s0
bfc2634c:	7365      	cmpi	v1,101
bfc2634e:	7274      	cmpi	v0,116
bfc26350:	796f      	sd	v1,120(s1)
bfc26352:	6620      	0x6620
bfc26354:	6961      	li	s1,97
bfc26356:	216c      	beqz	s1,bfc26430 <handle_timers+0xa8>
bfc26358:	000a      	addiu	s0,sp,40
bfc2635a:	0000      	addiu	s0,sp,0
bfc2635c:	964c      	lw	a2,304(sp)
bfc2635e:	9fc1      	lw	a2,4(a3)
bfc26360:	9670      	lw	a2,448(sp)
bfc26362:	9fc1      	lw	a2,4(a3)
bfc26364:	967c      	lw	a2,496(sp)
bfc26366:	9fc1      	lw	a2,4(a3)
bfc26368:	6101      	btnez	bfc2636c <.LBE5+0x72>
bfc2636a:	bfc2      	lwu	a2,8(a3)
bfc2636c:	6a35      	li	v0,53
bfc2636e:	6012      	bteqz	bfc26394 <handle_timers+0xc>
bfc26370:	95a8      	lw	a1,672(sp)
bfc26372:	9fc1      	lw	a2,4(a3)
bfc26374:	6a9d      	li	v0,157
bfc26376:	6012      	bteqz	bfc2639c <handle_timers+0x14>
bfc26378:	6009      	bteqz	bfc2638c <handle_timers+0x4>
bfc2637a:	bfc2      	lwu	a2,8(a3)
bfc2637c:	6059      	bteqz	bfc26430 <handle_timers+0xa8>
bfc2637e:	bfc2      	lwu	a2,8(a3)
bfc26380:	a094      	lbu	a0,20(s0)
bfc26382:	9fc1      	lw	a2,4(a3)
bfc26384:	601d      	bteqz	bfc263c0 <handle_timers+0x38>
bfc26386:	bfc2      	lwu	a2,8(a3)

bfc26388 <handle_timers>:
bfc26388:	f004 64f5 	save	a0,40,ra,s0-s1
 * \ingroup      app_timer
 * \note
 *******************************************************************************/
void handle_timers(app_timer_t *timers, uint8 count)
{
bfc2638c:	ed11      	zeb	a1
bfc2638e:	6c00      	li	a0,0
    app_timer_t *tm;
    uint32 cur_time_ms = sys_get_ab_timer(); //如果没有执行软定时器服务例程，认为当前时间不变
bfc26390:	b23a      	lw	v0,bfc26478 <handle_timers+0xf0>
bfc26392:	d504      	sw	a1,16(sp)
bfc26394:	6f1c      	li	a3,28
bfc26396:	67a4      	move	a1,a0
bfc26398:	ea40      	jalr	v0
bfc2639a:	67c4      	move	a2,a0
bfc2639c:	9304      	lw	v1,16(sp)
    uint32 next_time_ms;
    uint16 next_timeout;
    uint8 i;
    bool need_proc;

    for (i = 0; i < count; i++)
bfc2639e:	67e2      	move	a3,v0
bfc263a0:	6a00      	li	v0,0
bfc263a2:	d205      	sw	v0,20(sp)
bfc263a4:	2366      	beqz	v1,bfc26472 <handle_timers+0xea>
bfc263a6:	9405      	lw	a0,20(sp)
    {
        tm = timers + i;
bfc263a8:	930a      	lw	v1,40(sp)
bfc263aa:	3290      	sll	v0,a0,4
bfc263ac:	e351      	addu	a0,v1,v0
bfc263ae:	a4a0      	lbu	a1,0(a0)

        //定时器正在运行才需要执行
        if (tm->state != TIMER_STATE_RUNNING)
bfc263b0:	6e03      	li	a2,3
bfc263b2:	edcc      	and	a1,a2
bfc263b4:	7501      	cmpi	a1,1
bfc263b6:	6156      	btnez	bfc26464 <handle_timers+0xdc>
bfc263b8:	b631      	lw	a2,bfc2647c <handle_timers+0xf4>
        {
            continue;
        }

        //TAG场景检查
        if ((tm->tag != g_this_app_timer_tag) && (tm->tag != APP_TIMER_TAG_SYS))
bfc263ba:	a461      	lbu	v1,1(a0)
bfc263bc:	a6a0      	lbu	a1,0(a2)
bfc263be:	ed6e      	xor	a1,v1
bfc263c0:	2502      	beqz	a1,bfc263c6 <handle_timers+0x3e>
bfc263c2:	73ff      	cmpi	v1,255
bfc263c4:	614f      	btnez	bfc26464 <handle_timers+0xdc>
bfc263c6:	677d      	move	v1,sp
        {
            continue;
        }

        g_app_timer_id = i;
bfc263c8:	a354      	lbu	v0,20(v1)
bfc263ca:	b12e      	lw	s1,bfc26480 <handle_timers+0xf8>
bfc263cc:	6860      	li	s0,96
        next_timeout = tm->timeout;
        if ((tm->twinkle == TRUE) && (tm->on_off == FALSE))
bfc263ce:	c140      	sb	v0,0(s1)
bfc263d0:	a460      	lbu	v1,0(a0)
bfc263d2:	acc2      	lhu	a2,4(a0)
bfc263d4:	e86c      	and	s0,v1
bfc263d6:	7020      	cmpi	s0,32
bfc263d8:	653e      	move	t9,a2
bfc263da:	6101      	btnez	bfc263de <handle_timers+0x56>
bfc263dc:	acc3      	lhu	a2,6(a0)
        {
            next_timeout = tm->timeout_off;
bfc263de:	9ca2      	lw	a1,8(a0)
        }
        next_time_ms = cur_time_ms + next_timeout;
        need_proc = FALSE;
        if (cur_time_ms >= tm->timeout_expires) //定时时间已到
bfc263e0:	e7c1      	addu	s0,a3,a2
bfc263e2:	efa3      	sltu	a3,a1
bfc263e4:	6900      	li	s1,0
bfc263e6:	612e      	btnez	bfc26444 <handle_timers+0xbc>
bfc263e8:	6910      	li	s1,16
        {
            //单发软定时器一次执行完后 kill 掉
            if (tm->type == TIMER_TYPE_SINGLE_SHOT)
bfc263ea:	e96c      	and	s1,v1
bfc263ec:	2104      	beqz	s1,bfc263f6 <handle_timers+0x6e>
bfc263ee:	6904      	li	s1,4
            {
                tm->state = TIMER_STATE_NOUSED;
bfc263f0:	ea2b      	neg	v0,s1
bfc263f2:	eb4c      	and	v1,v0
bfc263f4:	c460      	sb	v1,0(a0)
bfc263f6:	e7af      	subu	v1,a3,a1
            }
            need_proc = TRUE;

            //重设软定时器超时时间
            if (tm->timeout > (cur_time_ms - tm->timeout_expires))
bfc263f8:	67f9      	move	a3,t9
bfc263fa:	ebe3      	sltu	v1,a3
bfc263fc:	6901      	li	s1,1
bfc263fe:	6003      	bteqz	bfc26406 <handle_timers+0x7e>
bfc26400:	e5c9      	addu	v0,a1,a2
            {
                //当前时间>=这次expires时间<下次expires时间
                tm->timeout_expires += next_timeout; //直接在expires上加定时周期，以确保多次定时时间准确
bfc26402:	dc42      	sw	v0,8(a0)
bfc26404:	1001      	b	bfc26408 <handle_timers+0x80>
bfc26406:	dc02      	sw	s0,8(a0)
            }
            else
            {
                //当前时间>=下次expires时间
                //已经错过了一次expires(说明timeout太短了)
                //将下次expires时间设置到当前时间的timeout之后, 不然下次timeout立即就会到来
                tm->timeout_expires = next_time_ms;
bfc26408:	a460      	lbu	v1,0(a0)
            }

            if (tm->twinkle == TRUE)
bfc2640a:	6d20      	li	a1,32
bfc2640c:	ed6c      	and	a1,v1
bfc2640e:	251a      	beqz	a1,bfc26444 <handle_timers+0xbc>
bfc26410:	6d40      	li	a1,64
            {
                if (tm->on_off == TRUE)
bfc26412:	67c3      	move	a2,v1
bfc26414:	eeac      	and	a2,a1
bfc26416:	2605      	beqz	a2,bfc26422 <handle_timers+0x9a>
bfc26418:	6a41      	li	v0,65
                {
                    tm->on_off = FALSE;
bfc2641a:	ef4b      	neg	a3,v0
bfc2641c:	ebec      	and	v1,a3
bfc2641e:	c460      	sb	v1,0(a0)
bfc26420:	1011      	b	bfc26444 <handle_timers+0xbc>
bfc26422:	ebad      	or	v1,a1
                }
                else
                {
                    tm->on_off = TRUE;
bfc26424:	c460      	sb	v1,0(a0)
bfc26426:	a462      	lbu	v1,2(a0)

                    if (tm->count != 0xff)
bfc26428:	67a3      	move	a1,v1
bfc2642a:	ed11      	zeb	a1
bfc2642c:	75ff      	cmpi	a1,255
bfc2642e:	6002      	bteqz	bfc26434 <handle_timers+0xac>
bfc26430:	43cf      	addiu	a2,v1,-1
                    {
                        tm->count--;
bfc26432:	c4c2      	sb	a2,2(a0)
bfc26434:	a4a2      	lbu	a1,2(a0)
                    }
                    if (tm->count == 0)
bfc26436:	2d06      	bnez	a1,bfc26444 <handle_timers+0xbc>
bfc26438:	a420      	lbu	s1,0(a0)
                    {
                        tm->state = TIMER_STATE_NOUSED;
bfc2643a:	6f04      	li	a3,4
bfc2643c:	ebeb      	neg	v1,a3
bfc2643e:	e96c      	and	s1,v1
bfc26440:	c420      	sb	s1,0(a0)
bfc26442:	6725      	move	s1,a1
                        need_proc = FALSE;
bfc26444:	9c42      	lw	v0,8(a0)
                    }
                }
            }
        }

        if (next_time_ms <= tm->timeout_expires)
bfc26446:	ea03      	sltu	v0,s0
bfc26448:	6101      	btnez	bfc2644c <handle_timers+0xc4>
bfc2644a:	dc02      	sw	s0,8(a0)
        {
            //如果系统时间因某种原因落在超时时间点后面，那么必须修复该时间点
            tm->timeout_expires = next_time_ms;
bfc2644c:	7101      	cmpi	s1,1
        }

        //调用软定时器服务例程
        if ((need_proc == TRUE) && (tm->func_proc != NULL))
bfc2644e:	6103      	btnez	bfc26456 <handle_timers+0xce>
bfc26450:	9c43      	lw	v0,12(a0)
bfc26452:	2201      	beqz	v0,bfc26456 <handle_timers+0xce>
bfc26454:	eac0      	jalrc	v0
        {
            tm->func_proc();
bfc26456:	6c00      	li	a0,0
        }

        //执行过软定时器服务例程，重新加载当前时间，这样时间较为准确
        cur_time_ms = sys_get_ab_timer();
bfc26458:	b208      	lw	v0,bfc26478 <handle_timers+0xf0>
bfc2645a:	6f1c      	li	a3,28
bfc2645c:	67a4      	move	a1,a0
bfc2645e:	ea40      	jalr	v0
bfc26460:	67c4      	move	a2,a0
bfc26462:	67e2      	move	a3,v0
bfc26464:	9605      	lw	a2,20(sp)
bfc26466:	9404      	lw	a0,16(sp)
bfc26468:	46a1      	addiu	a1,a2,1
bfc2646a:	ed11      	zeb	a1
bfc2646c:	ed83      	sltu	a1,a0
bfc2646e:	d505      	sw	a1,20(sp)
bfc26470:	619a      	btnez	bfc263a6 <handle_timers+0x1e>
bfc26472:	6475      	restore	40,ra,s0-s1
bfc26474:	e8a0      	jrc	ra
bfc26476:	0000      	addiu	s0,sp,0
bfc26478:	6009      	bteqz	bfc2648c <get_app_msg+0x8>
bfc2647a:	bfc2      	lwu	a2,8(a3)
bfc2647c:	9595      	lw	a1,596(sp)
bfc2647e:	9fc1      	lw	a2,4(a3)
bfc26480:	9594      	lw	a1,592(sp)
bfc26482:	9fc1      	lw	a2,4(a3)

bfc26484 <get_app_msg>:
bfc26484:	64e3      	save	24,ra,s0
 * \endcode
 * \note
 *******************************************************************************/
bool get_app_msg(private_msg_t *private_msg)
{
bfc26486:	b20b      	lw	v0,bfc264b0 <get_app_msg+0x2c>
    //软定时器扫描
    if (g_app_timer_count > 0)
bfc26488:	6704      	move	s0,a0
bfc2648a:	a2a0      	lbu	a1,0(v0)
bfc2648c:	2504      	beqz	a1,bfc26496 <get_app_msg+0x12>
bfc2648e:	b60a      	lw	a2,bfc264b4 <get_app_msg+0x30>
    {
        handle_timers(g_app_timer_vector, g_app_timer_count);
bfc26490:	b30a      	lw	v1,bfc264b8 <get_app_msg+0x34>
bfc26492:	eb40      	jalr	v1
bfc26494:	9e80      	lw	a0,0(a2)
bfc26496:	b40a      	lw	a0,bfc264bc <get_app_msg+0x38>
    }

    //sys_dsp_print();

    //接收 应用私有消息
    if (sys_mq_receive((uint32) (g_this_app_info->mq_id), (void *) private_msg) == 0)
bfc26498:	b20a      	lw	v0,bfc264c0 <get_app_msg+0x3c>
bfc2649a:	9ca0      	lw	a1,0(a0)
bfc2649c:	6e00      	li	a2,0
bfc2649e:	a583      	lbu	a0,3(a1)
bfc264a0:	6f19      	li	a3,25
bfc264a2:	ea40      	jalr	v0
bfc264a4:	67b0      	move	a1,s0
bfc264a6:	5a01      	sltiu	v0,1
    {
        return TRUE;
    }

    //消息队列已空，返回false
    return FALSE;
}
bfc264a8:	6758      	move	v0,t8
bfc264aa:	6463      	restore	24,ra,s0
bfc264ac:	e8a0      	jrc	ra
bfc264ae:	0000      	addiu	s0,sp,0
bfc264b0:	95a0      	lw	a1,640(sp)
bfc264b2:	9fc1      	lw	a2,4(a3)
bfc264b4:	9590      	lw	a1,576(sp)
bfc264b6:	9fc1      	lw	a2,4(a3)
bfc264b8:	6389      	addiu	sp,-952
bfc264ba:	bfc2      	lwu	a2,8(a3)
bfc264bc:	9598      	lw	a1,608(sp)
bfc264be:	9fc1      	lw	a2,4(a3)
bfc264c0:	6009      	bteqz	bfc264d4 <dma_dac_start_transfer+0x10>
bfc264c2:	bfc2      	lwu	a2,8(a3)

bfc264c4 <dma_dac_start_transfer>:
bfc264c4:	b20f      	lw	v0,bfc26500 <dma_dac_start_transfer+0x3c>
{
    while ((act_readl(DMAIP) & 0x00000808) != 0)
    {
        //clear pending，注意不能使用读-或-写这种方式，避免清掉其他pending位
        act_writel(0x00000808, DMAIP);
bfc264c6:	6782      	move	a0,v0
bfc264c8:	f001 6b08 	li	v1,2056
bfc264cc:	651b      	move	t8,v1
bfc264ce:	9a40      	lw	v0,0(v0)
bfc264d0:	ea6c      	and	v0,v1
bfc264d2:	2207      	beqz	v0,bfc264e2 <dma_dac_start_transfer+0x1e>
bfc264d4:	6744      	move	v0,a0
bfc264d6:	6778      	move	v1,t8
bfc264d8:	dc60      	sw	v1,0(a0)
bfc264da:	651b      	move	t8,v1
bfc264dc:	9a40      	lw	v0,0(v0)
bfc264de:	ea6c      	and	v0,v1
bfc264e0:	2af9      	bnez	v0,bfc264d4 <dma_dac_start_transfer+0x10>
bfc264e2:	b209      	lw	v0,bfc26504 <dma_dac_start_transfer+0x40>
    }
    if(0 == g_app_info_state_all.fix_sample_rate_flag)
bfc264e4:	a249      	lbu	v0,9(v0)
bfc264e6:	2a05      	bnez	v0,bfc264f2 <dma_dac_start_transfer+0x2e>
bfc264e8:	b208      	lw	v0,bfc26508 <dma_dac_start_transfer+0x44>
    {
        //reload enable
        act_writel(act_readl(DMA3CTL) | (1 << DMA3CTL_reload), DMA3CTL);
bfc264ea:	9a60      	lw	v1,0(v0)
bfc264ec:	6c02      	li	a0,2
bfc264ee:	eb8d      	or	v1,a0
bfc264f0:	da60      	sw	v1,0(v0)
bfc264f2:	b206      	lw	v0,bfc26508 <dma_dac_start_transfer+0x44>
    }
    //enable transfer
    act_writel(act_readl(DMA3CTL) | (1 << DMA3CTL_DMA3START), DMA3CTL);
bfc264f4:	9a60      	lw	v1,0(v0)
bfc264f6:	6c01      	li	a0,1
bfc264f8:	eb8d      	or	v1,a0
bfc264fa:	da60      	sw	v1,0(v0)
bfc264fc:	e8a0      	jrc	ra
}
bfc264fe:	0000      	addiu	s0,sp,0
bfc26500:	0004      	addiu	s0,sp,16
bfc26502:	c00c      	sb	s0,12(s0)
bfc26504:	a094      	lbu	a0,20(s0)
bfc26506:	9fc1      	lw	a2,4(a3)
bfc26508:	0058      	addiu	s0,sp,352
bfc2650a:	c00c      	sb	s0,12(s0)

bfc2650c <task_timer10ms>:
bfc2650c:	64e3      	save	24,ra,s0
 * \  <author>       <time>        <opt>
 * \   Wekan       2015-4-1      creat
 *******************************************************************************/
void __section__(".rcode") task_timer10ms(void)
{
bfc2650e:	b21e      	lw	v0,bfc26584 <task_timer10ms+0x78>
    static  uint16 task_timer_dly = 0;
    static PC_curStatus_e last_pc_tool_status = sNotReady;
    PC_curStatus_e pc_tool_status = stub_asqt_tools_status();
bfc26510:	eac0      	jalrc	v0
bfc26512:	6702      	move	s0,v0
bfc26514:	6d00      	li	a1,0
    bool reset_dsp_falg = FALSE;
bfc26516:	b31d      	lw	v1,bfc26588 <task_timer10ms+0x7c>
    if(task_timer_dly  < 500)//避免跟tts冲突
bfc26518:	ab40      	lhu	v0,0(v1)
bfc2651a:	f1e0 5a14 	sltiu	v0,500
bfc2651e:	600a      	bteqz	bfc26534 <task_timer10ms+0x28>
bfc26520:	ab40      	lhu	v0,0(v1)
    {
        task_timer_dly++;
bfc26522:	4241      	addiu	v0,v0,1
bfc26524:	cb40      	sh	v0,0(v1)
bfc26526:	ab40      	lhu	v0,0(v1)
        if(task_timer_dly == 500)
bfc26528:	f1e0 7214 	cmpi	v0,500
bfc2652c:	6121      	btnez	bfc26570 <task_timer10ms+0x64>
bfc2652e:	b218      	lw	v0,bfc2658c <task_timer10ms+0x80>
        {
            reset_aec_asqt();
bfc26530:	eac0      	jalrc	v0
bfc26532:	101e      	b	bfc26570 <task_timer10ms+0x64>
        }
        return;
bfc26534:	7004      	cmpi	s0,4
    }
    if((pc_tool_status == sUserUpdate) && (last_pc_tool_status == sUserStart))
bfc26536:	610f      	btnez	bfc26556 <task_timer10ms+0x4a>
bfc26538:	b216      	lw	v0,bfc26590 <task_timer10ms+0x84>
bfc2653a:	a240      	lbu	v0,0(v0)
bfc2653c:	7205      	cmpi	v0,5
bfc2653e:	610b      	btnez	bfc26556 <task_timer10ms+0x4a>
bfc26540:	b215      	lw	v0,bfc26594 <task_timer10ms+0x88>
    {
        reset_dsp(g_real_call_mode);
bfc26542:	a280      	lbu	a0,0(v0)
bfc26544:	b215      	lw	v0,bfc26598 <task_timer10ms+0x8c>
bfc26546:	eac0      	jalrc	v0
bfc26548:	0c0b      	la	a0,bfc26570 <task_timer10ms+0x64>
        PRINT_INFO("reset dsp");
bfc2654a:	6d00      	li	a1,0
bfc2654c:	67c5      	move	a2,a1
bfc2654e:	b214      	lw	v0,bfc2659c <task_timer10ms+0x90>
bfc26550:	ea40      	jalr	v0
bfc26552:	6f4b      	li	a3,75
bfc26554:	6d01      	li	a1,1
        reset_dsp_falg = TRUE;
bfc26556:	b20f      	lw	v0,bfc26590 <task_timer10ms+0x84>
    }
    last_pc_tool_status = pc_tool_status;
bfc26558:	c200      	sb	s0,0(v0)
bfc2655a:	b20f      	lw	v0,bfc26594 <task_timer10ms+0x88>
    if(g_real_call_mode == ASQT_CALL_MODE)
bfc2655c:	a240      	lbu	v0,0(v0)
bfc2655e:	7201      	cmpi	v0,1
bfc26560:	6104      	btnez	bfc2656a <task_timer10ms+0x5e>
bfc26562:	b210      	lw	v0,bfc265a0 <task_timer10ms+0x94>
    {
        real_call_mode_deal(pc_tool_status, reset_dsp_falg);
bfc26564:	ea40      	jalr	v0
bfc26566:	6790      	move	a0,s0
bfc26568:	1003      	b	bfc26570 <task_timer10ms+0x64>
bfc2656a:	b20f      	lw	v0,bfc265a4 <task_timer10ms+0x98>
    }
    else
    {
        simu_call_mode_deal(pc_tool_status);
bfc2656c:	ea40      	jalr	v0
bfc2656e:	6790      	move	a0,s0
bfc26570:	6463      	restore	24,ra,s0
    }
}
bfc26572:	e8a0      	jrc	ra
bfc26574:	493c      	addiu	s1,60
bfc26576:	203e      	beqz	s0,bfc265f4 <stub_asqt_tools_status+0x4c>
bfc26578:	6572      	move	s3,v0
bfc2657a:	6573      	move	s3,v1
bfc2657c:	2074      	beqz	s0,bfc26666 <ring_dma_isr+0x26>
bfc2657e:	7364      	cmpi	v1,100
bfc26580:	0070      	addiu	s0,sp,448
bfc26582:	0000      	addiu	s0,sp,0
bfc26584:	65a9      	move	t5,s1
bfc26586:	bfc2      	lwu	a2,8(a3)
bfc26588:	968a      	lw	a2,552(sp)
bfc2658a:	9fc1      	lw	a2,4(a3)
bfc2658c:	6c09      	li	a0,9
bfc2658e:	6016      	bteqz	bfc265bc <stub_asqt_tools_status+0x14>
bfc26590:	968c      	lw	a2,560(sp)
bfc26592:	9fc1      	lw	a2,4(a3)
bfc26594:	9680      	lw	a2,512(sp)
bfc26596:	9fc1      	lw	a2,4(a3)
bfc26598:	6af9      	li	v0,249
bfc2659a:	6016      	bteqz	bfc265c8 <stub_asqt_tools_status+0x20>
bfc2659c:	6009      	bteqz	bfc265b0 <stub_asqt_tools_status+0x8>
bfc2659e:	bfc2      	lwu	a2,8(a3)
bfc265a0:	6df1      	li	a1,241
bfc265a2:	601a      	bteqz	bfc265d8 <stub_asqt_tools_status+0x30>
bfc265a4:	6ecd      	li	a2,205
bfc265a6:	601a      	bteqz	bfc265dc <stub_asqt_tools_status+0x34>

bfc265a8 <stub_asqt_tools_status>:
bfc265a8:	64f6      	save	48,ra,s0-s1



/******************************************************************************/
/*!
 * \par  Description:
 *   定时获取pc-tool的状态
 * \param[in]    none
 * \param[out]   none
 * \return       返回最后获取的pc-tool的状态
 * \  <author>       <time>        <opt>
 * \   Wekan       2015-4-1      creat
 *******************************************************************************/
PC_curStatus_e __section__(".rcode") stub_asqt_tools_status(void)
{
bfc265aa:	6c00      	li	a0,0

    static uint32 get_sta_timer_ab = 0;//获取两时间点，读pc-tool状态
    static PC_curStatus_e pc_tool_status = sNotReady;//pc-tool状态
    uint32 sys_time;
    PC_curStatus_e pc_status_new;
    uint32 pbuf[4];
    sys_time = sys_get_ab_timer();
bfc265ac:	67a4      	move	a1,a0
bfc265ae:	67c4      	move	a2,a0
bfc265b0:	b21a      	lw	v0,bfc26618 <stub_asqt_tools_status+0x70>
bfc265b2:	ea40      	jalr	v0
bfc265b4:	6f1c      	li	a3,28
bfc265b6:	6702      	move	s0,v0
bfc265b8:	b219      	lw	v0,bfc2661c <stub_asqt_tools_status+0x74>
    if(sys_time > (get_sta_timer_ab + 500))//500ms读一次
bfc265ba:	9a40      	lw	v0,0(v0)
bfc265bc:	f1e0 4a14 	addiu	v0,500
bfc265c0:	ea03      	sltu	v0,s0
bfc265c2:	6026      	bteqz	bfc26610 <stub_asqt_tools_status+0x68>
bfc265c4:	b217      	lw	v0,bfc26620 <stub_asqt_tools_status+0x78>
    {
        pc_status_new = (PC_curStatus_e)stub_asqt_get_status(pbuf);
bfc265c6:	ea40      	jalr	v0
bfc265c8:	0404      	addiu	a0,sp,16
bfc265ca:	6722      	move	s1,v0
bfc265cc:	e911      	zeb	s1
bfc265ce:	7104      	cmpi	s1,4
        if( (pc_status_new == sUserUpdate)||
bfc265d0:	6006      	bteqz	bfc265de <stub_asqt_tools_status+0x36>
bfc265d2:	7105      	cmpi	s1,5
bfc265d4:	6111      	btnez	bfc265f8 <stub_asqt_tools_status+0x50>
bfc265d6:	b214      	lw	v0,bfc26624 <stub_asqt_tools_status+0x7c>
bfc265d8:	a240      	lbu	v0,0(v0)
bfc265da:	ea2e      	xor	v0,s1
bfc265dc:	220d      	beqz	v0,bfc265f8 <stub_asqt_tools_status+0x50>
bfc265de:	b213      	lw	v0,bfc26628 <stub_asqt_tools_status+0x80>
            ((pc_status_new == sUserStart) && (pc_tool_status != pc_status_new))
           )
        {
            stub_asqt_get_parameter(g_pAsqtRam->rev_buf, &g_asqt_parm.AsqtCfg);
bfc265e0:	9a80      	lw	a0,0(v0)
bfc265e2:	f005 4c00 	addiu	a0,10240
bfc265e6:	b512      	lw	a1,bfc2662c <stub_asqt_tools_status+0x84>
bfc265e8:	b212      	lw	v0,bfc26630 <stub_asqt_tools_status+0x88>
bfc265ea:	eac0      	jalrc	v0
bfc265ec:	b213      	lw	v0,bfc26634 <stub_asqt_tools_status+0x8c>
            g_asqt_parm.asqt_volume = stub_asqt_get_volums(pbuf);
bfc265ee:	ea40      	jalr	v0
bfc265f0:	0404      	addiu	a0,sp,16
bfc265f2:	b311      	lw	v1,bfc26634 <stub_asqt_tools_status+0x8c>
bfc265f4:	f0e0 db50 	sw	v0,240(v1)
bfc265f8:	7106      	cmpi	s1,6
        }
        
        if(pc_status_new == sUserSetParam)
bfc265fa:	6106      	btnez	bfc26608 <stub_asqt_tools_status+0x60>
bfc265fc:	b20b      	lw	v0,bfc26628 <stub_asqt_tools_status+0x80>
        {
            stub_asqt_down_param(g_pAsqtRam->rev_buf);
bfc265fe:	9a80      	lw	a0,0(v0)
bfc26600:	f005 4c00 	addiu	a0,10240
bfc26604:	b20e      	lw	v0,bfc2663c <stub_asqt_tools_status+0x94>
bfc26606:	eac0      	jalrc	v0
bfc26608:	b207      	lw	v0,bfc26620 <stub_asqt_tools_status+0x78>
        }
        pc_tool_status = pc_status_new;
bfc2660a:	c220      	sb	s1,0(v0)
bfc2660c:	b204      	lw	v0,bfc2661c <stub_asqt_tools_status+0x74>
        get_sta_timer_ab = sys_time;
bfc2660e:	da00      	sw	s0,0(v0)
bfc26610:	b205      	lw	v0,bfc26624 <stub_asqt_tools_status+0x7c>
    }
    return pc_tool_status;
bfc26612:	a240      	lbu	v0,0(v0)
}
bfc26614:	6476      	restore	48,ra,s0-s1
bfc26616:	e8a0      	jrc	ra
bfc26618:	6009      	bteqz	bfc2662c <stub_asqt_tools_status+0x84>
bfc2661a:	bfc2      	lwu	a2,8(a3)
bfc2661c:	9690      	lw	a2,576(sp)
bfc2661e:	9fc1      	lw	a2,4(a3)
bfc26620:	69c9      	li	s1,201
bfc26622:	601a      	bteqz	bfc26658 <ring_dma_isr+0x18>
bfc26624:	9694      	lw	a2,592(sp)
bfc26626:	9fc1      	lw	a2,4(a3)
bfc26628:	9698      	lw	a2,608(sp)
bfc2662a:	9fc1      	lw	a2,4(a3)
bfc2662c:	9754      	lw	a3,336(sp)
bfc2662e:	9fc1      	lw	a2,4(a3)
bfc26630:	69e5      	li	s1,229
bfc26632:	601a      	bteqz	bfc26668 <ring_dma_isr+0x28>
bfc26634:	971c      	lw	a3,112(sp)
bfc26636:	9fc1      	lw	a2,4(a3)
bfc26638:	69ad      	li	s1,173
bfc2663a:	601a      	bteqz	bfc26670 <ring_dma_isr+0x30>
bfc2663c:	6b5d      	li	v1,93
bfc2663e:	6016      	bteqz	bfc2666c <ring_dma_isr+0x2c>

bfc26640 <ring_dma_isr>:
bfc26640:	b40b      	lw	a0,bfc2666c <ring_dma_isr+0x2c>

__section__ (".text.irq")int ring_dma_isr()
{
    uint8 tempdata = 0;
    if ((act_readl(DMAIP) & 0x00000008) != 0)//trans complete
bfc26642:	9c40      	lw	v0,0(a0)
bfc26644:	6b08      	li	v1,8
bfc26646:	ea6c      	and	v0,v1
bfc26648:	2205      	beqz	v0,bfc26654 <ring_dma_isr+0x14>
bfc2664a:	dc60      	sw	v1,0(a0)
    {
        //clear pending，注意不能使用读-或-写这种方式，避免清掉其他pending位
        act_writel(0x00000008, DMAIP);
bfc2664c:	6b01      	li	v1,1
        
        g_ff_flag = 1;
bfc2664e:	b209      	lw	v0,bfc26670 <ring_dma_isr+0x30>
bfc26650:	c260      	sb	v1,0(v0)
bfc26652:	100a      	b	bfc26668 <ring_dma_isr+0x28>
bfc26654:	b406      	lw	a0,bfc2666c <ring_dma_isr+0x2c>
    }
    else if ((act_readl(DMAIP) & 0x00000800) != 0)//half transed
bfc26656:	9c40      	lw	v0,0(a0)
bfc26658:	f001 6b00 	li	v1,2048
bfc2665c:	ea6c      	and	v0,v1
bfc2665e:	2204      	beqz	v0,bfc26668 <ring_dma_isr+0x28>
bfc26660:	dc60      	sw	v1,0(a0)
    {
        //clear pending，注意不能使用读-或-写这种方式，避免清掉其他pending位
        act_writel(0x00000800, DMAIP);
bfc26662:	6b01      	li	v1,1

        g_hf_flag = 1;
bfc26664:	b204      	lw	v0,bfc26674 <ring_dma_isr+0x34>
bfc26666:	c260      	sb	v1,0(v0)
bfc26668:	e820      	jr	ra
    }
    return tempdata;
}
bfc2666a:	6a00      	li	v0,0
bfc2666c:	0004      	addiu	s0,sp,16
bfc2666e:	c00c      	sb	s0,12(s0)
bfc26670:	9812      	lw	s0,72(s0)
bfc26672:	9fc1      	lw	a2,4(a3)
bfc26674:	9811      	lw	s0,68(s0)
bfc26676:	9fc1      	lw	a2,4(a3)
Disassembly of section BANK_CONTROL_1_0:

60026800 <process_start>:
60026800:	64d4      	save	32,ra,s1
60026802:	0104      	addiu	s1,sp,16
60026804:	d984      	sw	a0,16(s1)
60026806:	9944      	lw	v0,16(s1)
60026808:	6782      	move	a0,v0
6002680a:	6d00      	li	a1,0
6002680c:	b207      	lw	v0,60026828 <BANK_CONTROL_1_ADDR_BASE+0x28>
6002680e:	eac0      	jalrc	v0
60026810:	c140      	sb	v0,0(s1)
60026812:	8140      	lb	v0,0(s1)
60026814:	6782      	move	a0,v0
60026816:	6d00      	li	a1,0
60026818:	6e00      	li	a2,0
6002681a:	6f0e      	li	a3,14
6002681c:	b204      	lw	v0,6002682c <BANK_CONTROL_1_ADDR_BASE+0x2c>
6002681e:	eac0      	jalrc	v0
60026820:	6a00      	li	v0,0
60026822:	65b9      	move	sp,s1
60026824:	6452      	restore	16,ra,s1
60026826:	e8a0      	jrc	ra
60026828:	6c09      	li	a0,9
6002682a:	6006      	bteqz	60026838 <__start+0x8>
6002682c:	6005      	bteqz	60026838 <__start+0x8>
6002682e:	bfc2      	lwu	a2,8(a3)

60026830 <__start>:
60026830:	64d6      	save	48,ra,s1
60026832:	0104      	addiu	s1,sp,16
60026834:	d988      	sw	a0,32(s1)
60026836:	d9a9      	sw	a1,36(s1)
60026838:	6c00      	li	a0,0
6002683a:	6d00      	li	a1,0
6002683c:	6e00      	li	a2,0
6002683e:	6f10      	li	a3,16
60026840:	b220      	lw	v0,600268c0 <__start+0x90>
60026842:	eac0      	jalrc	v0
60026844:	c150      	sb	v0,16(s1)
60026846:	8170      	lb	v1,16(s1)
60026848:	6a01      	li	v0,1
6002684a:	ea4b      	neg	v0
6002684c:	ea6e      	xor	v0,v1
6002684e:	5a01      	sltiu	v0,1
60026850:	6004      	bteqz	6002685a <__start+0x2a>
60026852:	6a01      	li	v0,1
60026854:	ea4b      	neg	v0
60026856:	d945      	sw	v0,20(s1)
60026858:	102e      	b	600268b6 <__start+0x86>
6002685a:	b21b      	lw	v0,600268c4 <__start+0x94>
6002685c:	d940      	sw	v0,0(s1)
6002685e:	9948      	lw	v0,32(s1)
60026860:	d941      	sw	v0,4(s1)
60026862:	9949      	lw	v0,36(s1)
60026864:	9a41      	lw	v0,4(v0)
60026866:	d942      	sw	v0,8(s1)
60026868:	9949      	lw	v0,36(s1)
6002686a:	aa41      	lhu	v0,2(v0)
6002686c:	c946      	sh	v0,12(s1)
6002686e:	6c00      	li	a0,0
60026870:	6d00      	li	a1,0
60026872:	6e00      	li	a2,0
60026874:	6f33      	li	a3,51
60026876:	b215      	lw	v0,600268c8 <__start+0x98>
60026878:	eac0      	jalrc	v0
6002687a:	9949      	lw	v0,36(s1)
6002687c:	aa40      	lhu	v0,0(v0)
6002687e:	8170      	lb	v1,16(s1)
60026880:	6791      	move	a0,s1
60026882:	67a2      	move	a1,v0
60026884:	67c3      	move	a2,v1
60026886:	6f4a      	li	a3,74
60026888:	b210      	lw	v0,600268c8 <__start+0x98>
6002688a:	eac0      	jalrc	v0
6002688c:	5200      	slti	v0,0
6002688e:	6011      	bteqz	600268b2 <__start+0x82>
60026890:	8150      	lb	v0,16(s1)
60026892:	6782      	move	a0,v0
60026894:	6d00      	li	a1,0
60026896:	6e00      	li	a2,0
60026898:	6f11      	li	a3,17
6002689a:	b20a      	lw	v0,600268c0 <__start+0x90>
6002689c:	eac0      	jalrc	v0
6002689e:	6c00      	li	a0,0
600268a0:	6d00      	li	a1,0
600268a2:	6e00      	li	a2,0
600268a4:	6f34      	li	a3,52
600268a6:	b209      	lw	v0,600268c8 <__start+0x98>
600268a8:	eac0      	jalrc	v0
600268aa:	6a01      	li	v0,1
600268ac:	ea4b      	neg	v0
600268ae:	d945      	sw	v0,20(s1)
600268b0:	1002      	b	600268b6 <__start+0x86>
600268b2:	6a00      	li	v0,0
600268b4:	d945      	sw	v0,20(s1)
600268b6:	9945      	lw	v0,20(s1)
600268b8:	65b9      	move	sp,s1
600268ba:	6454      	restore	32,ra,s1
600268bc:	e8a0      	jrc	ra
600268be:	0000      	addiu	s0,sp,0
600268c0:	6005      	bteqz	600268cc <__start+0x9c>
600268c2:	bfc2      	lwu	a2,8(a3)
600268c4:	6801      	li	s0,1
600268c6:	6002      	bteqz	600268cc <__start+0x9c>
600268c8:	6009      	bteqz	600268dc <__start+0xac>
600268ca:	bfc2      	lwu	a2,8(a3)
Disassembly of section BANK_CONTROL_1_1:

60066800 <actaec_init_sv_prms>:
60066800:	64f4      	save	32,ra,s0-s1
 * \   Wekan       2015-3-30     reviwe
 *******************************************************************************/

void actaec_init_sv_prms(sv_prms_t *sv_prms)
{
60066802:	b23f      	lw	v0,600668fc <actaec_init_sv_prms+0xfc>
    int tmp_value;

    if(actaec_init_sv_prms_from_VM(sv_prms) == TRUE)
60066804:	ea40      	jalr	v0
60066806:	6724      	move	s1,a0
60066808:	7201      	cmpi	v0,1
6006680a:	6068      	bteqz	600668dc <actaec_init_sv_prms+0xdc>
6006680c:	6a10      	li	v0,16
    {
        return;
    }
    sv_prms->frame_size = 16; //帧长时间，单位ms，目前仅支持 16ms 帧长
6006680e:	d940      	sw	v0,0(s1)
60066810:	f723 4a10 	addiu	v0,7984
    sv_prms->sampling_rate = 8000; //采样率，单位Hz，目前仅支持 8000Hz 采样率
60066814:	f180 6c06 	li	a0,390

    // aec prms
    //aec模块开关，1：打开，0：关闭
    sv_prms->aec_prms.aec_enable = (uint8) com_get_config_default(BTCALL_AEC_MODULE_ENABLE);
60066818:	b03a      	lw	s0,60066900 <actaec_init_sv_prms+0x100>
6006681a:	e840      	jalr	s0
6006681c:	d941      	sw	v0,4(s1)
6006681e:	ea11      	zeb	v0
60066820:	f180 6c11 	li	a0,401
    //回声尾长，单位 ms，可支持32ms，64ms，96ms，128ms
    sv_prms->aec_prms.tail_length = (uint8) com_get_config_default(BTCALL_AEC_TAIL_LENGTH);
60066824:	e840      	jalr	s0
60066826:	d942      	sw	v0,8(s1)
60066828:	ea11      	zeb	v0
6006682a:	f180 6c07 	li	a0,391

    //非线性处理子模块开关，1：打开，0：关闭，为 1 时必须保证 aec_enable 为 1
    tmp_value = (int) (uint32) com_get_config_default(BTCALL_AEC_NLP_ENABLE);
6006682e:	e840      	jalr	s0
60066830:	d943      	sw	v0,12(s1)
60066832:	f180 6c08 	li	a0,392

    sv_prms->aec_prms.nlp_enable = tmp_value; //默认为1
    //非线性处理程度，整数0~15,越大代表非线性处理越厉害
    tmp_value = (int) (uint32) com_get_config_default(BTCALL_AEC_NLP_AGGRESSIVENESS);
60066836:	e840      	jalr	s0
60066838:	d944      	sw	v0,16(s1)
6006683a:	f180 6c09 	li	a0,393
    sv_prms->aec_prms.nlp_aggressiveness = tmp_value; //默认为10
    //双讲近端语音保留程度，整数0~15，越大表示双讲是近端语音保留越多，但是可能会带来单讲的回声，需找个折中值。
    tmp_value = (int) (uint32) com_get_config_default(BTCALL_AEC_DT_THRESHOLD);
6006683e:	e840      	jalr	s0
60066840:	d945      	sw	v0,20(s1)
60066842:	f180 6c0a 	li	a0,394
    sv_prms->aec_prms.dt_threshold = tmp_value;//默认为5
    //残留回声抑制子模块开关，1：打开，0：关闭，为 1 时必须保证 aec_enable 为1
    tmp_value = (int) (uint32) com_get_config_default(BTCALL_AEC_AES_ENABLE);
60066846:	e840      	jalr	s0
60066848:	d946      	sw	v0,24(s1)
6006684a:	f180 6c0b 	li	a0,395
    sv_prms->aec_prms.aes_enable = tmp_value;//默认为1
    //回声抑制子模块单讲回声抑制比，单位dB， 0~40
    tmp_value = (int) (uint32) com_get_config_default(BTCALL_AEC_ECHO_SUPPRESS);
6006684e:	e840      	jalr	s0
60066850:	d947      	sw	v0,28(s1)
60066852:	f180 6c0c 	li	a0,396
    sv_prms->aec_prms.echo_suppress = tmp_value;//默认为40
    //回声抑制子模块双讲回声抑制比，单位dB， 0~40
    tmp_value = (int) (uint32) com_get_config_default(BTCALL_AEC_ECHO_SUPPRESS_ACTIVE);
60066856:	e840      	jalr	s0
60066858:	d948      	sw	v0,32(s1)
6006685a:	f180 6c0d 	li	a0,397
    sv_prms->aec_prms.echo_suppress_avtive = tmp_value;//默认为40

    //ns prms
    //降噪开关，1：打开，0：关闭
    tmp_value = (int) (uint32) com_get_config_default(BTCALL_AEC_ANS_ENABLE);
6006685e:	e840      	jalr	s0
60066860:	d949      	sw	v0,36(s1)
60066862:	f180 6c0e 	li	a0,398
    sv_prms->ns_prms.ans_enable = tmp_value;//默认为1
    //噪声抑制比，单位dB， 0~25
    tmp_value = (int) (uint32) com_get_config_default(BTCALL_AEC_NOISE_SUPPRESS);
60066866:	e840      	jalr	s0
60066868:	d94a      	sw	v0,40(s1)
6006686a:	f180 6c0f 	li	a0,399
    sv_prms->ns_prms.noise_suppress = tmp_value;//默认为25

    //cng prms
    //舒适噪声开关，1：打开，0：关闭
    sv_prms->cng_prms.cng_enable = (uint8) com_get_config_default(BTCALL_AEC_CNG_ENABLE);
6006686e:	e840      	jalr	s0
60066870:	d94b      	sw	v0,44(s1)
60066872:	ea11      	zeb	v0
60066874:	f180 6c10 	li	a0,400
    //舒适噪声水平，单位 dB Fs, 一般应小于-45 dB；
    tmp_value = (int) (uint32) com_get_config_default(BTCALL_AEC_NOISE_FLOOR);
60066878:	e840      	jalr	s0
6006687a:	d94c      	sw	v0,48(s1)
6006687c:	424b      	addiu	v0,v0,-5
    sv_prms->cng_prms.noise_floor = tmp_value - 5;//实际水平比该值大5db左右，所以这里-5；对应默认值为-45
6006687e:	d94d      	sw	v0,52(s1)
60066880:	6cff      	li	a0,255
    sv_prms->speaker_channel = (uint8) com_get_config_default(BTCALL_SPEAKER_CHANNEL_ENABLE);
60066882:	e840      	jalr	s0
60066884:	4c77      	addiu	a0,119
60066886:	ea11      	zeb	v0
60066888:	d957      	sw	v0,92(s1)
6006688a:	6cff      	li	a0,255
    sv_prms->speaker_channel_weak_sel = (uint8) com_get_config_default(BTCALL_SPEAKER_CHANNEL_WEAK_SEL);
6006688c:	e840      	jalr	s0
6006688e:	4c78      	addiu	a0,120
60066890:	ea11      	zeb	v0
60066892:	d958      	sw	v0,96(s1)
60066894:	6cff      	li	a0,255
    sv_prms->speaker_channel_weak_val = (uint8) com_get_config_default(BTCALL_SPEAKER_CHANNEL_WEAK_VAL);
60066896:	e840      	jalr	s0
60066898:	4c79      	addiu	a0,121
6006689a:	ea11      	zeb	v0
6006689c:	f180 6c12 	li	a0,402
    sv_prms->hfp_mode = (uint8) com_get_config_default(BTCALL_AEC_HALF_FULL_MODE);//读取通话单双配置
600668a0:	e840      	jalr	s0
600668a2:	d959      	sw	v0,100(s1)
600668a4:	ea11      	zeb	v0
600668a6:	f180 6c14 	li	a0,404
    sv_prms->pre_agc_level = (uint8) com_get_config_default(BTCALL_AGC_PRETREAT_LEVEL);
600668aa:	e840      	jalr	s0
600668ac:	d95a      	sw	v0,104(s1)
600668ae:	ea11      	zeb	v0
600668b0:	f180 6c16 	li	a0,406
    sv_prms->pos_agc_level = (uint8) com_get_config_default(BTCALL_AGC_POSTREAT_LEVEL);
600668b4:	e840      	jalr	s0
600668b6:	d95b      	sw	v0,108(s1)
600668b8:	ea11      	zeb	v0
600668ba:	d95c      	sw	v0,112(s1)
600668bc:	b212      	lw	v0,60066904 <actaec_init_sv_prms+0x104>
	
	if((g_p_btcall_info != NULL) && (g_p_btcall_info->status == BTCALL_SIRI))
600668be:	9a40      	lw	v0,0(v0)
600668c0:	220d      	beqz	v0,600668dc <actaec_init_sv_prms+0xdc>
600668c2:	a240      	lbu	v0,0(v0)
600668c4:	7206      	cmpi	v0,6
600668c6:	610a      	btnez	600668dc <actaec_init_sv_prms+0xdc>
600668c8:	0c06      	la	a0,600668e0 <actaec_init_sv_prms+0xe0>
	{
		PRINT_INFO("SIRI aec param setting");
600668ca:	6d00      	li	a1,0
600668cc:	67c5      	move	a2,a1
600668ce:	b20f      	lw	v0,60066908 <actaec_init_sv_prms+0x108>
600668d0:	ea40      	jalr	v0
600668d2:	6f4b      	li	a3,75
600668d4:	6a00      	li	v0,0
		sv_prms->aec_prms.aec_enable = 0;
600668d6:	d942      	sw	v0,8(s1)
600668d8:	d944      	sw	v0,16(s1)
		sv_prms->aec_prms.nlp_enable = 0;
600668da:	d947      	sw	v0,28(s1)
		sv_prms->aec_prms.aes_enable = 0;
600668dc:	6474      	restore	32,ra,s0-s1
	}
}
600668de:	e8a0      	jrc	ra
600668e0:	493c      	addiu	s1,60
600668e2:	203e      	beqz	s0,60066960 <actaec_init_sv_prms_from_VM+0x54>
600668e4:	4953      	addiu	s1,83
600668e6:	4952      	addiu	s1,82
600668e8:	6120      	btnez	6006692a <actaec_init_sv_prms_from_VM+0x1e>
600668ea:	6365      	addiu	sp,808
600668ec:	7020      	cmpi	s0,32
600668ee:	7261      	cmpi	v0,97
600668f0:	6d61      	li	a1,97
600668f2:	7320      	cmpi	v1,32
600668f4:	7465      	cmpi	a0,101
600668f6:	6974      	li	s1,116
600668f8:	676e      	move	v1,t6
600668fa:	0000      	addiu	s0,sp,0
600668fc:	690d      	li	s1,13
600668fe:	6006      	bteqz	6006690c <actaec_init_sv_prms_from_VM>
60066900:	68bd      	li	s0,189
60066902:	60a6      	bteqz	60066850 <actaec_init_sv_prms+0x50>
60066904:	967c      	lw	a2,496(sp)
60066906:	9fc1      	lw	a2,4(a3)
60066908:	6009      	bteqz	6006691c <actaec_init_sv_prms_from_VM+0x10>
6006690a:	bfc2      	lwu	a2,8(a3)

6006690c <actaec_init_sv_prms_from_VM>:
6006690c:	64f6      	save	48,ra,s0-s1


/******************************************************************************
 * \par  Description:   读取应用VM中的aec参数，通过ASQT写入
 * \param[in]     null0
 * \param[out]   dsp_cfg 读取的参数存放的指针
 * \return          TRUE读取成功
 * \                   FALSE 没有保存参数
 * \note
 * \  <author>       <time>        <opt>
 * \   Wekan       2015-7-13     creat
 *******************************************************************************/
bool actaec_init_sv_prms_from_VM(sv_prms_t *dsp_aec)
{
6006690e:	6724      	move	s1,a0
60066910:	0404      	addiu	a0,sp,16
    uint8 pbuf[16];
    uint32 i,sum;
    uint8 *p8;
    VM_SAVE_t *parm_head = (VM_SAVE_t *)pbuf;
    sys_vm_read(parm_head, VM_ASQT_PARM_BASE, 8);
60066912:	b52d      	lw	a1,600669c4 <actaec_init_sv_prms_from_VM+0xb8>
60066914:	6e08      	li	a2,8
60066916:	b02d      	lw	s0,600669c8 <actaec_init_sv_prms_from_VM+0xbc>
60066918:	e840      	jalr	s0
6006691a:	6f12      	li	a3,18
6006691c:	677d      	move	v1,sp
    if(parm_head->magic == 0xAA55)
6006691e:	ab48      	lhu	v0,16(v1)
60066920:	f255 7215 	cmpi	v0,43605
60066924:	6125      	btnez	60066970 <actaec_init_sv_prms_from_VM+0x64>
60066926:	6791      	move	a0,s1
    {
        sys_vm_read(dsp_aec, VM_ASQT_PARM_BASE + 8, sizeof(sv_prms_t));
60066928:	b529      	lw	a1,600669cc <actaec_init_sv_prms_from_VM+0xc0>
6006692a:	6e7c      	li	a2,124
6006692c:	e840      	jalr	s0
6006692e:	6f12      	li	a3,18
60066930:	6791      	move	a0,s1
        p8 = (uint8*)dsp_aec;
60066932:	6900      	li	s1,0
        for(i = 0, sum = 0; i < sizeof(sv_prms_t); i++)
60066934:	6771      	move	v1,s1
60066936:	e469      	addu	v0,a0,v1
        {
            sum += p8[i];
60066938:	a240      	lbu	v0,0(v0)
6006693a:	e145      	addu	s1,v0
6006693c:	4361      	addiu	v1,v1,1
6006693e:	5b7c      	sltiu	v1,124
60066940:	61fa      	btnez	60066936 <actaec_init_sv_prms_from_VM+0x2a>
60066942:	9205      	lw	v0,20(sp)
        }
        if(sum == parm_head->cs)
60066944:	ea2e      	xor	v0,s1
60066946:	2a09      	bnez	v0,6006695a <actaec_init_sv_prms_from_VM+0x4e>
60066948:	0c0c      	la	a0,60066978 <actaec_init_sv_prms_from_VM+0x6c>
        {
            PRINT_INFO_INT("get AEC VM parms.", parm_head->times);
6006694a:	675d      	move	v0,sp
6006694c:	aaa9      	lhu	a1,18(v0)
6006694e:	6e02      	li	a2,2
60066950:	b21e      	lw	v0,600669c8 <actaec_init_sv_prms_from_VM+0xbc>
60066952:	ea40      	jalr	v0
60066954:	6f4b      	li	a3,75
60066956:	6a01      	li	v0,1
            return TRUE;
60066958:	100c      	b	60066972 <actaec_init_sv_prms_from_VM+0x66>
6006695a:	0c0e      	la	a0,60066990 <actaec_init_sv_prms_from_VM+0x84>
        }
        PRINT_INFO_INT("AEC VM params cs err.", parm_head->cs);
6006695c:	9505      	lw	a1,20(sp)
6006695e:	6e02      	li	a2,2
60066960:	b01a      	lw	s0,600669c8 <actaec_init_sv_prms_from_VM+0xbc>
60066962:	e840      	jalr	s0
60066964:	6f4b      	li	a3,75
60066966:	0c12      	la	a0,600669ac <actaec_init_sv_prms_from_VM+0xa0>
        PRINT_INFO_INT("AEC VM params cs=", sum);
60066968:	67b1      	move	a1,s1
6006696a:	6e02      	li	a2,2
6006696c:	e840      	jalr	s0
6006696e:	6f4b      	li	a3,75
60066970:	6a00      	li	v0,0
    }
    return FALSE;
60066972:	6476      	restore	48,ra,s0-s1
}
60066974:	e8a0      	jrc	ra
60066976:	0000      	addiu	s0,sp,0
60066978:	493c      	addiu	s1,60
6006697a:	203e      	beqz	s0,600669f8 <_read_var+0x28>
6006697c:	6567      	move	v1,a3
6006697e:	2074      	beqz	s0,60066a68 <_read_var+0x98>
60066980:	4541      	addiu	v0,a1,1
60066982:	2043      	beqz	s0,60066a0a <_read_var+0x3a>
60066984:	4d56      	addiu	a1,86
60066986:	7020      	cmpi	s0,32
60066988:	7261      	cmpi	v0,97
6006698a:	736d      	cmpi	v1,109
6006698c:	002e      	addiu	s0,sp,184
6006698e:	0000      	addiu	s0,sp,0
60066990:	493c      	addiu	s1,60
60066992:	203e      	beqz	s0,60066a10 <_read_var+0x40>
60066994:	4541      	addiu	v0,a1,1
60066996:	2043      	beqz	s0,60066a1e <_read_var+0x4e>
60066998:	4d56      	addiu	a1,86
6006699a:	7020      	cmpi	s0,32
6006699c:	7261      	cmpi	v0,97
6006699e:	6d61      	li	a1,97
600669a0:	2073      	beqz	s0,60066a88 <_read_var+0xb8>
600669a2:	7363      	cmpi	v1,99
600669a4:	6520      	move	at,s0
600669a6:	7272      	cmpi	v0,114
600669a8:	002e      	addiu	s0,sp,184
600669aa:	0000      	addiu	s0,sp,0
600669ac:	493c      	addiu	s1,60
600669ae:	203e      	beqz	s0,60066a2c <_read_var+0x5c>
600669b0:	4541      	addiu	v0,a1,1
600669b2:	2043      	beqz	s0,60066a3a <_read_var+0x6a>
600669b4:	4d56      	addiu	a1,86
600669b6:	7020      	cmpi	s0,32
600669b8:	7261      	cmpi	v0,97
600669ba:	6d61      	li	a1,97
600669bc:	2073      	beqz	s0,60066aa4 <_read_var+0xd4>
600669be:	7363      	cmpi	v1,99
600669c0:	003d      	addiu	s0,sp,244
600669c2:	0000      	addiu	s0,sp,0
600669c4:	0000      	addiu	s0,sp,0
600669c6:	000f      	addiu	s0,sp,60
600669c8:	6009      	bteqz	600669dc <_read_var+0xc>
600669ca:	bfc2      	lwu	a2,8(a3)
600669cc:	0008      	addiu	s0,sp,32
600669ce:	000f      	addiu	s0,sp,60

600669d0 <_read_var>:
600669d0:	64f4      	save	32,ra,s0-s1



/******************************************************************************
 * \par  Description:   读取应用VM全局变量,初始化全局变量
 * \param[in]     null0
 * \param[out]   sv_prms 读取的参数存放的指针
 * \return           none
 * \note
 * \  <author>       <time>        <opt>
 * \  Cailizhen          2015-1          creat
 * \   Wekan       2015-3-30     reviwe
 *******************************************************************************/

static void _read_var(void)
{
600669d2:	b15d      	lw	s1,60066b44 <_read_var+0x174>
    btcall_gl_var.ignore_uncall_sco = (uint8) com_get_config_default(BTCALL_IGNORE_UNCALLSCO);
600669d4:	6cff      	li	a0,255
600669d6:	b05d      	lw	s0,60066b48 <_read_var+0x178>
600669d8:	e840      	jalr	s0
600669da:	4c7a      	addiu	a0,122
600669dc:	c14d      	sb	v0,13(s1)
600669de:	6cff      	li	a0,255

    btcall_gl_var.callin_ring_mode = (uint8) com_get_config_default(BTCALL_CALLIN_RING_MODE);
600669e0:	e840      	jalr	s0
600669e2:	4c7b      	addiu	a0,123
600669e4:	c146      	sb	v0,6(s1)
600669e6:	6cff      	li	a0,255
    btcall_gl_var.callin_ring_space_time = (uint8) com_get_config_default(BTCALL_CALLIN_RING_BUILDIN_SPACE_TIME);
600669e8:	e840      	jalr	s0
600669ea:	4c7d      	addiu	a0,125
600669ec:	c147      	sb	v0,7(s1)
600669ee:	a147      	lbu	v0,7(s1)
    if (btcall_gl_var.callin_ring_space_time == 0)
600669f0:	2a02      	bnez	v0,600669f6 <_read_var+0x26>
600669f2:	6a01      	li	v0,1
    {
        btcall_gl_var.callin_ring_space_time = 1; //至少100ms
600669f4:	c147      	sb	v0,7(s1)
600669f6:	6a01      	li	v0,1
    }

    //全局变量非0无效值初始化
    g_callring_data.callring_timer_id = -1;
600669f8:	ea4b      	neg	v0
600669fa:	b355      	lw	v1,60066b4c <_read_var+0x17c>
600669fc:	c34f      	sb	v0,15(v1)
600669fe:	6c01      	li	a0,1

    g_p_bt_stack_cur_info = (bt_stack_info_t *) sys_shm_mount(SHARE_MEM_ID_BTSTACK_STATUS);
60066a00:	6d00      	li	a1,0
60066a02:	67c5      	move	a2,a1
60066a04:	b054      	lw	s0,60066b54 <_read_var+0x184>
60066a06:	e840      	jalr	s0
60066a08:	6f49      	li	a3,73
60066a0a:	67c2      	move	a2,v0
60066a0c:	b251      	lw	v0,60066b50 <_read_var+0x180>
60066a0e:	dac0      	sw	a2,0(v0)
60066a10:	2e05      	bnez	a2,60066a1c <_read_var+0x4c>
    if (g_p_bt_stack_cur_info == NULL)
60066a12:	0c32      	la	a0,60066ad8 <_read_var+0x108>
    {
        PRINT_ERR("btstack status shm not exist!\n");
60066a14:	67a6      	move	a1,a2
60066a16:	e840      	jalr	s0
60066a18:	6f4b      	li	a3,75
60066a1a:	17ff      	b	60066a1a <_read_var+0x4a>
        while (1)
60066a1c:	b350      	lw	v1,60066b5c <_read_var+0x18c>
        {
            ;//nothing
        }
    }

    g_p_btcall_info = &g_btcall_info[0];
60066a1e:	b24f      	lw	v0,60066b58 <_read_var+0x188>
60066a20:	da60      	sw	v1,0(v0)
60066a22:	b24c      	lw	v0,60066b50 <_read_var+0x180>

    switch (g_p_bt_stack_cur_info->rmt_dev[g_p_bt_stack_cur_info->hfp_active_id].hfp_status)
60066a24:	9a80      	lw	a0,0(v0)
60066a26:	f020 a469 	lbu	v1,41(a0)
60066a2a:	326c      	sll	v0,v1,3
60066a2c:	e269      	addu	v0,v1
60066a2e:	3244      	sll	v0,1
60066a30:	e289      	addu	v0,a0
60066a32:	a273      	lbu	v1,19(v0)
60066a34:	5b07      	sltiu	v1,7
60066a36:	602b      	bteqz	60066a8e <_read_var+0xbe>
60066a38:	0a03      	la	v0,60066a44 <_read_var+0x74>
60066a3a:	3364      	sll	v1,1
60066a3c:	e34d      	addu	v1,v0
60066a3e:	8b60      	lh	v1,0(v1)
60066a40:	e34d      	addu	v1,v0
60066a42:	eb80      	jrc	v1
60066a44:	004b      	addiu	s0,sp,300
60066a46:	000f      	addiu	s0,sp,60
60066a48:	0019      	addiu	s0,sp,100
60066a4a:	0023      	addiu	s0,sp,140
60066a4c:	002d      	addiu	s0,sp,180
60066a4e:	0037      	addiu	s0,sp,220
60066a50:	0041      	addiu	s0,sp,260
60066a52:	b242      	lw	v0,60066b58 <_read_var+0x188>
    {
        case HFP_STATUS_LINKED:
        g_p_btcall_info->status = BTCALL_STOP;
60066a54:	9a60      	lw	v1,0(v0)
60066a56:	6a01      	li	v0,1
60066a58:	c340      	sb	v0,0(v1)
60066a5a:	101d      	b	60066a96 <_read_var+0xc6>
        break;
60066a5c:	b23f      	lw	v0,60066b58 <_read_var+0x188>

        case HFP_STATUS_INCOMING:
        g_p_btcall_info->status = BTCALL_CALLIN;
60066a5e:	9a60      	lw	v1,0(v0)
60066a60:	6a02      	li	v0,2
60066a62:	c340      	sb	v0,0(v1)
60066a64:	1018      	b	60066a96 <_read_var+0xc6>
        break;
60066a66:	b23d      	lw	v0,60066b58 <_read_var+0x188>

        case HFP_STATUS_OUTGOING:
        g_p_btcall_info->status = BTCALL_CALLOUT;
60066a68:	9a60      	lw	v1,0(v0)
60066a6a:	6a03      	li	v0,3
60066a6c:	c340      	sb	v0,0(v1)
60066a6e:	1013      	b	60066a96 <_read_var+0xc6>
        break;
60066a70:	b23a      	lw	v0,60066b58 <_read_var+0x188>

        case HFP_STATUS_CALLING:
        g_p_btcall_info->status = BTCALL_HFP;
60066a72:	9a60      	lw	v1,0(v0)
60066a74:	6a04      	li	v0,4
60066a76:	c340      	sb	v0,0(v1)
60066a78:	100e      	b	60066a96 <_read_var+0xc6>
        break;
60066a7a:	b238      	lw	v0,60066b58 <_read_var+0x188>

        case HFP_STATUS_PHONE:
        g_p_btcall_info->status = BTCALL_PHONE;
60066a7c:	9a60      	lw	v1,0(v0)
60066a7e:	6a05      	li	v0,5
60066a80:	c340      	sb	v0,0(v1)
60066a82:	1009      	b	60066a96 <_read_var+0xc6>
        break;
60066a84:	b235      	lw	v0,60066b58 <_read_var+0x188>

		case HFP_STATUS_SIRI:
        g_p_btcall_info->status = BTCALL_SIRI;
60066a86:	9a60      	lw	v1,0(v0)
60066a88:	6a06      	li	v0,6
60066a8a:	c340      	sb	v0,0(v1)
60066a8c:	1004      	b	60066a96 <_read_var+0xc6>
        break;
60066a8e:	b233      	lw	v0,60066b58 <_read_var+0x188>
		
        case HFP_STATUS_NONE:
        default:
        g_p_btcall_info->status = BTCALL_IDLE;
60066a90:	9a60      	lw	v1,0(v0)
60066a92:	6a00      	li	v0,0
60066a94:	c340      	sb	v0,0(v1)
60066a96:	b031      	lw	s0,60066b58 <_read_var+0x188>
        break;
    }

    //创建共享查询，这时必须保证前台来获取状态时是可用的
    g_p_btcall_info = sys_share_query_creat(APP_ID_BTCALLEG, g_p_btcall_info, sizeof(btcall_info_t));
60066a98:	6c11      	li	a0,17
60066a9a:	98a0      	lw	a1,0(s0)
60066a9c:	6e04      	li	a2,4
60066a9e:	b12e      	lw	s1,60066b54 <_read_var+0x184>
60066aa0:	e940      	jalr	s1
60066aa2:	6f43      	li	a3,67
60066aa4:	d840      	sw	v0,0(s0)
60066aa6:	2a06      	bnez	v0,60066ab4 <_read_var+0xe4>
    if (g_p_btcall_info == NULL)
60066aa8:	0c15      	la	a0,60066afc <_read_var+0x12c>
    {
        PRINT_ERR("btcall share query create fail!\n");
60066aaa:	67a2      	move	a1,v0
60066aac:	67c2      	move	a2,v0
60066aae:	e940      	jalr	s1
60066ab0:	6f4b      	li	a3,75
60066ab2:	17ff      	b	60066ab2 <_read_var+0xe2>
        while (1)
60066ab4:	b52c      	lw	a1,60066b64 <_read_var+0x194>
        {
            ;//nothing
        }
    }

    //创建共享内存
    g_agc_aec_shm_ptr = (uint32)&g_dsp_m4k_share_mem;
60066ab6:	b22b      	lw	v0,60066b60 <_read_var+0x190>
60066ab8:	daa0      	sw	a1,0(v0)
60066aba:	6c05      	li	a0,5

    if (sys_shm_creat(SHARE_MEM_ID_AGC_AEC, g_agc_aec_shm_ptr, sizeof(sv_prms_t)) == -1)
60066abc:	6e7c      	li	a2,124
60066abe:	b026      	lw	s0,60066b54 <_read_var+0x184>
60066ac0:	e840      	jalr	s0
60066ac2:	6f47      	li	a3,71
60066ac4:	ea4f      	not	v0
60066ac6:	2a06      	bnez	v0,60066ad4 <_read_var+0x104>
60066ac8:	0c17      	la	a0,60066b24 <_read_var+0x154>
    {
        PRINT_ERR("agc aec shm create fail!!");
60066aca:	6d00      	li	a1,0
60066acc:	67c5      	move	a2,a1
60066ace:	e840      	jalr	s0
60066ad0:	6f4b      	li	a3,75
60066ad2:	17ff      	b	60066ad2 <_read_var+0x102>
        while (1)
60066ad4:	6474      	restore	32,ra,s0-s1
        {
            ; //nothing for QAC
        }
    }
}
60066ad6:	e8a0      	jrc	ra
60066ad8:	453c      	daddiu	s1,a1,-4
60066ada:	203e      	beqz	s0,60066b58 <_read_var+0x188>
60066adc:	7462      	cmpi	a0,98
60066ade:	7473      	cmpi	a0,115
60066ae0:	6361      	addiu	sp,776
60066ae2:	206b      	beqz	s0,60066bba <_app_init+0xe>
60066ae4:	7473      	cmpi	a0,115
60066ae6:	7461      	cmpi	a0,97
60066ae8:	7375      	cmpi	v1,117
60066aea:	7320      	cmpi	v1,32
60066aec:	6d68      	li	a1,104
60066aee:	6e20      	li	a2,32
60066af0:	746f      	cmpi	a0,111
60066af2:	6520      	move	at,s0
60066af4:	6978      	li	s1,120
60066af6:	7473      	cmpi	a0,115
60066af8:	0a21      	la	v0,60066b7c <_save_var+0x14>
60066afa:	0000      	addiu	s0,sp,0
60066afc:	453c      	daddiu	s1,a1,-4
60066afe:	203e      	beqz	s0,60066b7c <_save_var+0x14>
60066b00:	7462      	cmpi	a0,98
60066b02:	6163      	btnez	60066bca <.LBB2+0x4>
60066b04:	6c6c      	li	a0,108
60066b06:	7320      	cmpi	v1,32
60066b08:	6168      	btnez	60066bda <.LBE2+0xe>
60066b0a:	6572      	move	s3,v0
60066b0c:	7120      	cmpi	s1,32
60066b0e:	6575      	move	s3,a1
60066b10:	7972      	sd	v1,144(s1)
60066b12:	6320      	addiu	sp,256
60066b14:	6572      	move	s3,v0
60066b16:	7461      	cmpi	a0,97
60066b18:	2065      	beqz	s0,60066be4 <.LBE2+0x18>
60066b1a:	6166      	btnez	60066be8 <_app_exit>
60066b1c:	6c69      	li	a0,105
60066b1e:	0a21      	la	v0,60066ba0 <_save_var+0x38>
60066b20:	0000      	addiu	s0,sp,0
60066b22:	0000      	addiu	s0,sp,0
60066b24:	453c      	daddiu	s1,a1,-4
60066b26:	203e      	beqz	s0,60066ba4 <_save_var+0x3c>
60066b28:	6761      	move	v1,at
60066b2a:	2063      	beqz	s0,60066bf2 <.LBB4+0x4>
60066b2c:	6561      	move	v1,s1
60066b2e:	2063      	beqz	s0,60066bf6 <.LBE4+0x2>
60066b30:	6873      	li	s0,115
60066b32:	206d      	beqz	s0,60066c0e <main+0x6>
60066b34:	7263      	cmpi	v0,99
60066b36:	6165      	btnez	60066c02 <.LBE4+0xe>
60066b38:	6574      	move	s3,a0
60066b3a:	6620      	0x6620
60066b3c:	6961      	li	s1,97
60066b3e:	216c      	beqz	s1,60066c18 <main+0x10>
60066b40:	0021      	addiu	s0,sp,132
60066b42:	0000      	addiu	s0,sp,0
60066b44:	964c      	lw	a2,304(sp)
60066b46:	9fc1      	lw	a2,4(a3)
60066b48:	68bd      	li	s0,189
60066b4a:	60a6      	bteqz	60066a98 <_read_var+0xc8>
60066b4c:	9660      	lw	a2,384(sp)
60066b4e:	9fc1      	lw	a2,4(a3)
60066b50:	9670      	lw	a2,448(sp)
60066b52:	9fc1      	lw	a2,4(a3)
60066b54:	6009      	bteqz	60066b68 <_save_var>
60066b56:	bfc2      	lwu	a2,8(a3)
60066b58:	967c      	lw	a2,496(sp)
60066b5a:	9fc1      	lw	a2,4(a3)
60066b5c:	9674      	lw	a2,464(sp)
60066b5e:	9fc1      	lw	a2,4(a3)
60066b60:	95a4      	lw	a1,656(sp)
60066b62:	9fc1      	lw	a2,4(a3)
60066b64:	95cc      	lw	a1,816(sp)
60066b66:	9fc1      	lw	a2,4(a3)

60066b68 <_save_var>:
60066b68:	64e3      	save	24,ra,s0

/******************************************************************************
 * \par  Description:   保存VRAM变量，目前只是接口，未有功能
 * \param[in]      null
 * \param[out]   null
 * \return           null
 * \note
 * \  <author>       <time>        <opt>
 * \  Cailizhen          2015-1          creat
 * \   Wekan       2015-3-30     reviwe
 *******************************************************************************/

static void _save_var(void)
{
60066b6a:	6c05      	li	a0,5
    //;//nothing
    //销毁共享内存
    //g_agc_aec_shm_ptr = (uint32)&g_dsp_m4k_share_mem;

    if (sys_shm_destroy(SHARE_MEM_ID_AGC_AEC) == -1)
60066b6c:	6d00      	li	a1,0
60066b6e:	67c5      	move	a2,a1
60066b70:	b00e      	lw	s0,60066ba8 <_save_var+0x40>
60066b72:	e840      	jalr	s0
60066b74:	6f48      	li	a3,72
60066b76:	ea4f      	not	v0
60066b78:	2a05      	bnez	v0,60066b84 <_save_var+0x1c>
60066b7a:	0c04      	la	a0,60066b88 <_save_var+0x20>
    {
        PRINT_ERR("agc aec shm destroy fail!!");
60066b7c:	6d00      	li	a1,0
60066b7e:	67c5      	move	a2,a1
60066b80:	e840      	jalr	s0
60066b82:	6f4b      	li	a3,75
60066b84:	6463      	restore	24,ra,s0
    }
}
60066b86:	e8a0      	jrc	ra
60066b88:	453c      	daddiu	s1,a1,-4
60066b8a:	203e      	beqz	s0,60066c08 <main>
60066b8c:	6761      	move	v1,at
60066b8e:	2063      	beqz	s0,60066c56 <main+0x4e>
60066b90:	6561      	move	v1,s1
60066b92:	2063      	beqz	s0,60066c5a <main+0x52>
60066b94:	6873      	li	s0,115
60066b96:	206d      	beqz	s0,60066c72 <main+0x6a>
60066b98:	6564      	move	v1,a0
60066b9a:	7473      	cmpi	a0,115
60066b9c:	6f72      	li	a3,114
60066b9e:	2079      	beqz	s0,60066c92 <main+0x8a>
60066ba0:	6166      	btnez	60066c6e <main+0x66>
60066ba2:	6c69      	li	a0,105
60066ba4:	2121      	beqz	s1,60066be8 <_app_exit>
60066ba6:	0000      	addiu	s0,sp,0
60066ba8:	6009      	bteqz	60066bbc <_app_init+0x10>
60066baa:	bfc2      	lwu	a2,8(a3)

60066bac <_app_init>:
60066bac:	64c3      	save	24,ra

/******************************************************************************
 * \par  Description:   app应用初始化， 包括读取初始化参数，
 *\                             app库，定时器，消息
 * \param[in]      null
 * \param[out]   null
 * \return           null
 * \note
 * \  <author>       <time>        <opt>
 * \  Cailizhen          2015-1          creat
 * \   Wekan       2015-3-30     reviwe
 *******************************************************************************/
static void _app_init(void)
{
60066bae:	b209      	lw	v0,60066bd0 <.LBE2+0x4>
    /*读入VM变量*/
    _read_var();
60066bb0:	eac0      	jalrc	v0
60066bb2:	6c11      	li	a0,17

    //初始化applib库，后台AP
    applib_init(APP_ID_BTCALLEG, APP_TYPE_CONSOLE);
60066bb4:	b208      	lw	v0,60066bd4 <.LBE2+0x8>
60066bb6:	ea40      	jalr	v0
60066bb8:	6d02      	li	a1,2
60066bba:	b408      	lw	a0,60066bd8 <.LBE2+0xc>

    /*初始化软定时器*/
    init_app_timers(btcall_timer_vector, APP_TIMER_COUNT);
60066bbc:	b208      	lw	v0,60066bdc <.LBE2+0x10>
60066bbe:	ea40      	jalr	v0
60066bc0:	6d02      	li	a1,2
60066bc2:	b208      	lw	v0,60066be0 <.LBE2+0x14>

    /*初始化 applib 消息模块*/
    applib_message_init();
60066bc4:	eac0      	jalrc	v0

60066bc6 <.LBB2>:
60066bc6:	6b02      	li	v1,2
}

///修改后台引擎状态
static inline void change_engine_state(engine_state_e engine_state)
{
60066bc8:	b207      	lw	v0,60066be4 <.LBE2+0x18>
    g_app_info_state_all.engine_state = engine_state;
60066bca:	c261      	sb	v1,1(v0)

60066bcc <.LBE2>:
60066bcc:	6443      	restore	24,ra

    change_engine_state(ENGINE_STATE_PAUSE);
}
60066bce:	e8a0      	jrc	ra
60066bd0:	69d1      	li	s1,209
60066bd2:	6006      	bteqz	60066be0 <.LBE2+0x14>
60066bd4:	6861      	li	s0,97
60066bd6:	60a2      	bteqz	60066b1c <_read_var+0x14c>
60066bd8:	95ac      	lw	a1,688(sp)
60066bda:	9fc1      	lw	a2,4(a3)
60066bdc:	6c41      	li	a0,65
60066bde:	60a2      	bteqz	60066b24 <_read_var+0x154>
60066be0:	6cc9      	li	a0,201
60066be2:	60a2      	bteqz	60066b28 <_read_var+0x158>
60066be4:	a094      	lbu	a0,20(s0)
60066be6:	9fc1      	lw	a2,4(a3)

60066be8 <_app_exit>:
60066be8:	64c3      	save	24,ra

/******************************************************************************
 * \par  Description:   app应用退出,
 * \param[in]      null
 * \param[out]   null
 * \return           null
 * \note
 * \  <author>       <time>        <opt>
 * \  Cailizhen          2015-1          creat
 * \   Wekan       2015-3-30     reviwe
 *******************************************************************************/

static void _app_exit(void)
{
60066bea:	b205      	lw	v0,60066bfc <.LBE4+0x8>
    /*执行applib库的注销操作*/
    applib_quit();
60066bec:	eac0      	jalrc	v0

60066bee <.LBB4>:
60066bee:	6b02      	li	v1,2
}

///修改后台引擎状态
static inline void change_engine_state(engine_state_e engine_state)
{
60066bf0:	b204      	lw	v0,60066c00 <.LBE4+0xc>
    g_app_info_state_all.engine_state = engine_state;
60066bf2:	c261      	sb	v1,1(v0)

60066bf4 <.LBE4>:
60066bf4:	b204      	lw	v0,60066c04 <.LBE4+0x10>

    change_engine_state(ENGINE_STATE_PAUSE);
    _save_var();
60066bf6:	eac0      	jalrc	v0
60066bf8:	6443      	restore	24,ra
}
60066bfa:	e8a0      	jrc	ra
60066bfc:	6951      	li	s1,81
60066bfe:	60a2      	bteqz	60066b44 <_read_var+0x174>
60066c00:	a094      	lbu	a0,20(s0)
60066c02:	9fc1      	lw	a2,4(a3)
60066c04:	6b69      	li	v1,105
60066c06:	6006      	bteqz	60066c14 <main+0xc>

60066c08 <main>:
60066c08:	64f4      	save	32,ra,s0-s1

/******************************************************************************
 * \par  Description:   应用的入口函数和场景管理器模块
 * \param[in]      参数只为接口统一，没具体意义
 * \param[out]   none
 * \return       需app-manage响应的事件
 * \note
 * \  <author>       <time>        <opt>
 * \  Cailizhen          2015-1          creat
 * \   Wekan       2015-3-30     reviwe
 *******************************************************************************/

int main(int argc, const char *argv[])
{
60066c0a:	b20b      	lw	v0,60066c34 <main+0x2c>
    app_result_e result = RESULT_NULL;
    /*ap初始化*/
    _app_init();
60066c0c:	ea40      	jalr	v0
60066c0e:	6704      	move	s0,a0
60066c10:	b10a      	lw	s1,60066c38 <main+0x30>
    com_set_sound_out(SOUND_OUT_START);
60066c12:	e940      	jalr	s1
60066c14:	6c01      	li	a0,1
60066c16:	6790      	move	a0,s0
    btcall_eg_asqt_deal((uint8) argc);
60066c18:	b209      	lw	v0,60066c3c <main+0x34>
60066c1a:	ea40      	jalr	v0
60066c1c:	ec11      	zeb	a0
60066c1e:	b209      	lw	v0,60066c40 <main+0x38>
    result = get_message_loop();
60066c20:	eac0      	jalrc	v0
60066c22:	6702      	move	s0,v0
60066c24:	e940      	jalr	s1
    com_set_sound_out(SOUND_OUT_STOP);
60066c26:	6c00      	li	a0,0
60066c28:	b207      	lw	v0,60066c44 <main+0x3c>

    _app_exit();
60066c2a:	eac0      	jalrc	v0
60066c2c:	6750      	move	v0,s0
    return result;
}
60066c2e:	6474      	restore	32,ra,s0-s1
60066c30:	e8a0      	jrc	ra
60066c32:	0000      	addiu	s0,sp,0
60066c34:	6bad      	li	v1,173
60066c36:	6006      	bteqz	60066c44 <main+0x3c>
60066c38:	691d      	li	s1,29
60066c3a:	60a6      	bteqz	60066b88 <_save_var+0x20>
60066c3c:	6d25      	li	a1,37
60066c3e:	6016      	bteqz	60066c6c <main+0x64>
60066c40:	61fd      	btnez	60066c3c <main+0x34>
60066c42:	bfc2      	lwu	a2,8(a3)
60066c44:	6be9      	li	v1,233
60066c46:	6006      	bteqz	60066c54 <main+0x4c>
Disassembly of section BANK_CONTROL_1_2:

600a6800 <force_hfp_to_phone>:
600a6800:	64e4      	save	32,ra,s0
 * \   Wekan       2015-3-30     reviwe
 *******************************************************************************/

void force_hfp_to_phone(void)
{
600a6802:	b217      	lw	v0,600a685c <force_hfp_to_phone+0x5c>
    msg_apps_t msg;
    int i;

    if (g_p_bt_stack_cur_info->rmt_dev[g_p_bt_stack_cur_info->hfp_active_id].hfp_attr.sco_link == 1)
600a6804:	9a80      	lw	a0,0(v0)
600a6806:	f020 a469 	lbu	v1,41(a0)
600a680a:	326c      	sll	v0,v1,3
600a680c:	e269      	addu	v0,v1
600a680e:	3244      	sll	v0,1
600a6810:	e289      	addu	v0,a0
600a6812:	a24e      	lbu	v0,14(v0)
600a6814:	6b01      	li	v1,1
600a6816:	ea6c      	and	v0,v1
600a6818:	221f      	beqz	v0,600a6858 <force_hfp_to_phone+0x58>
600a681a:	f700 6a05 	li	v0,1797
    {
        //断开SCO链路
        msg.type = MSG_BTSTACK_HFP_RELEASESYN_SYNC;
600a681e:	d204      	sw	v0,16(sp)
600a6820:	6c00      	li	a0,0
        //发送同步消息
        send_sync_msg_btmanager(NULL, &msg, NULL, 0);
600a6822:	0504      	addiu	a1,sp,16
600a6824:	67c4      	move	a2,a0
600a6826:	b20f      	lw	v0,600a6860 <force_hfp_to_phone+0x60>
600a6828:	ea40      	jalr	v0
600a682a:	67e4      	move	a3,a0
600a682c:	6800      	li	s0,0

        //等待从音箱端切换回手机端
        for (i = 0; i < 10; i++)
600a682e:	6c01      	li	a0,1
        {
            sys_os_time_dly(1);
600a6830:	6d00      	li	a1,0
600a6832:	67c5      	move	a2,a1
600a6834:	b20c      	lw	v0,600a6864 <force_hfp_to_phone+0x64>
600a6836:	ea40      	jalr	v0
600a6838:	6f31      	li	a3,49
600a683a:	b209      	lw	v0,600a685c <force_hfp_to_phone+0x5c>

            if (g_p_bt_stack_cur_info->rmt_dev[g_p_bt_stack_cur_info->hfp_active_id].hfp_attr.sco_link == 0)
600a683c:	9a80      	lw	a0,0(v0)
600a683e:	f020 a469 	lbu	v1,41(a0)
600a6842:	326c      	sll	v0,v1,3
600a6844:	e269      	addu	v0,v1
600a6846:	3244      	sll	v0,1
600a6848:	e289      	addu	v0,a0
600a684a:	a24e      	lbu	v0,14(v0)
600a684c:	6b01      	li	v1,1
600a684e:	ea6c      	and	v0,v1
600a6850:	2203      	beqz	v0,600a6858 <force_hfp_to_phone+0x58>
600a6852:	4001      	addiu	s0,s0,1
600a6854:	500a      	slti	s0,10
600a6856:	61eb      	btnez	600a682e <force_hfp_to_phone+0x2e>
600a6858:	6464      	restore	32,ra,s0
            {
                break;
            }
        }
    }
}
600a685a:	e8a0      	jrc	ra
600a685c:	9670      	lw	a2,448(sp)
600a685e:	9fc1      	lw	a2,4(a3)
600a6860:	6ce9      	li	a0,233
600a6862:	60a2      	bteqz	600a67a8 <main+0x3fba0>
600a6864:	6009      	bteqz	600a6878 <force_quit_thread+0x10>
600a6866:	bfc2      	lwu	a2,8(a3)

600a6868 <force_quit_thread>:
600a6868:	64f4      	save	32,ra,s0-s1

/******************************************************************************
 * \par  Description:   退出解码线程
 * \param[in]     null0
 * \param[out]   null
 * \return           null
 * \note
 * \  <author>       <time>        <opt>
 * \  Cailizhen          2015-1          creat
 * \   Wekan       2015-3-30     reviwe
 *******************************************************************************/

void force_quit_thread(void)
{
600a686a:	b00c      	lw	s0,600a6898 <force_quit_thread+0x30>
    btcall_gl_var.need_exit_thread = TRUE;
600a686c:	6a01      	li	v0,1
600a686e:	c042      	sb	v0,2(s0)
600a6870:	b20b      	lw	v0,600a689c <force_quit_thread+0x34>

    force_hfp_to_phone();
600a6872:	eac0      	jalrc	v0
600a6874:	a040      	lbu	v0,0(s0)

    if (btcall_gl_var.g_sco_deal_flag != 0)
600a6876:	2202      	beqz	v0,600a687c <force_quit_thread+0x14>
600a6878:	b20a      	lw	v0,600a68a0 <force_quit_thread+0x38>
    {
        btcalleg_free_hfp_mmm();
600a687a:	eac0      	jalrc	v0
600a687c:	b20a      	lw	v0,600a68a0 <force_quit_thread+0x38>
    }
    //等待来电铃声线程退出
    while (g_callring_data.callring_thread_exist != 0)
    {
        sys_os_time_dly(1);
600a687e:	a240      	lbu	v0,0(v0)
600a6880:	2209      	beqz	v0,600a6894 <force_quit_thread+0x2c>
600a6882:	b10a      	lw	s1,600a68a8 <force_quit_thread+0x40>
600a6884:	b008      	lw	s0,600a68a4 <force_quit_thread+0x3c>
600a6886:	6c01      	li	a0,1
600a6888:	6d00      	li	a1,0
600a688a:	67c5      	move	a2,a1
600a688c:	e940      	jalr	s1
600a688e:	6f31      	li	a3,49
600a6890:	a040      	lbu	v0,0(s0)
600a6892:	2af9      	bnez	v0,600a6886 <force_quit_thread+0x1e>
600a6894:	6474      	restore	32,ra,s0-s1
    }
}
600a6896:	e8a0      	jrc	ra
600a6898:	964c      	lw	a2,304(sp)
600a689a:	9fc1      	lw	a2,4(a3)
600a689c:	6801      	li	s0,1
600a689e:	600a      	bteqz	600a68b4 <btcall_enter_pb_tts_play+0x8>
600a68a0:	699d      	li	s1,157
600a68a2:	6012      	bteqz	600a68c8 <btcall_enter_pb_tts_play+0x1c>
600a68a4:	9660      	lw	a2,384(sp)
600a68a6:	9fc1      	lw	a2,4(a3)
600a68a8:	6009      	bteqz	600a68bc <btcall_enter_pb_tts_play+0x10>
600a68aa:	bfc2      	lwu	a2,8(a3)

600a68ac <btcall_enter_pb_tts_play>:
600a68ac:	64f4      	save	32,ra,s0-s1

/******************************************************************************
 * \par  Description:   播报电话本
 * \param[in]     null0
 * \param[out]   null
 * \return           null
 * \note
 * \  <author>       <time>        <opt>
 * \  Cailizhen          2015-1          creat
 * \   Wekan       2015-3-30     reviwe
 *******************************************************************************/

bool btcall_enter_pb_tts_play(void)
{
600a68ae:	b216      	lw	v0,600a6904 <btcall_enter_pb_tts_play+0x58>
    PRINT_DBG("tts pb play\n");
    //防止本地来电铃声尚未置起
    if (btcall_gl_var.callin_ring_mode != CALLIN_RING_MODE_ONLY_PB)
600a68b0:	a246      	lbu	v0,6(v0)
600a68b2:	7201      	cmpi	v0,1
600a68b4:	601a      	bteqz	600a68ea <btcall_enter_pb_tts_play+0x3e>
600a68b6:	b015      	lw	s0,600a6908 <btcall_enter_pb_tts_play+0x5c>
    {
        if (g_callring_data.callring_timer_id != -1)
600a68b8:	808f      	lb	a0,15(s0)
600a68ba:	ea8f      	not	v0,a0
600a68bc:	2205      	beqz	v0,600a68c8 <btcall_enter_pb_tts_play+0x1c>
600a68be:	b214      	lw	v0,600a690c <btcall_enter_pb_tts_play+0x60>
        {
            kill_app_timer(g_callring_data.callring_timer_id);
600a68c0:	eac0      	jalrc	v0
600a68c2:	6a01      	li	v0,1
600a68c4:	ea4b      	neg	v0
600a68c6:	c04f      	sb	v0,15(s0)
            g_callring_data.callring_timer_id = -1;
600a68c8:	b210      	lw	v0,600a6908 <btcall_enter_pb_tts_play+0x5c>
        }

        if (g_callring_data.callring_thread_exist == 1)
600a68ca:	a280      	lbu	a0,0(v0)
600a68cc:	7401      	cmpi	a0,1
600a68ce:	610d      	btnez	600a68ea <btcall_enter_pb_tts_play+0x3e>
600a68d0:	6b01      	li	v1,1
        {
            btcall_gl_var.need_exit_thread = TRUE;
600a68d2:	b20d      	lw	v0,600a6904 <btcall_enter_pb_tts_play+0x58>
600a68d4:	c262      	sb	v1,2(v0)
600a68d6:	2409      	beqz	a0,600a68ea <btcall_enter_pb_tts_play+0x3e>
            while (g_callring_data.callring_thread_exist != 0)
            {
                sys_os_time_dly(1);
600a68d8:	b10e      	lw	s1,600a6910 <btcall_enter_pb_tts_play+0x64>
600a68da:	b00c      	lw	s0,600a6908 <btcall_enter_pb_tts_play+0x5c>
600a68dc:	6c01      	li	a0,1
600a68de:	6d00      	li	a1,0
600a68e0:	67c5      	move	a2,a1
600a68e2:	e940      	jalr	s1
600a68e4:	6f31      	li	a3,49
600a68e6:	a040      	lbu	v0,0(s0)
600a68e8:	2af9      	bnez	v0,600a68dc <btcall_enter_pb_tts_play+0x30>
600a68ea:	b207      	lw	v0,600a6904 <btcall_enter_pb_tts_play+0x58>
            }
        }
    }

    if (btcall_gl_var.g_sco_deal_flag == 1)
600a68ec:	a240      	lbu	v0,0(v0)
600a68ee:	7201      	cmpi	v0,1
600a68f0:	6102      	btnez	600a68f6 <btcall_enter_pb_tts_play+0x4a>
600a68f2:	b209      	lw	v0,600a6914 <btcall_enter_pb_tts_play+0x68>
    { //如果正在通话，先切成CAG模式
      //如果sco链路已存在，先杀掉sco线程
        btcalleg_free_hfp_mmm();
600a68f4:	eac0      	jalrc	v0
600a68f6:	b304      	lw	v1,600a6904 <btcall_enter_pb_tts_play+0x58>
    }

    btcall_gl_var.tts_play_flag = 1;
600a68f8:	6a01      	li	v0,1
600a68fa:	c344      	sb	v0,4(v1)
600a68fc:	c345      	sb	v0,5(v1)
    btcall_gl_var.tts_pb_play_flag = 1;
600a68fe:	6a01      	li	v0,1

    return TRUE;
}
600a6900:	6474      	restore	32,ra,s0-s1
600a6902:	e8a0      	jrc	ra
600a6904:	964c      	lw	a2,304(sp)
600a6906:	9fc1      	lw	a2,4(a3)
600a6908:	9660      	lw	a2,384(sp)
600a690a:	9fc1      	lw	a2,4(a3)
600a690c:	6c0d      	li	a0,13
600a690e:	60a2      	bteqz	600a6854 <force_hfp_to_phone+0x54>
600a6910:	6009      	bteqz	600a6924 <btcall_exit_pb_tts_play+0xc>
600a6912:	bfc2      	lwu	a2,8(a3)
600a6914:	699d      	li	s1,157
600a6916:	6012      	bteqz	600a693c <btcall_exit_pb_tts_play+0x24>

600a6918 <btcall_exit_pb_tts_play>:
600a6918:	64c3      	save	24,ra

/******************************************************************************
 * \par  Description:   退出电话本播报
 * \param[in]     null0
 * \param[out]   null
 * \return           null
 * \note
 * \  <author>       <time>        <opt>
 * \  Cailizhen          2015-1          creat
 * \   Wekan       2015-3-30     reviwe
 *******************************************************************************/

bool btcall_exit_pb_tts_play(void)
{
600a691a:	b30c      	lw	v1,600a6948 <btcall_exit_pb_tts_play+0x30>
    PRINT_DBG("tts pb finish\n");
    btcall_gl_var.tts_play_flag = 0;
600a691c:	6a00      	li	v0,0
600a691e:	c344      	sb	v0,4(v1)
600a6920:	c345      	sb	v0,5(v1)
    btcall_gl_var.tts_pb_play_flag = 0;
600a6922:	6a01      	li	v0,1
    btcall_gl_var.callin_pb_back = 1;
600a6924:	c349      	sb	v0,9(v1)
600a6926:	b20a      	lw	v0,600a694c <btcall_exit_pb_tts_play+0x34>
    if (g_p_bt_stack_cur_info->rmt_dev[g_p_bt_stack_cur_info->hfp_active_id].hfp_status == HFP_STATUS_CALLING)
600a6928:	9a80      	lw	a0,0(v0)
600a692a:	f020 a469 	lbu	v1,41(a0)
600a692e:	326c      	sll	v0,v1,3
600a6930:	e269      	addu	v0,v1
600a6932:	3244      	sll	v0,1
600a6934:	e289      	addu	v0,a0
600a6936:	a253      	lbu	v0,19(v0)
600a6938:	7204      	cmpi	v0,4
600a693a:	6102      	btnez	600a6940 <btcall_exit_pb_tts_play+0x28>
600a693c:	b205      	lw	v0,600a6950 <btcall_exit_pb_tts_play+0x38>
    {
        bt_engine_hfp_sco_connect_ind_handle();
600a693e:	eac0      	jalrc	v0
600a6940:	6a01      	li	v0,1
    }

    return TRUE;
}
600a6942:	6443      	restore	24,ra
600a6944:	e8a0      	jrc	ra
600a6946:	0000      	addiu	s0,sp,0
600a6948:	964c      	lw	a2,304(sp)
600a694a:	9fc1      	lw	a2,4(a3)
600a694c:	9670      	lw	a2,448(sp)
600a694e:	9fc1      	lw	a2,4(a3)
600a6950:	6a35      	li	v0,53
600a6952:	6012      	bteqz	600a6978 <btcall_reply_msg+0x24>

600a6954 <btcall_reply_msg>:
600a6954:	64c3      	save	24,ra

/******************************************************************************
 * \par  Description:   回复同步消息
 * \param[in]    void  msg_ptr 消息结构体
 * \param[in]    ret_vals 上一事件的处理结果 TRUE 成功 FALSE 失败
 * \param[out]   none
 * \return           null
 * \note  回复消息时，根据ret_vals的结果，设置应答成功或失败
 * \  <author>       <time>        <opt>
 * \  Cailizhen          2015-1          creat
 * \   Wekan       2015-3-30     reviwe
 *******************************************************************************/

void btcall_reply_msg(void* msg_ptr, bool ret_vals)
{
600a6956:	ed11      	zeb	a1
600a6958:	7501      	cmpi	a1,1
    //消息指针
    private_msg_t* data_ptr = (private_msg_t*) msg_ptr;

    if (ret_vals == TRUE)
600a695a:	6104      	btnez	600a6964 <btcall_reply_msg+0x10>
600a695c:	9c63      	lw	v1,12(a0)
    {
        data_ptr->reply->type = MSG_REPLY_SUCCESS;
600a695e:	6a01      	li	v0,1
600a6960:	c340      	sb	v0,0(v1)
600a6962:	1003      	b	600a696a <btcall_reply_msg+0x16>
600a6964:	9c63      	lw	v1,12(a0)
    }
    else
    {
        data_ptr->reply->type = MSG_REPLY_FAILED;
600a6966:	6a02      	li	v0,2
600a6968:	c340      	sb	v0,0(v1)
600a696a:	9c82      	lw	a0,8(a0)
    }

    //回复同步消息(发送信号量)
    libc_sem_post(data_ptr->sem);
600a696c:	6d00      	li	a1,0
600a696e:	67c5      	move	a2,a1
600a6970:	b203      	lw	v0,600a697c <btcall_reply_msg+0x28>
600a6972:	ea40      	jalr	v0
600a6974:	6f16      	li	a3,22
600a6976:	6443      	restore	24,ra
}
600a6978:	e8a0      	jrc	ra
600a697a:	0000      	addiu	s0,sp,0
600a697c:	6005      	bteqz	600a6988 <app_msg_deal_app_quit+0x8>
600a697e:	bfc2      	lwu	a2,8(a3)

600a6980 <app_msg_deal_app_quit>:
600a6980:	64c3      	save	24,ra

/******************************************************************************
 * \par  Description:   消息初始化
 * \param[in]    void  msg_ptr 消息结构体
 * \param[out]   none
 * \return           null
 * \note
 * \  <author>       <time>        <opt>
 * \  Cailizhen          2015-1          creat
 * \   Wekan       2015-3-30     reviwe
 *******************************************************************************/

app_result_e app_msg_deal_app_quit(void)
{
600a6982:	b204      	lw	v0,600a6990 <app_msg_deal_app_quit+0x10>
    force_quit_thread();
600a6984:	eac0      	jalrc	v0
600a6986:	6aff      	li	v0,255

    return RESULT_APP_QUIT;
}
600a6988:	4241      	addiu	v0,v0,1
600a698a:	6443      	restore	24,ra
600a698c:	e8a0      	jrc	ra
600a698e:	0000      	addiu	s0,sp,0
600a6990:	6869      	li	s0,105
600a6992:	600a      	bteqz	600a69a8 <app_message_deal+0x14>

600a6994 <app_message_deal>:
600a6994:	64f5      	save	40,ra,s0-s1

/******************************************************************************
 * \par  Description:  处理消息事件
 * \param[in]    pri_msg  私有消息指针
 * \param[out]   none
 * \return           需要顶层处理的事件
 * \note
 * \  <author>       <time>        <opt>
 * \  Cailizhen          2015-1          creat
 * \   Wekan       2015-3-30     reviwe
 *******************************************************************************/

app_result_e app_message_deal(private_msg_t *pri_msg)
{
600a6996:	6724      	move	s1,a0
600a6998:	6a00      	li	v0,0
    app_result_e app_ret = RESULT_NULL;
600a699a:	d204      	sw	v0,16(sp)
600a699c:	9c40      	lw	v0,0(a0)
    bool ret_val;
    switch (pri_msg->msg.type)
600a699e:	72f5      	cmpi	v0,245
600a69a0:	602e      	bteqz	600a69fe <app_message_deal+0x6a>
600a69a2:	5af6      	sltiu	v0,246
600a69a4:	600c      	bteqz	600a69be <app_message_deal+0x2a>
600a69a6:	72f2      	cmpi	v0,242
600a69a8:	6034      	bteqz	600a6a12 <.LBB2>
600a69aa:	5af3      	sltiu	v0,243
600a69ac:	6003      	bteqz	600a69b4 <app_message_deal+0x20>
600a69ae:	72f1      	cmpi	v0,241
600a69b0:	6073      	bteqz	600a6a98 <.LBE4+0x2>
600a69b2:	10b6      	b	600a6b20 <.LBE6+0x2>
600a69b4:	72f3      	cmpi	v0,243
600a69b6:	6043      	bteqz	600a6a3e <.LBB3>
600a69b8:	72f4      	cmpi	v0,244
600a69ba:	6017      	bteqz	600a69ea <app_message_deal+0x56>
600a69bc:	10b1      	b	600a6b20 <.LBE6+0x2>
600a69be:	f301 7202 	cmpi	v0,2818
600a69c2:	f080 6008 	bteqz	600a6ad6 <.LBE4+0x40>
600a69c6:	f301 5a03 	sltiu	v0,2819
600a69ca:	6006      	bteqz	600a69d8 <app_message_deal+0x44>
600a69cc:	72fa      	cmpi	v0,250
600a69ce:	6046      	bteqz	600a6a5c <.LBB4>
600a69d0:	f301 7201 	cmpi	v0,2817
600a69d4:	606f      	bteqz	600a6ab4 <.LBE4+0x1e>
600a69d6:	10a4      	b	600a6b20 <.LBE6+0x2>
600a69d8:	f301 7203 	cmpi	v0,2819
600a69dc:	f080 600d 	bteqz	600a6afa <.LBB5>
600a69e0:	f301 7204 	cmpi	v0,2820
600a69e4:	f080 6013 	bteqz	600a6b0e <.LBB6>
600a69e8:	109b      	b	600a6b20 <.LBE6+0x2>
600a69ea:	b26f      	lw	v0,600a6ba4 <.LBE6+0x86>
    {
        case MSG_SWITCH_AOUT_START_SYNC: //准备切换音频输出
        {
            ret_val = btcall_enter_pb_tts_play();
600a69ec:	eac0      	jalrc	v0
600a69ee:	6c01      	li	a0,1
            btcall_gl_var.tts_play_flag = 1;
600a69f0:	b36e      	lw	v1,600a6ba8 <.LBE6+0x8a>
600a69f2:	c384      	sb	a0,4(v1)
600a69f4:	67a2      	move	a1,v0
            btcall_reply_msg(pri_msg, ret_val);
600a69f6:	b26e      	lw	v0,600a6bac <.LBE6+0x8e>
600a69f8:	ea40      	jalr	v0
600a69fa:	6791      	move	a0,s1
600a69fc:	1095      	b	600a6b28 <.LBE6+0xa>
        }
        break;
600a69fe:	b26d      	lw	v0,600a6bb0 <.LBE6+0x92>

        case MSG_SWITCH_AOUT_STOP_SYNC: //完成切换音频输出
        {
            ret_val = btcall_exit_pb_tts_play();
600a6a00:	eac0      	jalrc	v0
600a6a02:	6c00      	li	a0,0
            btcall_gl_var.tts_play_flag = 0;
600a6a04:	b369      	lw	v1,600a6ba8 <.LBE6+0x8a>
600a6a06:	c384      	sb	a0,4(v1)
600a6a08:	67a2      	move	a1,v0
            btcall_reply_msg(pri_msg, ret_val);
600a6a0a:	b269      	lw	v0,600a6bac <.LBE6+0x8e>
600a6a0c:	ea40      	jalr	v0
600a6a0e:	6791      	move	a0,s1
600a6a10:	108b      	b	600a6b28 <.LBE6+0xa>

600a6a12 <.LBB2>:
        }
        break;
600a6a12:	a444      	lbu	v0,4(a0)

        case MSG_TTS_START_SYNC: //准备进入TTS播报
        {
            bool pb_play_flag = pri_msg->msg.content.data[0];
600a6a14:	7201      	cmpi	v0,1

            if (pb_play_flag == TRUE)
600a6a16:	6103      	btnez	600a6a1e <.LBB2+0xc>
600a6a18:	b263      	lw	v0,600a6ba4 <.LBE6+0x86>
            {
                ret_val = btcall_enter_pb_tts_play();
600a6a1a:	eac0      	jalrc	v0
600a6a1c:	100b      	b	600a6a34 <.LBB2+0x22>
600a6a1e:	b266      	lw	v0,600a6bb4 <.LBE6+0x96>
            }
            else
            {
                PRINT_DBG("tts play\n");

                if ((g_p_btcall_info->status != BTCALL_IDLE)
600a6a20:	9a40      	lw	v0,0(v0)
600a6a22:	a240      	lbu	v0,0(v0)
600a6a24:	5a02      	sltiu	v0,2
600a6a26:	6102      	btnez	600a6a2c <.LBB2+0x1a>
600a6a28:	6a00      	li	v0,0
                        && (g_p_btcall_info->status != BTCALL_STOP))
                {
                    //不允许TTS播报
                    ret_val = FALSE;
600a6a2a:	1004      	b	600a6a34 <.LBB2+0x22>
600a6a2c:	6b01      	li	v1,1
                }
                else
                {
                    btcall_gl_var.tts_play_flag = 1;
600a6a2e:	b25f      	lw	v0,600a6ba8 <.LBE6+0x8a>
600a6a30:	c264      	sb	v1,4(v0)
600a6a32:	6a01      	li	v0,1
                    ret_val = TRUE;
600a6a34:	67a2      	move	a1,v0
                }
            }

            btcall_reply_msg(pri_msg, ret_val);
600a6a36:	b25e      	lw	v0,600a6bac <.LBE6+0x8e>
600a6a38:	ea40      	jalr	v0
600a6a3a:	6791      	move	a0,s1

600a6a3c <.LBE2>:
600a6a3c:	1075      	b	600a6b28 <.LBE6+0xa>

600a6a3e <.LBB3>:
        }
        break;
600a6a3e:	a444      	lbu	v0,4(a0)

        case MSG_TTS_STOP_SYNC: //TTS播报完成
        {
            bool pb_play_flag = pri_msg->msg.content.data[0];
600a6a40:	7201      	cmpi	v0,1

            PRINT_DBG("tts finish\n");

            if (pb_play_flag == TRUE)
600a6a42:	6103      	btnez	600a6a4a <.LBB3+0xc>
600a6a44:	b25b      	lw	v0,600a6bb0 <.LBE6+0x92>
            {
                ret_val = btcall_exit_pb_tts_play();
600a6a46:	eac0      	jalrc	v0
600a6a48:	1004      	b	600a6a52 <.LBB3+0x14>
600a6a4a:	6b00      	li	v1,0
            }
            else
            {
                btcall_gl_var.tts_play_flag = 0;
600a6a4c:	b257      	lw	v0,600a6ba8 <.LBE6+0x8a>
600a6a4e:	c264      	sb	v1,4(v0)
600a6a50:	6a01      	li	v0,1
                ret_val = TRUE;
600a6a52:	67a2      	move	a1,v0
            }

            btcall_reply_msg(pri_msg, ret_val);
600a6a54:	b256      	lw	v0,600a6bac <.LBE6+0x8e>
600a6a56:	ea40      	jalr	v0
600a6a58:	6791      	move	a0,s1

600a6a5a <.LBE3>:
600a6a5a:	1066      	b	600a6b28 <.LBE6+0xa>

600a6a5c <.LBB4>:
        }
        break;
600a6a5c:	9c41      	lw	v0,4(a0)

        case MSG_ENGINE_STANDBY_SYNC:
        {
            os_event_t *standby_sem = (os_event_t *)(pri_msg->msg.content.addr);
600a6a5e:	d205      	sw	v0,20(sp)
600a6a60:	0c34      	la	a0,600a6b30 <.LBE6+0x12>

            //备份现场，准备进入睡眠模式
            PRINT_INFO("engine standby enter");
600a6a62:	6d00      	li	a1,0
600a6a64:	67c5      	move	a2,a1
600a6a66:	b055      	lw	s0,600a6bb8 <.LBE6+0x9a>
600a6a68:	e840      	jalr	s0
600a6a6a:	6f4b      	li	a3,75
600a6a6c:	6791      	move	a0,s1

            //回复前台，然后接着跑就会睡眠
            btcall_reply_msg(pri_msg, TRUE);
600a6a6e:	b250      	lw	v0,600a6bac <.LBE6+0x8e>
600a6a70:	ea40      	jalr	v0
600a6a72:	6d01      	li	a1,1
600a6a74:	9405      	lw	a0,20(sp)

            libc_sem_wait(standby_sem, 0);
600a6a76:	6d00      	li	a1,0
600a6a78:	67c5      	move	a2,a1
600a6a7a:	b251      	lw	v0,600a6bbc <.LBE6+0x9e>
600a6a7c:	ea40      	jalr	v0
600a6a7e:	6f14      	li	a3,20
600a6a80:	0c33      	la	a0,600a6b4c <.LBE6+0x2e>

            //从睡眠模式回来，恢复现场
            PRINT_INFO("engine standby exit");
600a6a82:	6d00      	li	a1,0
600a6a84:	67c5      	move	a2,a1
600a6a86:	e840      	jalr	s0
600a6a88:	6f4b      	li	a3,75
600a6a8a:	b24e      	lw	v0,600a6bc0 <.LBE6+0xa2>
            standby_restart_all_app_timer(g_app_timer_vector, g_app_timer_count);
600a6a8c:	9a80      	lw	a0,0(v0)
600a6a8e:	b24e      	lw	v0,600a6bc4 <.LBE6+0xa6>
600a6a90:	a2a0      	lbu	a1,0(v0)
600a6a92:	b24e      	lw	v0,600a6bc8 <.LBE6+0xaa>
600a6a94:	eac0      	jalrc	v0

600a6a96 <.LBE4>:
600a6a96:	1048      	b	600a6b28 <.LBE6+0xa>
        }
        break;
600a6a98:	a444      	lbu	v0,4(a0)

        case MSG_APP_QUIT: //退出引擎
        PRINT_DBG("quit btcall engine\n");
        if ((pri_msg->msg.content.data[0] & 0x01) != 0)
600a6a9a:	6b01      	li	v1,1
600a6a9c:	ea6c      	and	v0,v1
600a6a9e:	2206      	beqz	v0,600a6aac <.LBE4+0x16>
600a6aa0:	0c31      	la	a0,600a6b64 <.LBE6+0x46>
        {
            PRINT_INFO("eg enter s3bt");
600a6aa2:	6d00      	li	a1,0
600a6aa4:	67c5      	move	a2,a1
600a6aa6:	b245      	lw	v0,600a6bb8 <.LBE6+0x9a>
600a6aa8:	ea40      	jalr	v0
600a6aaa:	6f4b      	li	a3,75
600a6aac:	b248      	lw	v0,600a6bcc <.LBE6+0xae>
        }
        app_ret = app_msg_deal_app_quit();
600a6aae:	eac0      	jalrc	v0
600a6ab0:	d204      	sw	v0,16(sp)
600a6ab2:	103a      	b	600a6b28 <.LBE6+0xa>
        break;
600a6ab4:	6b01      	li	v1,1

        //通话远端静音
        case MSG_BTCALLEG_MIC_MUTE_SYNC:
        btcall_gl_var.g_mic_mute_flag = TRUE;
600a6ab6:	b23d      	lw	v0,600a6ba8 <.LBE6+0x8a>
600a6ab8:	c26b      	sb	v1,11(v0)
600a6aba:	6b02      	li	v1,2
        g_dsp_init_parm.pcm_mode = 2;//上传静音数据
600a6abc:	b245      	lw	v0,600a6bd0 <.LBE6+0xb2>
600a6abe:	da75      	sw	v1,84(v0)
600a6ac0:	0c2e      	la	a0,600a6b78 <.LBE6+0x5a>
        libc_print("btcall-set-mic-mute.",0,0);
600a6ac2:	6d00      	li	a1,0
600a6ac4:	67c5      	move	a2,a1
600a6ac6:	b23d      	lw	v0,600a6bb8 <.LBE6+0x9a>
600a6ac8:	ea40      	jalr	v0
600a6aca:	6f4b      	li	a3,75
600a6acc:	6791      	move	a0,s1
        btcall_reply_msg(pri_msg, TRUE);
600a6ace:	b238      	lw	v0,600a6bac <.LBE6+0x8e>
600a6ad0:	ea40      	jalr	v0
600a6ad2:	6d01      	li	a1,1
600a6ad4:	1029      	b	600a6b28 <.LBE6+0xa>
        break;
600a6ad6:	b035      	lw	s0,600a6ba8 <.LBE6+0x8a>

        //通话远端恢复正常
        case MSG_BTCALLEG_MIC_RELEASEMUTE_SYNC:
        btcall_gl_var.g_mic_mute_flag = FALSE;
600a6ad8:	6a00      	li	v0,0
600a6ada:	c04b      	sb	v0,11(s0)
600a6adc:	6e00      	li	a2,0
        g_dsp_init_parm.pcm_mode = 0;
600a6ade:	b23d      	lw	v0,600a6bd0 <.LBE6+0xb2>
600a6ae0:	dad5      	sw	a2,84(v0)
600a6ae2:	0c2c      	la	a0,600a6b90 <.LBE6+0x72>
        libc_print("btcall-set-mic-ok.",0,0);
600a6ae4:	67a6      	move	a1,a2
600a6ae6:	b235      	lw	v0,600a6bb8 <.LBE6+0x9a>
600a6ae8:	ea40      	jalr	v0
600a6aea:	6f4b      	li	a3,75
600a6aec:	6a01      	li	v0,1
        btcall_gl_var.g_actaec_reset_flag = TRUE;
600a6aee:	c04a      	sb	v0,10(s0)
600a6af0:	6791      	move	a0,s1
        btcall_reply_msg(pri_msg, TRUE);
600a6af2:	b22f      	lw	v0,600a6bac <.LBE6+0x8e>
600a6af4:	ea40      	jalr	v0
600a6af6:	6d01      	li	a1,1
600a6af8:	1017      	b	600a6b28 <.LBE6+0xa>

600a6afa <.LBB5>:
        break;
600a6afa:	9c43      	lw	v0,12(a0)


        case  MSG_BTCALLEG_GET_EG_VOLUM_SYNC:
        {
           uint32 *pu32 = (uint32*)pri_msg->reply->content;
600a6afc:	9a61      	lw	v1,4(v0)
600a6afe:	b236      	lw	v0,600a6bd4 <.LBE6+0xb6>
           //*pu32 = g_asqt_parm.AsqtCfg.pa_volume;
           *pu32 = g_asqt_parm.asqt_volume;
600a6b00:	4a7c      	addiu	v0,124
600a6b02:	9a5d      	lw	v0,116(v0)
600a6b04:	db40      	sw	v0,0(v1)
600a6b06:	b22a      	lw	v0,600a6bac <.LBE6+0x8e>
           btcall_reply_msg(pri_msg, TRUE);
600a6b08:	ea40      	jalr	v0
600a6b0a:	6d01      	li	a1,1

600a6b0c <.LBE5>:
600a6b0c:	100d      	b	600a6b28 <.LBE6+0xa>

600a6b0e <.LBB6>:
        }
        break;
600a6b0e:	9c43      	lw	v0,12(a0)


        case MSG_BTCALLEG_GET_EG_PA_VOLUM_SYNC:
        {
           uint32 *pu32 = (uint32*)pri_msg->reply->content;
600a6b10:	9a61      	lw	v1,4(v0)
600a6b12:	b231      	lw	v0,600a6bd4 <.LBE6+0xb6>
           *pu32 = g_asqt_parm.AsqtCfg.pa_volume;
600a6b14:	9a52      	lw	v0,72(v0)
600a6b16:	db40      	sw	v0,0(v1)
600a6b18:	b225      	lw	v0,600a6bac <.LBE6+0x8e>
           //*pu32 = g_asqt_parm.asqt_volume;
           btcall_reply_msg(pri_msg, TRUE);
600a6b1a:	ea40      	jalr	v0
600a6b1c:	6d01      	li	a1,1

600a6b1e <.LBE6>:
600a6b1e:	1004      	b	600a6b28 <.LBE6+0xa>
        }
        break;
600a6b20:	6791      	move	a0,s1

        default:
        btcall_reply_msg(pri_msg, TRUE);
600a6b22:	b223      	lw	v0,600a6bac <.LBE6+0x8e>
600a6b24:	ea40      	jalr	v0
600a6b26:	6d01      	li	a1,1
600a6b28:	9204      	lw	v0,16(sp)
        break;
    }

    return app_ret;
}
600a6b2a:	6475      	restore	40,ra,s0-s1
600a6b2c:	e8a0      	jrc	ra
600a6b2e:	0000      	addiu	s0,sp,0
600a6b30:	493c      	addiu	s1,60
600a6b32:	203e      	beqz	s0,600a6bb0 <.LBE6+0x92>
600a6b34:	6e65      	li	a2,101
600a6b36:	6967      	li	s1,103
600a6b38:	656e      	move	t3,a2
600a6b3a:	7320      	cmpi	v1,32
600a6b3c:	6174      	btnez	600a6c26 <.LBE6+0x108>
600a6b3e:	646e      	restore	112,ra,s0
600a6b40:	7962      	sd	v1,16(s1)
600a6b42:	6520      	move	at,s0
600a6b44:	746e      	cmpi	a0,110
600a6b46:	7265      	cmpi	v0,101
600a6b48:	0000      	addiu	s0,sp,0
600a6b4a:	0000      	addiu	s0,sp,0
600a6b4c:	493c      	addiu	s1,60
600a6b4e:	203e      	beqz	s0,600a6bcc <.LBE6+0xae>
600a6b50:	6e65      	li	a2,101
600a6b52:	6967      	li	s1,103
600a6b54:	656e      	move	t3,a2
600a6b56:	7320      	cmpi	v1,32
600a6b58:	6174      	btnez	600a6c42 <.LBE6+0x124>
600a6b5a:	646e      	restore	112,ra,s0
600a6b5c:	7962      	sd	v1,16(s1)
600a6b5e:	6520      	move	at,s0
600a6b60:	6978      	li	s1,120
600a6b62:	0074      	addiu	s0,sp,464
600a6b64:	493c      	addiu	s1,60
600a6b66:	203e      	beqz	s0,600a6be4 <.LBE6+0xc6>
600a6b68:	6765      	move	v1,a1
600a6b6a:	6520      	move	at,s0
600a6b6c:	746e      	cmpi	a0,110
600a6b6e:	7265      	cmpi	v0,101
600a6b70:	7320      	cmpi	v1,32
600a6b72:	6233      	sw	ra,204(sp)
600a6b74:	0074      	addiu	s0,sp,464
600a6b76:	0000      	addiu	s0,sp,0
600a6b78:	7462      	cmpi	a0,98
600a6b7a:	6163      	btnez	600a6c42 <.LBE6+0x124>
600a6b7c:	6c6c      	li	a0,108
600a6b7e:	732d      	cmpi	v1,45
600a6b80:	7465      	cmpi	a0,101
600a6b82:	6d2d      	li	a1,45
600a6b84:	6369      	addiu	sp,840
600a6b86:	6d2d      	li	a1,45
600a6b88:	7475      	cmpi	a0,117
600a6b8a:	2e65      	bnez	a2,600a6c56 <.LBE6+0x138>
600a6b8c:	0000      	addiu	s0,sp,0
600a6b8e:	0000      	addiu	s0,sp,0
600a6b90:	7462      	cmpi	a0,98
600a6b92:	6163      	btnez	600a6c5a <.LBE6+0x13c>
600a6b94:	6c6c      	li	a0,108
600a6b96:	732d      	cmpi	v1,45
600a6b98:	7465      	cmpi	a0,101
600a6b9a:	6d2d      	li	a1,45
600a6b9c:	6369      	addiu	sp,840
600a6b9e:	6f2d      	li	a3,45
600a6ba0:	2e6b      	bnez	a2,600a6c78 <.LBE6+0x15a>
600a6ba2:	0000      	addiu	s0,sp,0
600a6ba4:	68ad      	li	s0,173
600a6ba6:	600a      	bteqz	600a6bbc <.LBE6+0x9e>
600a6ba8:	964c      	lw	a2,304(sp)
600a6baa:	9fc1      	lw	a2,4(a3)
600a6bac:	6955      	li	s1,85
600a6bae:	600a      	bteqz	600a6bc4 <.LBE6+0xa6>
600a6bb0:	6919      	li	s1,25
600a6bb2:	600a      	bteqz	600a6bc8 <.LBE6+0xaa>
600a6bb4:	967c      	lw	a2,496(sp)
600a6bb6:	9fc1      	lw	a2,4(a3)
600a6bb8:	6009      	bteqz	600a6bcc <.LBE6+0xae>
600a6bba:	bfc2      	lwu	a2,8(a3)
600a6bbc:	6005      	bteqz	600a6bc8 <.LBE6+0xaa>
600a6bbe:	bfc2      	lwu	a2,8(a3)
600a6bc0:	9590      	lw	a1,576(sp)
600a6bc2:	9fc1      	lw	a2,4(a3)
600a6bc4:	95a0      	lw	a1,640(sp)
600a6bc6:	9fc1      	lw	a2,4(a3)
600a6bc8:	6c85      	li	a0,133
600a6bca:	60a2      	bteqz	600a6b10 <.LBB6+0x2>
600a6bcc:	6981      	li	s1,129
600a6bce:	600a      	bteqz	600a6be4 <.LBE6+0xc6>
600a6bd0:	96a0      	lw	a2,640(sp)
600a6bd2:	9fc1      	lw	a2,4(a3)
600a6bd4:	971c      	lw	a3,112(sp)
600a6bd6:	9fc1      	lw	a2,4(a3)
Disassembly of section BANK_CONTROL_1_3:

600e6800 <memcpy_dual_callring>:
600e6800:	64b1      	save	8,s0-s1
600e6802:	6704      	move	s0,a0
600e6804:	ef11      	zeb	a3
600e6806:	2e01      	bnez	a2,600e680a <memcpy_dual_callring+0xa>
600e6808:	46c1      	addiu	a2,a2,1
600e680a:	6c00      	li	a0,0
600e680c:	ecc2      	slt	a0,a2
600e680e:	6020      	bteqz	600e6850 <memcpy_dual_callring+0x50>
600e6810:	6b01      	li	v1,1
600e6812:	ebee      	xor	v1,a3
600e6814:	5b01      	sltiu	v1,1
600e6816:	6758      	move	v0,t8
600e6818:	653a      	move	t9,v0
600e681a:	7702      	cmpi	a3,2
600e681c:	6738      	move	s1,t8
600e681e:	5901      	sltiu	s1,1
600e6820:	67f8      	move	a3,t8
600e6822:	e589      	addu	v0,a1,a0
600e6824:	8a60      	lh	v1,0(v0)
600e6826:	6759      	move	v0,t9
600e6828:	2206      	beqz	v0,600e6836 <memcpy_dual_callring+0x36>
600e682a:	eb98      	mult	v1,a0
600e682c:	ea12      	mflo	v0
600e682e:	eada      	div	zero,v0,a2
600e6830:	eb12      	mflo	v1
600e6832:	6500      	nop
600e6834:	1006      	b	600e6842 <memcpy_dual_callring+0x42>
600e6836:	2705      	beqz	a3,600e6842 <memcpy_dual_callring+0x42>
600e6838:	e68b      	subu	v0,a2,a0
600e683a:	ea78      	mult	v0,v1
600e683c:	e912      	mflo	s1
600e683e:	e9da      	div	zero,s1,a2
600e6840:	eb12      	mflo	v1
600e6842:	3284      	sll	v0,a0,1
600e6844:	e209      	addu	v0,s0
600e6846:	ca60      	sh	v1,0(v0)
600e6848:	ca61      	sh	v1,2(v0)
600e684a:	4482      	addiu	a0,a0,2
600e684c:	ecc2      	slt	a0,a2
600e684e:	61e9      	btnez	600e6822 <memcpy_dual_callring+0x22>
600e6850:	6431      	restore	8,s0-s1
600e6852:	e8a0      	jrc	ra

600e6854 <callring_frame>:
600e6854:	f004 64f4 	save	a0,32,ra,s0-s1
600e6858:	6725      	move	s1,a1
600e685a:	b034      	lw	s0,600e6928 <.L18+0x8>
600e685c:	a04e      	lbu	v0,14(s0)
600e685e:	7201      	cmpi	v0,1
600e6860:	610d      	btnez	600e687c <callring_frame+0x28>
600e6862:	6d00      	li	a1,0
600e6864:	67d1      	move	a2,s1
600e6866:	b232      	lw	v0,600e692c <.L18+0xc>
600e6868:	ea40      	jalr	v0
600e686a:	6f01      	li	a3,1
600e686c:	a846      	lhu	v0,12(s0)
600e686e:	424f      	addiu	v0,v0,-1
600e6870:	c846      	sh	v0,12(s0)
600e6872:	a846      	lhu	v0,12(s0)
600e6874:	2a01      	bnez	v0,600e6878 <callring_frame+0x24>
600e6876:	c04e      	sb	v0,14(s0)
600e6878:	6711      	move	s0,s1
600e687a:	1052      	b	600e6920 <.L18>
600e687c:	b22b      	lw	v0,600e6928 <.L18+0x8>
600e687e:	9a81      	lw	a0,4(v0)
600e6880:	6d00      	li	a1,0
600e6882:	aac5      	lhu	a2,10(v0)
600e6884:	b22b      	lw	v0,600e6930 <.L18+0x10>
600e6886:	ea40      	jalr	v0
600e6888:	6f0f      	li	a3,15
600e688a:	ea4f      	not	v0
600e688c:	2a03      	bnez	v0,600e6894 <callring_frame+0x40>
600e688e:	6801      	li	s0,1
600e6890:	e80b      	neg	s0
600e6892:	1046      	b	600e6920 <.L18>
600e6894:	b325      	lw	v1,600e6928 <.L18+0x8>
600e6896:	abe5      	lhu	a3,10(v1)
600e6898:	e729      	addu	v0,a3,s1
600e689a:	abc4      	lhu	a2,8(v1)
600e689c:	ee42      	slt	a2,v0
600e689e:	6008      	bteqz	600e68b0 <callring_frame+0x5c>
600e68a0:	9b81      	lw	a0,4(v1)
600e68a2:	9508      	lw	a1,32(sp)
600e68a4:	e6fb      	subu	a2,a3
600e68a6:	b223      	lw	v0,600e6930 <.L18+0x10>
600e68a8:	ea40      	jalr	v0
600e68aa:	6f11      	li	a3,17
600e68ac:	6702      	move	s0,v0
600e68ae:	1008      	b	600e68c0 <callring_frame+0x6c>
600e68b0:	b21e      	lw	v0,600e6928 <.L18+0x8>
600e68b2:	9a81      	lw	a0,4(v0)
600e68b4:	9508      	lw	a1,32(sp)
600e68b6:	67d1      	move	a2,s1
600e68b8:	b21e      	lw	v0,600e6930 <.L18+0x10>
600e68ba:	ea40      	jalr	v0
600e68bc:	6f11      	li	a3,17
600e68be:	6702      	move	s0,v0
600e68c0:	ea0f      	not	v0,s0
600e68c2:	222e      	beqz	v0,600e6920 <.L18>
600e68c4:	b219      	lw	v0,600e6928 <.L18+0x8>
600e68c6:	aa45      	lhu	v0,10(v0)
600e68c8:	2a05      	bnez	v0,600e68d4 <callring_frame+0x80>
600e68ca:	9308      	lw	v1,32(sp)
600e68cc:	c340      	sb	v0,0(v1)
600e68ce:	c341      	sb	v0,1(v1)
600e68d0:	c342      	sb	v0,2(v1)
600e68d2:	c343      	sb	v0,3(v1)
600e68d4:	b415      	lw	a0,600e6928 <.L18+0x8>
600e68d6:	ac45      	lhu	v0,10(a0)
600e68d8:	e049      	addu	v0,s0,v0
600e68da:	cc45      	sh	v0,10(a0)
600e68dc:	ac65      	lhu	v1,10(a0)
600e68de:	ac44      	lhu	v0,8(a0)
600e68e0:	eb43      	sltu	v1,v0
600e68e2:	6115      	btnez	600e690e <callring_frame+0xba>
600e68e4:	6a00      	li	v0,0
600e68e6:	cc45      	sh	v0,10(a0)
600e68e8:	5101      	slti	s1,1
600e68ea:	610b      	btnez	600e6902 <callring_frame+0xae>
600e68ec:	b212      	lw	v0,600e6934 <.L18+0x14>
600e68ee:	a267      	lbu	v1,7(v0)
600e68f0:	3264      	sll	v0,v1,1
600e68f2:	e269      	addu	v0,v1
600e68f4:	324c      	sll	v0,3
600e68f6:	e269      	addu	v0,v1
600e68f8:	3258      	sll	v0,6
600e68fa:	ea3a      	div	zero,v0,s1
600e68fc:	ea12      	mflo	v0
600e68fe:	cc46      	sh	v0,12(a0)
600e6900:	1003      	b	600e6908 <callring_frame+0xb4>
600e6902:	6b06      	li	v1,6
600e6904:	b209      	lw	v0,600e6928 <.L18+0x8>
600e6906:	ca66      	sh	v1,12(v0)
600e6908:	6b01      	li	v1,1
600e690a:	b208      	lw	v0,600e6928 <.L18+0x8>
600e690c:	c26e      	sb	v1,14(v0)
600e690e:	e822      	slt	s0,s1
600e6910:	6007      	bteqz	600e6920 <.L18>
600e6912:	9308      	lw	v1,32(sp)
600e6914:	e311      	addu	a0,v1,s0
600e6916:	6d00      	li	a1,0
600e6918:	e11b      	subu	a2,s1,s0
600e691a:	b205      	lw	v0,600e692c <.L18+0xc>
600e691c:	ea40      	jalr	v0
600e691e:	6f01      	li	a3,1

600e6920 <.L18>:
600e6920:	6750      	move	v0,s0
600e6922:	6474      	restore	32,ra,s0-s1
600e6924:	e8a0      	jrc	ra
600e6926:	0000      	addiu	s0,sp,0
600e6928:	9660      	lw	a2,384(sp)
600e692a:	9fc1      	lw	a2,4(a3)
600e692c:	6005      	bteqz	600e6938 <callring_start>
600e692e:	bfc2      	lwu	a2,8(a3)
600e6930:	6009      	bteqz	600e6944 <callring_start+0xc>
600e6932:	bfc2      	lwu	a2,8(a3)
600e6934:	964c      	lw	a2,304(sp)
600e6936:	9fc1      	lw	a2,4(a3)

600e6938 <callring_start>:
600e6938:	64f6      	save	48,ra,s0-s1
600e693a:	b231      	lw	v0,600e69fc <callring_start+0xc4>
600e693c:	a240      	lbu	v0,0(v0)
600e693e:	2a41      	bnez	v0,600e69c2 <callring_start+0x8a>
600e6940:	b230      	lw	v0,600e6a00 <callring_start+0xc8>
600e6942:	6b01      	li	v1,1
600e6944:	c262      	sb	v1,2(v0)
600e6946:	a240      	lbu	v0,0(v0)
600e6948:	2202      	beqz	v0,600e694e <callring_start+0x16>
600e694a:	b22f      	lw	v0,600e6a04 <callring_start+0xcc>
600e694c:	eac0      	jalrc	v0
600e694e:	0c1f      	la	a0,600e69c8 <callring_start+0x90>
600e6950:	6d00      	li	a1,0
600e6952:	67c5      	move	a2,a1
600e6954:	b12d      	lw	s1,600e6a08 <callring_start+0xd0>
600e6956:	e940      	jalr	s1
600e6958:	6f0d      	li	a3,13
600e695a:	6702      	move	s0,v0
600e695c:	b228      	lw	v0,600e69fc <callring_start+0xc4>
600e695e:	da01      	sw	s0,4(v0)
600e6960:	2808      	bnez	s0,600e6972 <callring_start+0x3a>
600e6962:	0c1e      	la	a0,600e69d8 <callring_start+0xa0>
600e6964:	67b0      	move	a1,s0
600e6966:	67d0      	move	a2,s0
600e6968:	e940      	jalr	s1
600e696a:	6f4b      	li	a3,75
600e696c:	b324      	lw	v1,600e69fc <callring_start+0xc4>
600e696e:	cb04      	sh	s0,8(v1)
600e6970:	100d      	b	600e698c <callring_start+0x54>
600e6972:	b023      	lw	s0,600e69fc <callring_start+0xc4>
600e6974:	9881      	lw	a0,4(s0)
600e6976:	6d00      	li	a1,0
600e6978:	67c5      	move	a2,a1
600e697a:	b124      	lw	s1,600e6a08 <callring_start+0xd0>
600e697c:	e940      	jalr	s1
600e697e:	6f0f      	li	a3,15
600e6980:	9881      	lw	a0,4(s0)
600e6982:	67b0      	move	a1,s0
600e6984:	4d08      	addiu	a1,8
600e6986:	6e02      	li	a2,2
600e6988:	e940      	jalr	s1
600e698a:	6f11      	li	a3,17
600e698c:	b31c      	lw	v1,600e69fc <callring_start+0xc4>
600e698e:	6c00      	li	a0,0
600e6990:	cb85      	sh	a0,10(v1)
600e6992:	6a01      	li	v0,1
600e6994:	ea4b      	neg	v0
600e6996:	c34f      	sb	v0,15(v1)
600e6998:	b21a      	lw	v0,600e6a00 <callring_start+0xc8>
600e699a:	c283      	sb	a0,3(v0)
600e699c:	b21c      	lw	v0,600e6a0c <callring_start+0xd4>
600e699e:	d204      	sw	v0,16(sp)
600e69a0:	6a00      	li	v0,0
600e69a2:	d205      	sw	v0,20(sp)
600e69a4:	b21b      	lw	v0,600e6a10 <callring_start+0xd8>
600e69a6:	d206      	sw	v0,24(sp)
600e69a8:	f4a0 6a10 	li	v0,1200
600e69ac:	677d      	move	v1,sp
600e69ae:	cb4e      	sh	v0,28(v1)
600e69b0:	0404      	addiu	a0,sp,16
600e69b2:	6d03      	li	a1,3
600e69b4:	6eff      	li	a2,255
600e69b6:	b215      	lw	v0,600e6a08 <callring_start+0xd0>
600e69b8:	ea40      	jalr	v0
600e69ba:	6f4a      	li	a3,74
600e69bc:	5200      	slti	v0,0
600e69be:	6001      	bteqz	600e69c2 <callring_start+0x8a>
600e69c0:	17ff      	b	600e69c0 <callring_start+0x88>
600e69c2:	6476      	restore	48,ra,s0-s1
600e69c4:	e8a0      	jrc	ra
600e69c6:	0000      	addiu	s0,sp,0
600e69c8:	6163      	btnez	600e6a90 <callring_thread_handle+0x7c>
600e69ca:	6c6c      	li	a0,108
600e69cc:	6972      	li	s1,114
600e69ce:	676e      	move	v1,t6
600e69d0:	702e      	cmpi	s0,46
600e69d2:	6d63      	li	a1,99
600e69d4:	0000      	addiu	s0,sp,0
600e69d6:	0000      	addiu	s0,sp,0
600e69d8:	453c      	daddiu	s1,a1,-4
600e69da:	203e      	beqz	s0,600e6a58 <callring_thread_handle+0x44>
600e69dc:	6143      	btnez	600e6a64 <callring_thread_handle+0x50>
600e69de:	6e6e      	li	a2,110
600e69e0:	7427      	cmpi	a0,39
600e69e2:	6f20      	li	a3,32
600e69e4:	6570      	move	s3,s0
600e69e6:	206e      	beqz	s0,600e6ac4 <callring_thread_handle+0xb0>
600e69e8:	6966      	li	s1,102
600e69ea:	656c      	move	t3,a0
600e69ec:	6320      	addiu	sp,256
600e69ee:	6c61      	li	a0,97
600e69f0:	726c      	cmpi	v0,108
600e69f2:	6e69      	li	a2,105
600e69f4:	2e67      	bnez	a2,600e6ac4 <callring_thread_handle+0xb0>
600e69f6:	6370      	addiu	sp,896
600e69f8:	216d      	beqz	s1,600e6ad4 <callring_thread_handle+0xc0>
600e69fa:	0000      	addiu	s0,sp,0
600e69fc:	9660      	lw	a2,384(sp)
600e69fe:	9fc1      	lw	a2,4(a3)
600e6a00:	964c      	lw	a2,304(sp)
600e6a02:	9fc1      	lw	a2,4(a3)
600e6a04:	699d      	li	s1,157
600e6a06:	6012      	bteqz	600e6a2c <callring_thread_handle+0x18>
600e6a08:	6009      	bteqz	600e6a1c <callring_thread_handle+0x8>
600e6a0a:	bfc2      	lwu	a2,8(a3)
600e6a0c:	6a15      	li	v0,21
600e6a0e:	600e      	bteqz	600e6a2c <callring_thread_handle+0x18>
600e6a10:	bdf0      	lwu	a3,64(a1)
600e6a12:	9fc1      	lw	a2,4(a3)

600e6a14 <callring_thread_handle>:
600e6a14:	64f5      	save	40,ra,s0-s1
600e6a16:	6a00      	li	v0,0
600e6a18:	d204      	sw	v0,16(sp)
600e6a1a:	6a01      	li	v0,1
600e6a1c:	b385      	lw	v1,600e6c30 <callring_thread_handle+0x21c>
600e6a1e:	c340      	sb	v0,0(v1)
600e6a20:	b285      	lw	v0,600e6c34 <callring_thread_handle+0x220>
600e6a22:	677d      	move	v1,sp
600e6a24:	a370      	lbu	v1,16(v1)
600e6a26:	c262      	sb	v1,2(v0)
600e6a28:	b383      	lw	v1,600e6c34 <callring_thread_handle+0x220>
600e6a2a:	a342      	lbu	v0,2(v1)
600e6a2c:	7201      	cmpi	v0,1
600e6a2e:	6135      	btnez	600e6a9a <callring_thread_handle+0x86>
600e6a30:	9204      	lw	v0,16(sp)
600e6a32:	2a02      	bnez	v0,600e6a38 <callring_thread_handle+0x24>
600e6a34:	6b02      	li	v1,2
600e6a36:	d304      	sw	v1,16(sp)
600e6a38:	9204      	lw	v0,16(sp)
600e6a3a:	7203      	cmpi	v0,3
600e6a3c:	612e      	btnez	600e6a9a <callring_thread_handle+0x86>
600e6a3e:	b37e      	lw	v1,600e6c34 <callring_thread_handle+0x220>
600e6a40:	a343      	lbu	v0,3(v1)
600e6a42:	7202      	cmpi	v0,2
600e6a44:	6115      	btnez	600e6a70 <callring_thread_handle+0x5c>
600e6a46:	b47d      	lw	a0,600e6c38 <callring_thread_handle+0x224>
600e6a48:	6d00      	li	a1,0
600e6a4a:	6eff      	li	a2,255
600e6a4c:	46c1      	addiu	a2,a2,1
600e6a4e:	b27c      	lw	v0,600e6c3c <callring_thread_handle+0x228>
600e6a50:	ea40      	jalr	v0
600e6a52:	6f01      	li	a3,1
600e6a54:	b27b      	lw	v0,600e6c40 <callring_thread_handle+0x22c>
600e6a56:	a240      	lbu	v0,0(v0)
600e6a58:	f0a0 2a17 	bnez	v0,600e6bca <callring_thread_handle+0x1b6>
600e6a5c:	b17a      	lw	s1,600e6c44 <callring_thread_handle+0x230>
600e6a5e:	b079      	lw	s0,600e6c40 <callring_thread_handle+0x22c>
600e6a60:	6c01      	li	a0,1
600e6a62:	6d00      	li	a1,0
600e6a64:	67c5      	move	a2,a1
600e6a66:	e940      	jalr	s1
600e6a68:	6f1d      	li	a3,29
600e6a6a:	a040      	lbu	v0,0(s0)
600e6a6c:	22f9      	beqz	v0,600e6a60 <callring_thread_handle+0x4c>
600e6a6e:	10ad      	b	600e6bca <callring_thread_handle+0x1b6>
600e6a70:	b476      	lw	a0,600e6c48 <callring_thread_handle+0x234>
600e6a72:	6d00      	li	a1,0
600e6a74:	6eff      	li	a2,255
600e6a76:	46c1      	addiu	a2,a2,1
600e6a78:	b271      	lw	v0,600e6c3c <callring_thread_handle+0x228>
600e6a7a:	ea40      	jalr	v0
600e6a7c:	6f01      	li	a3,1
600e6a7e:	b274      	lw	v0,600e6c4c <callring_thread_handle+0x238>
600e6a80:	a240      	lbu	v0,0(v0)
600e6a82:	f0a0 2a02 	bnez	v0,600e6bca <callring_thread_handle+0x1b6>
600e6a86:	b170      	lw	s1,600e6c44 <callring_thread_handle+0x230>
600e6a88:	b071      	lw	s0,600e6c4c <callring_thread_handle+0x238>
600e6a8a:	6c01      	li	a0,1
600e6a8c:	6d00      	li	a1,0
600e6a8e:	67c5      	move	a2,a1
600e6a90:	e940      	jalr	s1
600e6a92:	6f1d      	li	a3,29
600e6a94:	a040      	lbu	v0,0(s0)
600e6a96:	22f9      	beqz	v0,600e6a8a <callring_thread_handle+0x76>
600e6a98:	1098      	b	600e6bca <callring_thread_handle+0x1b6>
600e6a9a:	b267      	lw	v0,600e6c34 <callring_thread_handle+0x220>
600e6a9c:	a223      	lbu	s1,3(v0)
600e6a9e:	293e      	bnez	s1,600e6b1c <callring_thread_handle+0x108>
600e6aa0:	f400 6800 	li	s0,1024
600e6aa4:	b46b      	lw	a0,600e6c50 <callring_thread_handle+0x23c>
600e6aa6:	b26c      	lw	v0,600e6c54 <callring_thread_handle+0x240>
600e6aa8:	ea40      	jalr	v0
600e6aaa:	67b0      	move	a1,s0
600e6aac:	b467      	lw	a0,600e6c48 <callring_thread_handle+0x234>
600e6aae:	b569      	lw	a1,600e6c50 <callring_thread_handle+0x23c>
600e6ab0:	67d0      	move	a2,s0
600e6ab2:	b26a      	lw	v0,600e6c58 <callring_thread_handle+0x244>
600e6ab4:	ea40      	jalr	v0
600e6ab6:	67f1      	move	a3,s1
600e6ab8:	b269      	lw	v0,600e6c5c <callring_thread_handle+0x248>
600e6aba:	a249      	lbu	v0,9(v0)
600e6abc:	7201      	cmpi	v0,1
600e6abe:	611a      	btnez	600e6af4 <callring_thread_handle+0xe0>
600e6ac0:	6c0d      	li	a0,13
600e6ac2:	6d03      	li	a1,3
600e6ac4:	67d1      	move	a2,s1
600e6ac6:	b367      	lw	v1,600e6c60 <callring_thread_handle+0x24c>
600e6ac8:	eb40      	jalr	v1
600e6aca:	6f10      	li	a3,16
600e6acc:	6c30      	li	a0,48
600e6ace:	67b1      	move	a1,s1
600e6ad0:	67d1      	move	a2,s1
600e6ad2:	b364      	lw	v1,600e6c60 <callring_thread_handle+0x24c>
600e6ad4:	eb40      	jalr	v1
600e6ad6:	6f06      	li	a3,6
600e6ad8:	6c08      	li	a0,8
600e6ada:	67b1      	move	a1,s1
600e6adc:	f3e0 6e08 	li	a2,1000
600e6ae0:	b360      	lw	v1,600e6c60 <callring_thread_handle+0x24c>
600e6ae2:	eb40      	jalr	v1
600e6ae4:	6f12      	li	a3,18
600e6ae6:	6c02      	li	a0,2
600e6ae8:	67b1      	move	a1,s1
600e6aea:	67d1      	move	a2,s1
600e6aec:	b35d      	lw	v1,600e6c60 <callring_thread_handle+0x24c>
600e6aee:	eb40      	jalr	v1
600e6af0:	6f04      	li	a3,4
600e6af2:	100c      	b	600e6b0c <callring_thread_handle+0xf8>
600e6af4:	6c08      	li	a0,8
600e6af6:	6d00      	li	a1,0
600e6af8:	67c5      	move	a2,a1
600e6afa:	b35a      	lw	v1,600e6c60 <callring_thread_handle+0x24c>
600e6afc:	eb40      	jalr	v1
600e6afe:	6f06      	li	a3,6
600e6b00:	6c01      	li	a0,1
600e6b02:	6d00      	li	a1,0
600e6b04:	67c5      	move	a2,a1
600e6b06:	b357      	lw	v1,600e6c60 <callring_thread_handle+0x24c>
600e6b08:	eb40      	jalr	v1
600e6b0a:	6f04      	li	a3,4
600e6b0c:	b256      	lw	v0,600e6c64 <callring_thread_handle+0x250>
600e6b0e:	eac0      	jalrc	v0
600e6b10:	b256      	lw	v0,600e6c64 <callring_thread_handle+0x250>
600e6b12:	eac0      	jalrc	v0
600e6b14:	6a03      	li	v0,3
600e6b16:	b348      	lw	v1,600e6c34 <callring_thread_handle+0x220>
600e6b18:	c343      	sb	v0,3(v1)
600e6b1a:	1050      	b	600e6bbc <callring_thread_handle+0x1a8>
600e6b1c:	b146      	lw	s1,600e6c34 <callring_thread_handle+0x220>
600e6b1e:	a143      	lbu	v0,3(s1)
600e6b20:	7203      	cmpi	v0,3
600e6b22:	612e      	btnez	600e6b80 <callring_thread_handle+0x16c>
600e6b24:	b347      	lw	v1,600e6c40 <callring_thread_handle+0x22c>
600e6b26:	a340      	lbu	v0,0(v1)
600e6b28:	7201      	cmpi	v0,1
600e6b2a:	6148      	btnez	600e6bbc <callring_thread_handle+0x1a8>
600e6b2c:	6a00      	li	v0,0
600e6b2e:	c340      	sb	v0,0(v1)
600e6b30:	f200 6800 	li	s0,512
600e6b34:	b447      	lw	a0,600e6c50 <callring_thread_handle+0x23c>
600e6b36:	b248      	lw	v0,600e6c54 <callring_thread_handle+0x240>
600e6b38:	ea40      	jalr	v0
600e6b3a:	67b0      	move	a1,s0
600e6b3c:	b443      	lw	a0,600e6c48 <callring_thread_handle+0x234>
600e6b3e:	b545      	lw	a1,600e6c50 <callring_thread_handle+0x23c>
600e6b40:	67d0      	move	a2,s0
600e6b42:	b246      	lw	v0,600e6c58 <callring_thread_handle+0x244>
600e6b44:	ea40      	jalr	v0
600e6b46:	9704      	lw	a3,16(sp)
600e6b48:	6a02      	li	v0,2
600e6b4a:	c143      	sb	v0,3(s1)
600e6b4c:	b248      	lw	v0,600e6c6c <callring_thread_handle+0x258>
600e6b4e:	a240      	lbu	v0,0(v0)
600e6b50:	2a11      	bnez	v0,600e6b74 <callring_thread_handle+0x160>
600e6b52:	b243      	lw	v0,600e6c5c <callring_thread_handle+0x248>
600e6b54:	a249      	lbu	v0,9(v0)
600e6b56:	7201      	cmpi	v0,1
600e6b58:	610d      	btnez	600e6b74 <callring_thread_handle+0x160>
600e6b5a:	b446      	lw	a0,600e6c70 <callring_thread_handle+0x25c>
600e6b5c:	9c40      	lw	v0,0(a0)
600e6b5e:	6b02      	li	v1,2
600e6b60:	ea6d      	or	v0,v1
600e6b62:	dc40      	sw	v0,0(a0)
600e6b64:	9c40      	lw	v0,0(a0)
600e6b66:	436c      	addiu	v1,v1,-4
600e6b68:	ea6c      	and	v0,v1
600e6b6a:	dc40      	sw	v0,0(a0)
600e6b6c:	9c40      	lw	v0,0(a0)
600e6b6e:	4363      	addiu	v1,v1,3
600e6b70:	ea6d      	or	v0,v1
600e6b72:	dc40      	sw	v0,0(a0)
600e6b74:	9204      	lw	v0,16(sp)
600e6b76:	7202      	cmpi	v0,2
600e6b78:	6121      	btnez	600e6bbc <callring_thread_handle+0x1a8>
600e6b7a:	6b03      	li	v1,3
600e6b7c:	d304      	sw	v1,16(sp)
600e6b7e:	101e      	b	600e6bbc <callring_thread_handle+0x1a8>
600e6b80:	b333      	lw	v1,600e6c4c <callring_thread_handle+0x238>
600e6b82:	a340      	lbu	v0,0(v1)
600e6b84:	7201      	cmpi	v0,1
600e6b86:	611a      	btnez	600e6bbc <callring_thread_handle+0x1a8>
600e6b88:	6a00      	li	v0,0
600e6b8a:	c340      	sb	v0,0(v1)
600e6b8c:	f200 6800 	li	s0,512
600e6b90:	b430      	lw	a0,600e6c50 <callring_thread_handle+0x23c>
600e6b92:	b231      	lw	v0,600e6c54 <callring_thread_handle+0x240>
600e6b94:	ea40      	jalr	v0
600e6b96:	67b0      	move	a1,s0
600e6b98:	b428      	lw	a0,600e6c38 <callring_thread_handle+0x224>
600e6b9a:	b52e      	lw	a1,600e6c50 <callring_thread_handle+0x23c>
600e6b9c:	67d0      	move	a2,s0
600e6b9e:	b22f      	lw	v0,600e6c58 <callring_thread_handle+0x244>
600e6ba0:	ea40      	jalr	v0
600e6ba2:	9704      	lw	a3,16(sp)
600e6ba4:	6a03      	li	v0,3
600e6ba6:	b324      	lw	v1,600e6c34 <callring_thread_handle+0x220>
600e6ba8:	c343      	sb	v0,3(v1)
600e6baa:	9204      	lw	v0,16(sp)
600e6bac:	7202      	cmpi	v0,2
600e6bae:	6102      	btnez	600e6bb4 <callring_thread_handle+0x1a0>
600e6bb0:	6b03      	li	v1,3
600e6bb2:	d304      	sw	v1,16(sp)
600e6bb4:	b32e      	lw	v1,600e6c6c <callring_thread_handle+0x258>
600e6bb6:	a340      	lbu	v0,0(v1)
600e6bb8:	4241      	addiu	v0,v0,1
600e6bba:	c340      	sb	v0,0(v1)
600e6bbc:	6c01      	li	a0,1
600e6bbe:	6d00      	li	a1,0
600e6bc0:	67c5      	move	a2,a1
600e6bc2:	b221      	lw	v0,600e6c44 <callring_thread_handle+0x230>
600e6bc4:	ea40      	jalr	v0
600e6bc6:	6f31      	li	a3,49
600e6bc8:	172f      	b	600e6a28 <callring_thread_handle+0x14>
600e6bca:	6b00      	li	v1,0
600e6bcc:	b228      	lw	v0,600e6c6c <callring_thread_handle+0x258>
600e6bce:	c260      	sb	v1,0(v0)
600e6bd0:	b428      	lw	a0,600e6c70 <callring_thread_handle+0x25c>
600e6bd2:	9c40      	lw	v0,0(a0)
600e6bd4:	6b02      	li	v1,2
600e6bd6:	eb6b      	neg	v1
600e6bd8:	ea6c      	and	v0,v1
600e6bda:	dc40      	sw	v0,0(a0)
600e6bdc:	6c15      	li	a0,21
600e6bde:	6d00      	li	a1,0
600e6be0:	67c5      	move	a2,a1
600e6be2:	b219      	lw	v0,600e6c44 <callring_thread_handle+0x230>
600e6be4:	ea40      	jalr	v0
600e6be6:	67e4      	move	a3,a0
600e6be8:	6c00      	li	a0,0
600e6bea:	67a4      	move	a1,a0
600e6bec:	67c4      	move	a2,a0
600e6bee:	b01d      	lw	s0,600e6c60 <callring_thread_handle+0x24c>
600e6bf0:	e840      	jalr	s0
600e6bf2:	6f05      	li	a3,5
600e6bf4:	b21a      	lw	v0,600e6c5c <callring_thread_handle+0x248>
600e6bf6:	a249      	lbu	v0,9(v0)
600e6bf8:	7201      	cmpi	v0,1
600e6bfa:	6105      	btnez	600e6c06 <callring_thread_handle+0x1f2>
600e6bfc:	6c0d      	li	a0,13
600e6bfe:	6d00      	li	a1,0
600e6c00:	67c5      	move	a2,a1
600e6c02:	e840      	jalr	s0
600e6c04:	6f11      	li	a3,17
600e6c06:	b00b      	lw	s0,600e6c30 <callring_thread_handle+0x21c>
600e6c08:	9881      	lw	a0,4(s0)
600e6c0a:	6d00      	li	a1,0
600e6c0c:	67c5      	move	a2,a1
600e6c0e:	b20e      	lw	v0,600e6c44 <callring_thread_handle+0x230>
600e6c10:	ea40      	jalr	v0
600e6c12:	6f0e      	li	a3,14
600e6c14:	6a00      	li	v0,0
600e6c16:	b308      	lw	v1,600e6c34 <callring_thread_handle+0x220>
600e6c18:	c343      	sb	v0,3(v1)
600e6c1a:	c040      	sb	v0,0(s0)
600e6c1c:	c04e      	sb	v0,14(s0)
600e6c1e:	6c00      	li	a0,0
600e6c20:	67a4      	move	a1,a0
600e6c22:	67c4      	move	a2,a0
600e6c24:	b206      	lw	v0,600e6c3c <callring_thread_handle+0x228>
600e6c26:	ea40      	jalr	v0
600e6c28:	6f0c      	li	a3,12
600e6c2a:	6a00      	li	v0,0
600e6c2c:	6475      	restore	40,ra,s0-s1
600e6c2e:	e8a0      	jrc	ra
600e6c30:	9660      	lw	a2,384(sp)
600e6c32:	9fc1      	lw	a2,4(a3)
600e6c34:	964c      	lw	a2,304(sp)
600e6c36:	9fc1      	lw	a2,4(a3)
600e6c38:	7000      	cmpi	s0,0
600e6c3a:	9fc1      	lw	a2,4(a3)
600e6c3c:	6005      	bteqz	600e6c48 <callring_thread_handle+0x234>
600e6c3e:	bfc2      	lwu	a2,8(a3)
600e6c40:	9811      	lw	s0,68(s0)
600e6c42:	9fc1      	lw	a2,4(a3)
600e6c44:	6009      	bteqz	600e6c58 <callring_thread_handle+0x244>
600e6c46:	bfc2      	lwu	a2,8(a3)
600e6c48:	6c00      	li	a0,0
600e6c4a:	9fc1      	lw	a2,4(a3)
600e6c4c:	9812      	lw	s0,72(s0)
600e6c4e:	9fc1      	lw	a2,4(a3)
600e6c50:	7400      	cmpi	a0,0
600e6c52:	9fc1      	lw	a2,4(a3)
600e6c54:	6855      	li	s0,85
600e6c56:	600e      	bteqz	600e6c74 <callring_dac_dma_config>
600e6c58:	6801      	li	s0,1
600e6c5a:	600e      	bteqz	600e6c78 <callring_dac_dma_config+0x4>
600e6c5c:	a094      	lbu	a0,20(s0)
600e6c5e:	9fc1      	lw	a2,4(a3)
600e6c60:	6001      	bteqz	600e6c64 <callring_thread_handle+0x250>
600e6c62:	bfc2      	lwu	a2,8(a3)
600e6c64:	6c75      	li	a0,117
600e6c66:	600e      	bteqz	600e6c84 <callring_dac_dma_config+0x10>
600e6c68:	64c5      	save	40,ra
600e6c6a:	bfc2      	lwu	a2,8(a3)
600e6c6c:	9810      	lw	s0,64(s0)
600e6c6e:	9fc1      	lw	a2,4(a3)
600e6c70:	0058      	addiu	s0,sp,352
600e6c72:	c00c      	sb	s0,12(s0)

600e6c74 <callring_dac_dma_config>:
600e6c74:	64e3      	save	24,ra,s0


/******************************************************************************
* \par  Description:   启动相关模块，dac,dma等
* \param[in]     null
* \param[out]   null
* \return           none
* \note     
*   <author>       <time>        <opt>
*    Wekan       2015-3-30     reviwe
*******************************************************************************/

void callring_dac_dma_config(void)
{
600e6c76:	b01c      	lw	s0,600e6ce4 <callring_dac_dma_config+0x70>
    //enalbe dac fifo
    //    act_writel(act_readl(DAC_FIFOCTL) | (~(1<<DAC_FIFOCTL_DAF0RT)), DAC_FIFOCTL);
    
    act_writel(0, DMA3CTL);
600e6c78:	6e00      	li	a2,0
600e6c7a:	d8c0      	sw	a2,0(s0)
600e6c7c:	6c15      	li	a0,21
    //enable IRQ
    sys_request_irq(IRQ_DMA3, ring_dma_isr);
600e6c7e:	b51b      	lw	a1,600e6ce8 <callring_dac_dma_config+0x74>
600e6c80:	b21b      	lw	v0,600e6cec <callring_dac_dma_config+0x78>
600e6c82:	ea40      	jalr	v0
600e6c84:	6f14      	li	a3,20
600e6c86:	9840      	lw	v0,0(s0)
    //data width 16bit
    act_writel(act_readl(DMA3CTL) | (1 << DMA3CTL_DATAWIDTH_SHIFT), DMA3CTL);
600e6c88:	f008 6b00 	li	v1,16384
600e6c8c:	ea6d      	or	v0,v1
600e6c8e:	d840      	sw	v0,0(s0)
600e6c90:	9840      	lw	v0,0(s0)
    //source addr type:memory
    act_writel(act_readl(DMA3CTL) | (0 << DMA3CTL_SRCTYPE_SHIFT), DMA3CTL);
600e6c92:	d840      	sw	v0,0(s0)
600e6c94:	b217      	lw	v0,600e6cf0 <callring_dac_dma_config+0x7c>
    //dest addr type:dac fifo0
    if(1 == g_app_info_state_all.fix_sample_rate_flag)
600e6c96:	a249      	lbu	v0,9(v0)
600e6c98:	7201      	cmpi	v0,1
600e6c9a:	6106      	btnez	600e6ca8 <callring_dac_dma_config+0x34>
600e6c9c:	9840      	lw	v0,0(s0)
    {
        act_writel(act_readl(DMA3CTL) | (13 << DMA3CTL_DSTTYPE_SHIFT), DMA3CTL);
600e6c9e:	f519 4b00 	addiu	v1,-13056
600e6ca2:	ea6d      	or	v0,v1
600e6ca4:	d840      	sw	v0,0(s0)
600e6ca6:	1006      	b	600e6cb4 <callring_dac_dma_config+0x40>
600e6ca8:	b20f      	lw	v0,600e6ce4 <callring_dac_dma_config+0x70>
    }
    else
    {
        act_writel(act_readl(DMA3CTL) | (11 << DMA3CTL_DSTTYPE_SHIFT), DMA3CTL);
600e6caa:	9a60      	lw	v1,0(v0)
600e6cac:	f301 6c00 	li	a0,2816
600e6cb0:	eb8d      	or	v1,a0
600e6cb2:	da60      	sw	v1,0(v0)
600e6cb4:	b311      	lw	v1,600e6cf8 <callring_dac_dma_config+0x84>
    }
    //reload enable
    //act_writel(act_readl(DMA3CTL) | (1 << DMA3CTL_reload), DMA3CTL);
    //source address
    act_writel((uint32)g_btcall_callring_dac_buf, DMA3SADDR0);
600e6cb6:	b210      	lw	v0,600e6cf4 <callring_dac_dma_config+0x80>
600e6cb8:	da60      	sw	v1,0(v0)
600e6cba:	f400 6b00 	li	v1,1024
    //dma length
    act_writel(CALLRING_DAC_BUFFER_LENGTH / 2, DMA3FrameLen);
600e6cbe:	b210      	lw	v0,600e6cfc <callring_dac_dma_config+0x88>
600e6cc0:	da60      	sw	v1,0(v0)
600e6cc2:	b310      	lw	v1,600e6d00 <callring_dac_dma_config+0x8c>
    //enable dma0 half & full trans interupt
    act_writel(act_readl(DMAIP)|0x00000808, DMAIP);
600e6cc4:	9b40      	lw	v0,0(v1)
600e6cc6:	f001 6c08 	li	a0,2056
600e6cca:	ea8d      	or	v0,a0
600e6ccc:	db40      	sw	v0,0(v1)
600e6cce:	b30e      	lw	v1,600e6d04 <callring_dac_dma_config+0x90>
    act_writel(act_readl(DMAIE)|0x00000808, DMAIE);
600e6cd0:	9b40      	lw	v0,0(v1)
600e6cd2:	ea8d      	or	v0,a0
600e6cd4:	db40      	sw	v0,0(v1)
600e6cd6:	b40d      	lw	a0,600e6d08 <callring_dac_dma_config+0x94>
    
    //enalbe DAC FIFO Empty DRQ
    act_writel(act_readl(DAC_FIFOCTL) | (1 << DAC_FIFOCTL_DAF0EDE), DAC_FIFOCTL);
600e6cd8:	9c40      	lw	v0,0(a0)
600e6cda:	6b02      	li	v1,2
600e6cdc:	ea6d      	or	v0,v1
600e6cde:	dc40      	sw	v0,0(a0)
600e6ce0:	6463      	restore	24,ra,s0
    //enable transfer
    //act_writel(act_readl(DMA0CTL)|(1 << DMA0CTL_DMA0START), DMA0CTL);
}
600e6ce2:	e8a0      	jrc	ra
600e6ce4:	0058      	addiu	s0,sp,352
600e6ce6:	c00c      	sb	s0,12(s0)
600e6ce8:	6641      	0x6641
600e6cea:	bfc2      	lwu	a2,8(a3)
600e6cec:	6009      	bteqz	600e6d00 <callring_dac_dma_config+0x8c>
600e6cee:	bfc2      	lwu	a2,8(a3)
600e6cf0:	a094      	lbu	a0,20(s0)
600e6cf2:	9fc1      	lw	a2,4(a3)
600e6cf4:	005c      	addiu	s0,sp,368
600e6cf6:	c00c      	sb	s0,12(s0)
600e6cf8:	6c00      	li	a0,0
600e6cfa:	9fc1      	lw	a2,4(a3)
600e6cfc:	006c      	addiu	s0,sp,432
600e6cfe:	c00c      	sb	s0,12(s0)
600e6d00:	0004      	addiu	s0,sp,16
600e6d02:	c00c      	sb	s0,12(s0)
600e6d04:	0008      	addiu	s0,sp,32
600e6d06:	c00c      	sb	s0,12(s0)
600e6d08:	0004      	addiu	s0,sp,16
600e6d0a:	c005      	sb	s0,5(s0)
Disassembly of section BANK_CONTROL_1_4:

60126800 <btcalleg_load_hfp_mmm>:
60126800:	64e8      	save	64,ra,s0
 * \  Cailizhen          2015-1          creat
 * \   Wekan       2015-3-30     reviwe
 *******************************************************************************/
void btcalleg_load_hfp_mmm(void)
{
60126802:	b05e      	lw	s0,60126978 <btcalleg_load_hfp_mmm+0x178>
    int mr_ret;
    char *mmm_name =
    { "mmm_hfp.al" };
    sv_configs_t *asqt_parm;

    //for mic config
    mmm_mr_ain_setting_t hfp_mic_cfg;

    mmm_hfp_aout_setting_t hfp_dac_cfg;

    hfp_mic_cfg.input_source = (uint8) com_get_config_default(SETTING_AUDIO_INPUT_CHANNAL);
60126804:	e840      	jalr	s0
60126806:	6c2a      	li	a0,42
60126808:	ea11      	zeb	v0
6012680a:	d204      	sw	v0,16(sp)
6012680c:	6cff      	li	a0,255

    hfp_mic_cfg.input_gain = (uint8) com_get_config_default(BTCALL_MICIN_OP_GAIN);
6012680e:	e840      	jalr	s0
60126810:	4c75      	addiu	a0,117
60126812:	ea11      	zeb	v0
60126814:	d207      	sw	v0,28(sp)
60126816:	6cff      	li	a0,255

    hfp_mic_cfg.adc_gain = (uint8) com_get_config_default(BTCALL_MICIN_ADC_GAIN);
60126818:	e840      	jalr	s0
6012681a:	4c76      	addiu	a0,118
6012681c:	ea11      	zeb	v0
6012681e:	d208      	sw	v0,32(sp)
60126820:	6a08      	li	v0,8

    hfp_dac_cfg.default_samplerate = 8;
60126822:	d20b      	sw	v0,44(sp)
60126824:	b256      	lw	v0,6012697c <btcalleg_load_hfp_mmm+0x17c>

    if ((btcall_gl_var.stub_asqt_en == 0) && (g_stub_tools_type == 0))
60126826:	a24c      	lbu	v0,12(v0)
60126828:	2a06      	bnez	v0,60126836 <btcalleg_load_hfp_mmm+0x36>
6012682a:	b256      	lw	v0,60126980 <btcalleg_load_hfp_mmm+0x180>
6012682c:	a240      	lbu	v0,0(v0)
6012682e:	2a03      	bnez	v0,60126836 <btcalleg_load_hfp_mmm+0x36>
60126830:	4a10      	addiu	v0,16
    {
        hfp_dac_cfg.drive_mode = K_OUT0_U0_IN_U1;
60126832:	d20a      	sw	v0,40(sp)
60126834:	1002      	b	6012683a <btcalleg_load_hfp_mmm+0x3a>
60126836:	6a0f      	li	v0,15
    }
    else
    {
        hfp_dac_cfg.drive_mode = K_OUT0_U0_IN_P2;
60126838:	d20a      	sw	v0,40(sp)
6012683a:	b253      	lw	v0,60126984 <btcalleg_load_hfp_mmm+0x184>
    }
    asqt_parm = asqt_set_dsp_init_parm();
6012683c:	eac0      	jalrc	v0
6012683e:	6762      	move	v1,v0
60126840:	2204      	beqz	v0,6012684a <btcalleg_load_hfp_mmm+0x4a>
    if(asqt_parm != NULL)
60126842:	9a40      	lw	v0,0(v0)
    {
        //如果ASQT使能，使用pc-tool的参数
        hfp_mic_cfg.input_gain = asqt_parm->mic_op_gain;
60126844:	d207      	sw	v0,28(sp)
60126846:	9b41      	lw	v0,4(v1)
        hfp_mic_cfg.adc_gain  =   asqt_parm->mic_adc_gain;
60126848:	d208      	sw	v0,32(sp)
6012684a:	6c03      	li	a0,3
    }
    adjust_freq_set_level(AP_BACK_HIGH_PRIO, FREQ_LEVEL5, FREQ_LEVEL8);
6012684c:	f001 6d05 	li	a1,2053
60126850:	6e00      	li	a2,0
60126852:	b24e      	lw	v0,60126988 <btcalleg_load_hfp_mmm+0x188>
60126854:	ea40      	jalr	v0
60126856:	67e4      	move	a3,a0
60126858:	0c2a      	la	a0,60126900 <btcalleg_load_hfp_mmm+0x100>
    //加载HFP中间件驱动
    sys_load_mmm(mmm_name, TRUE);
6012685a:	6d01      	li	a1,1
6012685c:	6e00      	li	a2,0
6012685e:	b04c      	lw	s0,6012698c <btcalleg_load_hfp_mmm+0x18c>
60126860:	e840      	jalr	s0
60126862:	6f02      	li	a3,2
60126864:	b44b      	lw	a0,60126990 <btcalleg_load_hfp_mmm+0x190>

    mr_ret = (int) mmm_hfp_cmd(&mp_handle, MMM_HFP_OPEN, 0);
60126866:	6d00      	li	a1,0
60126868:	b24b      	lw	v0,60126994 <btcalleg_load_hfp_mmm+0x194>
6012686a:	ea40      	jalr	v0
6012686c:	67c5      	move	a2,a1
6012686e:	ea4f      	not	v0

    if (mr_ret == -1)
60126870:	2a05      	bnez	v0,6012687c <btcalleg_load_hfp_mmm+0x7c>
60126872:	0c27      	la	a0,6012690c <btcalleg_load_hfp_mmm+0x10c>
    {
        PRINT_ERR("hfp open fail!\n");
60126874:	6d00      	li	a1,0
60126876:	67c5      	move	a2,a1
60126878:	e840      	jalr	s0
6012687a:	6f4b      	li	a3,75
6012687c:	b247      	lw	v0,60126998 <btcalleg_load_hfp_mmm+0x198>
    }
    if(1 == g_app_info_state_all.fix_sample_rate_flag)
6012687e:	a249      	lbu	v0,9(v0)
60126880:	7201      	cmpi	v0,1
60126882:	6105      	btnez	6012688e <btcalleg_load_hfp_mmm+0x8e>
60126884:	b443      	lw	a0,60126990 <btcalleg_load_hfp_mmm+0x190>
    {
        mmm_hfp_cmd(&mp_handle, MMM_HFP_FIX_SAMPLE_RATE, 0);
60126886:	6d09      	li	a1,9
60126888:	b243      	lw	v0,60126994 <btcalleg_load_hfp_mmm+0x194>
6012688a:	ea40      	jalr	v0
6012688c:	6e00      	li	a2,0
6012688e:	b241      	lw	v0,60126990 <btcalleg_load_hfp_mmm+0x190>
    }

    //must aout open first then ain open

    mr_ret = (int) mmm_hfp_cmd(mp_handle, MMM_HFP_AOUT_OPEN, (unsigned int) &hfp_dac_cfg);
60126890:	9a80      	lw	a0,0(v0)
60126892:	6d01      	li	a1,1
60126894:	b240      	lw	v0,60126994 <btcalleg_load_hfp_mmm+0x194>
60126896:	ea40      	jalr	v0
60126898:	060a      	addiu	a2,sp,40
6012689a:	ea4f      	not	v0

    if (mr_ret == -1)
6012689c:	2a06      	bnez	v0,601268aa <btcalleg_load_hfp_mmm+0xaa>
6012689e:	0c21      	la	a0,60126920 <btcalleg_load_hfp_mmm+0x120>
    {
        PRINT_ERR("hfp aoutopen fail!\n");
601268a0:	6d00      	li	a1,0
601268a2:	67c5      	move	a2,a1
601268a4:	b23a      	lw	v0,6012698c <btcalleg_load_hfp_mmm+0x18c>
601268a6:	ea40      	jalr	v0
601268a8:	6f4b      	li	a3,75
601268aa:	b23a      	lw	v0,60126990 <btcalleg_load_hfp_mmm+0x190>
    }

    mr_ret = (int) mmm_hfp_cmd(mp_handle, MMM_HFP_AIN_OPEN, (unsigned int) &hfp_mic_cfg);
601268ac:	9a80      	lw	a0,0(v0)
601268ae:	6d02      	li	a1,2
601268b0:	b239      	lw	v0,60126994 <btcalleg_load_hfp_mmm+0x194>
601268b2:	ea40      	jalr	v0
601268b4:	0604      	addiu	a2,sp,16
601268b6:	ea4f      	not	v0

    if (mr_ret == -1)
601268b8:	2a06      	bnez	v0,601268c6 <btcalleg_load_hfp_mmm+0xc6>
601268ba:	0c20      	la	a0,60126938 <btcalleg_load_hfp_mmm+0x138>
    {
        PRINT_ERR("hfp ainopen fail!\n");
601268bc:	6d00      	li	a1,0
601268be:	67c5      	move	a2,a1
601268c0:	b233      	lw	v0,6012698c <btcalleg_load_hfp_mmm+0x18c>
601268c2:	ea40      	jalr	v0
601268c4:	6f4b      	li	a3,75
601268c6:	b233      	lw	v0,60126990 <btcalleg_load_hfp_mmm+0x190>
    }

    mr_ret = (int) mmm_hfp_cmd(mp_handle, MMM_HFP_PLAY, 0);
601268c8:	9a80      	lw	a0,0(v0)
601268ca:	6d03      	li	a1,3
601268cc:	b232      	lw	v0,60126994 <btcalleg_load_hfp_mmm+0x194>
601268ce:	ea40      	jalr	v0
601268d0:	6e00      	li	a2,0
601268d2:	ea4f      	not	v0

    if (mr_ret == -1)
601268d4:	2a07      	bnez	v0,601268e4 <btcalleg_load_hfp_mmm+0xe4>
601268d6:	0c1f      	la	a0,60126950 <btcalleg_load_hfp_mmm+0x150>
    {
        PRINT_ERR("hfp play fail!\n");
601268d8:	6d00      	li	a1,0
601268da:	67c5      	move	a2,a1
601268dc:	b22c      	lw	v0,6012698c <btcalleg_load_hfp_mmm+0x18c>
601268de:	ea40      	jalr	v0
601268e0:	6f4b      	li	a3,75
601268e2:	1006      	b	601268f0 <btcalleg_load_hfp_mmm+0xf0>
601268e4:	0c20      	la	a0,60126964 <btcalleg_load_hfp_mmm+0x164>
    }
    else
    {
        PRINT_INFO("hfp play ok!\n");
601268e6:	6d00      	li	a1,0
601268e8:	67c5      	move	a2,a1
601268ea:	b229      	lw	v0,6012698c <btcalleg_load_hfp_mmm+0x18c>
601268ec:	ea40      	jalr	v0
601268ee:	6f4b      	li	a3,75
601268f0:	b223      	lw	v0,6012697c <btcalleg_load_hfp_mmm+0x17c>
    }

    btcall_gl_var.g_sco_deal_flag = 1;
601268f2:	6b01      	li	v1,1
601268f4:	c260      	sb	v1,0(v0)
601268f6:	6b00      	li	v1,0
    btcall_gl_var.need_exit_thread = FALSE;
601268f8:	c262      	sb	v1,2(v0)
601268fa:	6468      	restore	64,ra,s0

}
601268fc:	e8a0      	jrc	ra
601268fe:	0000      	addiu	s0,sp,0
60126900:	6d6d      	li	a1,109
60126902:	5f6d      	sltiu	a3,109
60126904:	6668      	0x6668
60126906:	2e70      	bnez	a2,601269e8 <btcalleg_free_hfp_mmm+0x4c>
60126908:	6c61      	li	a0,97
6012690a:	0000      	addiu	s0,sp,0
6012690c:	453c      	daddiu	s1,a1,-4
6012690e:	203e      	beqz	s0,6012698c <btcalleg_load_hfp_mmm+0x18c>
60126910:	6668      	0x6668
60126912:	2070      	beqz	s0,601269f4 <btcalleg_free_hfp_mmm+0x58>
60126914:	706f      	cmpi	s0,111
60126916:	6e65      	li	a2,101
60126918:	6620      	0x6620
6012691a:	6961      	li	s1,97
6012691c:	216c      	beqz	s1,601269f6 <btcalleg_free_hfp_mmm+0x5a>
6012691e:	000a      	addiu	s0,sp,40
60126920:	453c      	daddiu	s1,a1,-4
60126922:	203e      	beqz	s0,601269a0 <btcalleg_free_hfp_mmm+0x4>
60126924:	6668      	0x6668
60126926:	2070      	beqz	s0,60126a08 <btcalleg_free_hfp_mmm+0x6c>
60126928:	6f61      	li	a3,97
6012692a:	7475      	cmpi	a0,117
6012692c:	706f      	cmpi	s0,111
6012692e:	6e65      	li	a2,101
60126930:	6620      	0x6620
60126932:	6961      	li	s1,97
60126934:	216c      	beqz	s1,60126a0e <btcalleg_free_hfp_mmm+0x72>
60126936:	000a      	addiu	s0,sp,40
60126938:	453c      	daddiu	s1,a1,-4
6012693a:	203e      	beqz	s0,601269b8 <btcalleg_free_hfp_mmm+0x1c>
6012693c:	6668      	0x6668
6012693e:	2070      	beqz	s0,60126a20 <btcalleg_free_hfp_mmm+0x84>
60126940:	6961      	li	s1,97
60126942:	6f6e      	li	a3,110
60126944:	6570      	move	s3,s0
60126946:	206e      	beqz	s0,60126a24 <btcalleg_free_hfp_mmm+0x88>
60126948:	6166      	btnez	60126a16 <btcalleg_free_hfp_mmm+0x7a>
6012694a:	6c69      	li	a0,105
6012694c:	0a21      	la	v0,601269d0 <btcalleg_free_hfp_mmm+0x34>
6012694e:	0000      	addiu	s0,sp,0
60126950:	453c      	daddiu	s1,a1,-4
60126952:	203e      	beqz	s0,601269d0 <btcalleg_free_hfp_mmm+0x34>
60126954:	6668      	0x6668
60126956:	2070      	beqz	s0,60126a38 <bt_engine_hfp_sco_connect_ind_handle+0x4>
60126958:	6c70      	li	a0,112
6012695a:	7961      	sd	v1,8(s1)
6012695c:	6620      	0x6620
6012695e:	6961      	li	s1,97
60126960:	216c      	beqz	s1,60126a3a <bt_engine_hfp_sco_connect_ind_handle+0x6>
60126962:	000a      	addiu	s0,sp,40
60126964:	493c      	addiu	s1,60
60126966:	203e      	beqz	s0,601269e4 <btcalleg_free_hfp_mmm+0x48>
60126968:	6668      	0x6668
6012696a:	2070      	beqz	s0,60126a4c <bt_engine_hfp_sco_connect_ind_handle+0x18>
6012696c:	6c70      	li	a0,112
6012696e:	7961      	sd	v1,8(s1)
60126970:	6f20      	li	a3,32
60126972:	216b      	beqz	s1,60126a4a <bt_engine_hfp_sco_connect_ind_handle+0x16>
60126974:	000a      	addiu	s0,sp,40
60126976:	0000      	addiu	s0,sp,0
60126978:	68bd      	li	s0,189
6012697a:	60a6      	bteqz	601268c8 <btcalleg_load_hfp_mmm+0xc8>
6012697c:	964c      	lw	a2,304(sp)
6012697e:	9fc1      	lw	a2,4(a3)
60126980:	95a8      	lw	a1,672(sp)
60126982:	9fc1      	lw	a2,4(a3)
60126984:	6935      	li	s1,53
60126986:	6016      	bteqz	601269b4 <btcalleg_free_hfp_mmm+0x18>
60126988:	6011      	bteqz	601269ac <btcalleg_free_hfp_mmm+0x10>
6012698a:	bfc2      	lwu	a2,8(a3)
6012698c:	6009      	bteqz	601269a0 <btcalleg_free_hfp_mmm+0x4>
6012698e:	bfc2      	lwu	a2,8(a3)
60126990:	965c      	lw	a2,368(sp)
60126992:	9fc1      	lw	a2,4(a3)
60126994:	6015      	bteqz	601269c0 <btcalleg_free_hfp_mmm+0x24>
60126996:	bfc2      	lwu	a2,8(a3)
60126998:	a094      	lbu	a0,20(s0)
6012699a:	9fc1      	lw	a2,4(a3)

6012699c <btcalleg_free_hfp_mmm>:
6012699c:	64f4      	save	32,ra,s0-s1

/******************************************************************************
 * \  par  Description:   卸载中间件
 * \  param[in]     null0
 * \  param[out]   null
 * \  return           null
 * \  note
 * \  <author>       <time>        <opt>
 * \  Cailizhen          2015-1          creat
 * \   Wekan       2015-3-30     reviwe
 *******************************************************************************/

void btcalleg_free_hfp_mmm(void)
{
6012699e:	b121      	lw	s1,60126a20 <btcalleg_free_hfp_mmm+0x84>
    if (mp_handle != NULL)
601269a0:	9980      	lw	a0,0(s1)
601269a2:	241d      	beqz	a0,601269de <btcalleg_free_hfp_mmm+0x42>
601269a4:	6d05      	li	a1,5
    {
        mmm_hfp_cmd(mp_handle, MMM_HFP_STOP_PLAY, (unsigned int) NULL);
601269a6:	b020      	lw	s0,60126a24 <btcalleg_free_hfp_mmm+0x88>
601269a8:	e840      	jalr	s0
601269aa:	6e00      	li	a2,0
601269ac:	9980      	lw	a0,0(s1)

        mmm_hfp_cmd(mp_handle, MMM_HFP_AIN_CLOSE, (unsigned int) NULL);
601269ae:	6d06      	li	a1,6
601269b0:	e840      	jalr	s0
601269b2:	6e00      	li	a2,0
601269b4:	9980      	lw	a0,0(s1)

        mmm_hfp_cmd(mp_handle, MMM_HFP_AOUT_CLOSE, (unsigned int) NULL);
601269b6:	6d07      	li	a1,7
601269b8:	e840      	jalr	s0
601269ba:	6e00      	li	a2,0
601269bc:	9980      	lw	a0,0(s1)

        //关闭中间件设备
        mmm_hfp_cmd(mp_handle, MMM_HFP_CLOSE, (unsigned int) NULL);
601269be:	6d08      	li	a1,8
601269c0:	e840      	jalr	s0
601269c2:	6e00      	li	a2,0
601269c4:	0c0f      	la	a0,60126a00 <btcalleg_free_hfp_mmm+0x64>

        PRINT_INFO("hfp close!\n");
601269c6:	6d00      	li	a1,0
601269c8:	67c5      	move	a2,a1
601269ca:	b018      	lw	s0,60126a28 <btcalleg_free_hfp_mmm+0x8c>
601269cc:	e840      	jalr	s0
601269ce:	6f4b      	li	a3,75
601269d0:	6c01      	li	a0,1

        //卸载hfp驱动
        sys_free_mmm(TRUE);
601269d2:	6d00      	li	a1,0
601269d4:	67c5      	move	a2,a1
601269d6:	e840      	jalr	s0
601269d8:	6f06      	li	a3,6
601269da:	6a00      	li	v0,0
        mp_handle = NULL;
601269dc:	d940      	sw	v0,0(s1)
601269de:	6c03      	li	a0,3
    }

    adjust_freq_set_level(AP_BACK_HIGH_PRIO, FREQ_NULL, FREQ_NULL);
601269e0:	6d00      	li	a1,0
601269e2:	67c5      	move	a2,a1
601269e4:	b212      	lw	v0,60126a2c <btcalleg_free_hfp_mmm+0x90>
601269e6:	ea40      	jalr	v0
601269e8:	67e4      	move	a3,a0
601269ea:	0c0a      	la	a0,60126a10 <btcalleg_free_hfp_mmm+0x74>

    PRINT_INFO("hfp exit!\n");
601269ec:	6d00      	li	a1,0
601269ee:	67c5      	move	a2,a1
601269f0:	b20e      	lw	v0,60126a28 <btcalleg_free_hfp_mmm+0x8c>
601269f2:	ea40      	jalr	v0
601269f4:	6f4b      	li	a3,75
601269f6:	6b00      	li	v1,0

    btcall_gl_var.g_sco_deal_flag = 0;
601269f8:	b20e      	lw	v0,60126a30 <btcalleg_free_hfp_mmm+0x94>
601269fa:	c260      	sb	v1,0(v0)
601269fc:	6474      	restore	32,ra,s0-s1
}
601269fe:	e8a0      	jrc	ra
60126a00:	493c      	addiu	s1,60
60126a02:	203e      	beqz	s0,60126a80 <bt_engine_hfp_sco_connect_ind_handle+0x4c>
60126a04:	6668      	0x6668
60126a06:	2070      	beqz	s0,60126ae8 <bt_engine_hfp_sco_disconnect_ind_handle+0x4c>
60126a08:	6c63      	li	a0,99
60126a0a:	736f      	cmpi	v1,111
60126a0c:	2165      	beqz	s1,60126ad8 <bt_engine_hfp_sco_disconnect_ind_handle+0x3c>
60126a0e:	000a      	addiu	s0,sp,40
60126a10:	493c      	addiu	s1,60
60126a12:	203e      	beqz	s0,60126a90 <bt_engine_hfp_sco_connect_ind_handle+0x5c>
60126a14:	6668      	0x6668
60126a16:	2070      	beqz	s0,60126af8 <bt_engine_hfp_sco_disconnect_ind_handle+0x5c>
60126a18:	7865      	sd	v1,40(s0)
60126a1a:	7469      	cmpi	a0,105
60126a1c:	0a21      	la	v0,60126aa0 <bt_engine_hfp_sco_disconnect_ind_handle+0x4>
60126a1e:	0000      	addiu	s0,sp,0
60126a20:	965c      	lw	a2,368(sp)
60126a22:	9fc1      	lw	a2,4(a3)
60126a24:	6015      	bteqz	60126a50 <bt_engine_hfp_sco_connect_ind_handle+0x1c>
60126a26:	bfc2      	lwu	a2,8(a3)
60126a28:	6009      	bteqz	60126a3c <bt_engine_hfp_sco_connect_ind_handle+0x8>
60126a2a:	bfc2      	lwu	a2,8(a3)
60126a2c:	6011      	bteqz	60126a50 <bt_engine_hfp_sco_connect_ind_handle+0x1c>
60126a2e:	bfc2      	lwu	a2,8(a3)
60126a30:	964c      	lw	a2,304(sp)
60126a32:	9fc1      	lw	a2,4(a3)

60126a34 <bt_engine_hfp_sco_connect_ind_handle>:
60126a34:	64f4      	save	32,ra,s0-s1

/******************************************************************************
 * \  par  Description:   创建soc链路
 * \  param[in]     null0
 * \  param[out]   null
 * \  return           null
 * \  note
 * \  <author>       <time>        <opt>
 * \  Cailizhen          2015-1          creat
 * \   Wekan       2015-3-30     reviwe
 *******************************************************************************/

void bt_engine_hfp_sco_connect_ind_handle(void)
{
60126a36:	b315      	lw	v1,60126a88 <bt_engine_hfp_sco_connect_ind_handle+0x54>
    if ((btcall_gl_var.g_sco_deal_flag == 1) || (btcall_gl_var.tts_play_flag == 1))
60126a38:	a340      	lbu	v0,0(v1)
60126a3a:	7201      	cmpi	v0,1
60126a3c:	6022      	bteqz	60126a82 <bt_engine_hfp_sco_connect_ind_handle+0x4e>
60126a3e:	a344      	lbu	v0,4(v1)
60126a40:	7201      	cmpi	v0,1
60126a42:	601f      	bteqz	60126a82 <bt_engine_hfp_sco_connect_ind_handle+0x4e>
60126a44:	a346      	lbu	v0,6(v1)
    {
        return;
    }

    if (btcall_gl_var.callin_ring_mode != CALLIN_RING_MODE_ONLY_PB)
60126a46:	7201      	cmpi	v0,1
60126a48:	601a      	bteqz	60126a7e <bt_engine_hfp_sco_connect_ind_handle+0x4a>
60126a4a:	b011      	lw	s0,60126a8c <bt_engine_hfp_sco_connect_ind_handle+0x58>
    {
        if (g_callring_data.callring_timer_id != -1)
60126a4c:	808f      	lb	a0,15(s0)
60126a4e:	ea8f      	not	v0,a0
60126a50:	2205      	beqz	v0,60126a5c <bt_engine_hfp_sco_connect_ind_handle+0x28>
60126a52:	b210      	lw	v0,60126a90 <bt_engine_hfp_sco_connect_ind_handle+0x5c>
        {
            kill_app_timer(g_callring_data.callring_timer_id);
60126a54:	eac0      	jalrc	v0
60126a56:	6a01      	li	v0,1
60126a58:	ea4b      	neg	v0
60126a5a:	c04f      	sb	v0,15(s0)
            g_callring_data.callring_timer_id = -1;
60126a5c:	b20c      	lw	v0,60126a8c <bt_engine_hfp_sco_connect_ind_handle+0x58>
        }

        if (g_callring_data.callring_thread_exist == 1)
60126a5e:	a280      	lbu	a0,0(v0)
60126a60:	7401      	cmpi	a0,1
60126a62:	610d      	btnez	60126a7e <bt_engine_hfp_sco_connect_ind_handle+0x4a>
60126a64:	6b01      	li	v1,1
        {
            btcall_gl_var.need_exit_thread = TRUE;
60126a66:	b209      	lw	v0,60126a88 <bt_engine_hfp_sco_connect_ind_handle+0x54>
60126a68:	c262      	sb	v1,2(v0)
60126a6a:	2409      	beqz	a0,60126a7e <bt_engine_hfp_sco_connect_ind_handle+0x4a>
            while (g_callring_data.callring_thread_exist != 0)
            {
                sys_os_time_dly(1);
60126a6c:	b10a      	lw	s1,60126a94 <bt_engine_hfp_sco_connect_ind_handle+0x60>
60126a6e:	b008      	lw	s0,60126a8c <bt_engine_hfp_sco_connect_ind_handle+0x58>
60126a70:	6c01      	li	a0,1
60126a72:	6d00      	li	a1,0
60126a74:	67c5      	move	a2,a1
60126a76:	e940      	jalr	s1
60126a78:	6f31      	li	a3,49
60126a7a:	a040      	lbu	v0,0(s0)
60126a7c:	2af9      	bnez	v0,60126a70 <bt_engine_hfp_sco_connect_ind_handle+0x3c>
60126a7e:	b207      	lw	v0,60126a98 <bt_engine_hfp_sco_connect_ind_handle+0x64>
            }
        }
    }
    btcalleg_load_hfp_mmm();
60126a80:	eac0      	jalrc	v0
60126a82:	6474      	restore	32,ra,s0-s1
    /*有些手机创建了sco链路,但是controller没有发sco包,
     加个定时器判断是否有sco包,如果没有,主动断开sco连接*/
    //    set_single_shot_app_timer(APP_TIMER_ATTRB_CONTROL, 2000, (timer_proc) check_disconnect_sco_link);
}
60126a84:	e8a0      	jrc	ra
60126a86:	0000      	addiu	s0,sp,0
60126a88:	964c      	lw	a2,304(sp)
60126a8a:	9fc1      	lw	a2,4(a3)
60126a8c:	9660      	lw	a2,384(sp)
60126a8e:	9fc1      	lw	a2,4(a3)
60126a90:	6c0d      	li	a0,13
60126a92:	60a2      	bteqz	601269d8 <btcalleg_free_hfp_mmm+0x3c>
60126a94:	6009      	bteqz	60126aa8 <bt_engine_hfp_sco_disconnect_ind_handle+0xc>
60126a96:	bfc2      	lwu	a2,8(a3)
60126a98:	6801      	li	s0,1
60126a9a:	6012      	bteqz	60126ac0 <bt_engine_hfp_sco_disconnect_ind_handle+0x24>

60126a9c <bt_engine_hfp_sco_disconnect_ind_handle>:
60126a9c:	64c3      	save	24,ra

/******************************************************************************
 * \  par  Description:  断开soc链路
 * \  param[in]     null0
 * \  param[out]   null
 * \  return           null
 * \  note
 * \  <author>       <time>        <opt>
 * \  Cailizhen          2015-1          creat
 * \   Wekan       2015-3-30     reviwe
 *******************************************************************************/

void bt_engine_hfp_sco_disconnect_ind_handle(void)
{
60126a9e:	b204      	lw	v0,60126aac <bt_engine_hfp_sco_disconnect_ind_handle+0x10>
    if (btcall_gl_var.g_sco_deal_flag != 0)
60126aa0:	a240      	lbu	v0,0(v0)
60126aa2:	2202      	beqz	v0,60126aa8 <bt_engine_hfp_sco_disconnect_ind_handle+0xc>
60126aa4:	b203      	lw	v0,60126ab0 <bt_engine_hfp_sco_disconnect_ind_handle+0x14>
    {
        btcalleg_free_hfp_mmm();
60126aa6:	eac0      	jalrc	v0
60126aa8:	6443      	restore	24,ra
    }
}
60126aaa:	e8a0      	jrc	ra
60126aac:	964c      	lw	a2,304(sp)
60126aae:	9fc1      	lw	a2,4(a3)
60126ab0:	699d      	li	s1,157
60126ab2:	6012      	bteqz	60126ad8 <bt_engine_hfp_sco_disconnect_ind_handle+0x3c>
Disassembly of section BANK_CONTROL_1_5:

60166800 <show_dat>:
60166800:	f00c 64f4 	save	a0-a2,32,ra,s0-s1
//dsp默认参数
const int dsp_init_set[]={16,8000,  1,64,  1,6,15,  1,40,40,  1,15,  0,-60,  0,256,128,3,10,4,7, 0, 0, 3}; 

void show_dat(char*s,uint32 *pd, uint32 len)
{
60166804:	0c11      	la	a0,60166848 <show_dat+0x48>
    uint32 i;
    PRINT_INFO_INT("addr=", (uint32)pd);
60166806:	6725      	move	s1,a1
60166808:	6e02      	li	a2,2
6016680a:	b213      	lw	v0,60166854 <show_dat+0x54>
6016680c:	ea40      	jalr	v0
6016680e:	6f4b      	li	a3,75
60166810:	6800      	li	s0,0
    for(i=0;i<len;i++)
60166812:	920a      	lw	v0,40(sp)
60166814:	2216      	beqz	v0,60166842 <show_dat+0x42>
60166816:	3208      	sll	v0,s0,2
    {    
        libc_print(s, pd[i], 2);
60166818:	e229      	addu	v0,s1
6016681a:	9408      	lw	a0,32(sp)
6016681c:	9aa0      	lw	a1,0(v0)
6016681e:	6e02      	li	a2,2
60166820:	b30d      	lw	v1,60166854 <show_dat+0x54>
60166822:	eb40      	jalr	v1
60166824:	6f4b      	li	a3,75
60166826:	6a07      	li	v0,7
        if((i & 0x07) == 0x07)
60166828:	ea0c      	and	v0,s0
6016682a:	7207      	cmpi	v0,7
6016682c:	6106      	btnez	6016683a <show_dat+0x3a>
6016682e:	6c01      	li	a0,1
        {   
            sys_os_time_dly(1);
60166830:	6d00      	li	a1,0
60166832:	67c5      	move	a2,a1
60166834:	b308      	lw	v1,60166854 <show_dat+0x54>
60166836:	eb40      	jalr	v1
60166838:	6f31      	li	a3,49
6016683a:	4001      	addiu	s0,s0,1
6016683c:	920a      	lw	v0,40(sp)
6016683e:	e843      	sltu	s0,v0
60166840:	61ea      	btnez	60166816 <show_dat+0x16>
60166842:	6474      	restore	32,ra,s0-s1
        }
    }
}
60166844:	e8a0      	jrc	ra
60166846:	0000      	addiu	s0,sp,0
60166848:	493c      	addiu	s1,60
6016684a:	203e      	beqz	s0,601668c8 <init_m4k_dsp_ctl+0x60>
6016684c:	6461      	restore	8,ra,s0
6016684e:	7264      	cmpi	v0,100
60166850:	003d      	addiu	s0,sp,244
60166852:	0000      	addiu	s0,sp,0
60166854:	6009      	bteqz	60166868 <init_m4k_dsp_ctl>
60166856:	bfc2      	lwu	a2,8(a3)

60166858 <init_asqt_fifo>:
60166858:	6a00      	li	v0,0

/******************************************************************************
 * \  par  Description:   初始化fifo数据区
 * \  param[in]     null0
 * \  param[out]   null
 * \  return           null
 * \  note
 * \  <author>       <time>        <opt>
 * \   Wekan       2015-4-1      creat
 *******************************************************************************/
void init_asqt_fifo(Fifo_ctl_t *p_fifo, uint32 size, uint8*pdata)
{
    p_fifo->in_index = 0;
6016685a:	cc40      	sh	v0,0(a0)
6016685c:	cc41      	sh	v0,2(a0)
    p_fifo->out_index = 0;
6016685e:	cc42      	sh	v0,4(a0)
    p_fifo->data_size = 0;
60166860:	cca3      	sh	a1,6(a0)
    p_fifo->total_size = size;
60166862:	e820      	jr	ra
    p_fifo->data = pdata;
}
60166864:	dcc2      	sw	a2,8(a0)
	...

60166868 <init_m4k_dsp_ctl>:
60166868:	64b2      	save	16,s0-s1

/******************************************************************************/
/*!
 * \par  Description:
 *  初始化m4k和dsp共享的数据块
 * \param[in]   en_ASQT_period 需要上传的时期的数据bit0表示时期1，类推
 * \param[out]   none
 * \return       none
 * \  <author>       <time>        <opt>
 * \   Wekan       2015-4-1      creat
 *******************************************************************************/
void init_m4k_dsp_ctl(uint8 en_ASQT_period)
{
6016686a:	6724      	move	s1,a0
6016686c:	e911      	zeb	s1
6016686e:	6800      	li	s0,0
    uint8 i;
    uint32 M4k_addr = 0;
60166870:	2104      	beqz	s1,6016687a <init_m4k_dsp_ctl+0x12>
    if(en_ASQT_period > 0)
60166872:	b226      	lw	v0,60166908 <init_m4k_dsp_ctl+0xa0>
    {
        M4k_addr = (uint32)g_pAsqtRam->share_buf;
60166874:	9a40      	lw	v0,0(v0)
60166876:	f002 4200 	addiu	s0,v0,4096
6016687a:	6d00      	li	a1,0
    }
    for(i = 0; i < MAX_AEC_PERIOD; i++)
6016687c:	67e5      	move	a3,a1
6016687e:	b625      	lw	a2,60166910 <init_m4k_dsp_ctl+0xa8>
60166880:	b223      	lw	v0,6016690c <init_m4k_dsp_ctl+0xa4>
60166882:	d200      	sw	v0,0(sp)
60166884:	b324      	lw	v1,60166914 <init_m4k_dsp_ctl+0xac>
60166886:	d301      	sw	v1,4(sp)
60166888:	b224      	lw	v0,60166918 <init_m4k_dsp_ctl+0xb0>
6016688a:	653a      	move	t9,v0
6016688c:	6751      	move	v0,s1
    {
        if((en_ASQT_period & (SET_ENABLE << i)) != 0)
6016688e:	ed47      	srav	v0,a1
60166890:	6b01      	li	v1,1
60166892:	ea6c      	and	v0,v1
60166894:	2224      	beqz	v0,601668de <init_m4k_dsp_ctl+0x76>
60166896:	33a8      	sll	v1,a1,2
        {
             g_asqt_parm.out_frame_cnt[i] = 0;
60166898:	9200      	lw	v0,0(sp)
6016689a:	e34d      	addu	v1,v0
6016689c:	f080 dbfc 	sw	a3,156(v1)
601668a0:	9e40      	lw	v0,0(a2)
             g_p_share_mem->Asqt_ctl[i].frame_cnt = 0;
601668a2:	34b0      	sll	a0,a1,4
601668a4:	e449      	addu	v0,a0,v0
601668a6:	dae3      	sw	a3,12(v0)
601668a8:	f0a0 db14 	sw	s0,180(v1)
             g_asqt_parm.m4k_addr[i] = M4k_addr;
601668ac:	9e40      	lw	v0,0(a2)
             g_p_share_mem->Asqt_ctl[i].block_num = ASQT_PERIOD_BLOCK;
601668ae:	e449      	addu	v0,a0,v0
601668b0:	6b04      	li	v1,4
601668b2:	ca63      	sh	v1,6(v0)
601668b4:	9e40      	lw	v0,0(a2)
             g_p_share_mem->Asqt_ctl[i].frame_size = 128; //uint16
601668b6:	e449      	addu	v0,a0,v0
601668b8:	6b80      	li	v1,128
601668ba:	da62      	sw	v1,8(v0)
601668bc:	9e60      	lw	v1,0(a2)
             g_p_share_mem->Asqt_ctl[i].dsp_addr = (uint32*)ADDR_M4K2DSP(M4k_addr);//M4k_addr不能大于0x9fc40000;
601668be:	e46d      	addu	v1,a0,v1
601668c0:	651b      	move	t8,v1
601668c2:	9201      	lw	v0,4(sp)
601668c4:	ea0c      	and	v0,s0
601668c6:	3246      	srl	v0,1
601668c8:	6779      	move	v1,t9
601668ca:	ea6d      	or	v0,v1
601668cc:	6778      	move	v1,t8
601668ce:	db44      	sw	v0,16(v1)
601668d0:	9e40      	lw	v0,0(a2)
             g_p_share_mem->Asqt_ctl[i].period_flag = i + 1;//需要该时期的ASQT数据
601668d2:	e451      	addu	a0,v0
601668d4:	4541      	addiu	v0,a1,1
601668d6:	cc42      	sh	v0,4(a0)
601668d8:	f400 4800 	addiu	s0,1024
             M4k_addr += 256 * ASQT_PERIOD_BLOCK;
601668dc:	100d      	b	601668f8 <init_m4k_dsp_ctl+0x90>
601668de:	9e40      	lw	v0,0(a2)
        }
        else
        {
            g_p_share_mem->Asqt_ctl[i].block_num = 0;
601668e0:	33b0      	sll	v1,a1,4
601668e2:	e349      	addu	v0,v1,v0
601668e4:	cae3      	sh	a3,6(v0)
601668e6:	9e40      	lw	v0,0(a2)
            g_p_share_mem->Asqt_ctl[i].frame_size = 0;
601668e8:	e349      	addu	v0,v1,v0
601668ea:	dae2      	sw	a3,8(v0)
601668ec:	9e40      	lw	v0,0(a2)
            g_p_share_mem->Asqt_ctl[i].period_flag = 0;
601668ee:	e349      	addu	v0,v1,v0
601668f0:	cae2      	sh	a3,4(v0)
601668f2:	9e40      	lw	v0,0(a2)
            g_p_share_mem->Asqt_ctl[i].dsp_addr = NULL;
601668f4:	e34d      	addu	v1,v0
601668f6:	dbe4      	sw	a3,16(v1)
601668f8:	4541      	addiu	v0,a1,1
601668fa:	67a2      	move	a1,v0
601668fc:	ed11      	zeb	a1
601668fe:	5d06      	sltiu	a1,6
60166900:	61c5      	btnez	6016688c <init_m4k_dsp_ctl+0x24>
60166902:	6432      	restore	16,s0-s1
        }
    } 
}
60166904:	e8a0      	jrc	ra
60166906:	0000      	addiu	s0,sp,0
60166908:	9698      	lw	a2,608(sp)
6016690a:	9fc1      	lw	a2,4(a3)
6016690c:	971c      	lw	a3,112(sp)
6016690e:	9fc1      	lw	a2,4(a3)
60166910:	969c      	lw	a2,624(sp)
60166912:	9fc1      	lw	a2,4(a3)
60166914:	ffff      	daddiu	a3,sp,124
60166916:	0001      	addiu	s0,sp,4
60166918:	0000      	addiu	s0,sp,0
6016691a:	0003      	addiu	s0,sp,12

6016691c <get_bt_air_len>:
6016691c:	b205      	lw	v0,60166930 <get_bt_air_len+0x14>



uint16 get_bt_air_len(void)
{
    return g_p_bt_stack_cur_info->rmt_dev[g_p_bt_stack_cur_info->hfp_active_id].hfp_attr.air_pkt_len;
6016691e:	9a80      	lw	a0,0(v0)
60166920:	f020 a469 	lbu	v1,41(a0)
60166924:	326c      	sll	v0,v1,3
60166926:	e269      	addu	v0,v1
60166928:	3244      	sll	v0,1
6016692a:	e289      	addu	v0,a0
6016692c:	e820      	jr	ra
}
6016692e:	aa48      	lhu	v0,16(v0)
60166930:	9670      	lw	a2,448(sp)
60166932:	9fc1      	lw	a2,4(a3)

60166934 <asqt_set_dsp_init_parm>:
60166934:	64f4      	save	32,ra,s0-s1


/******************************************************************************/
/*!
 * \par  Description:设置为dsp默认的解码参数
 * \param[in]    
 * \param[out]   none
 * \return       none
 * \  <author>       <time>        <opt>
 * \   Wekan       2015-4-1      creat
 * \   真实打电话，启动mmm时调用
 *******************************************************************************/
sv_configs_t *asqt_set_dsp_init_parm(void)
{
60166936:	6900      	li	s1,0
    static bool read_sv_prms_flag = FALSE;
    sv_configs_t *asqt_parm = NULL;
60166938:	0c2d      	la	a0,601669ec <asqt_set_dsp_init_parm+0xb8>
    PRINT_INFO_INT("set dsp parm:", 0);
6016693a:	67b1      	move	a1,s1
6016693c:	6e02      	li	a2,2
6016693e:	b235      	lw	v0,60166a10 <asqt_set_dsp_init_parm+0xdc>
60166940:	ea40      	jalr	v0
60166942:	6f4b      	li	a3,75
60166944:	b234      	lw	v0,60166a14 <asqt_set_dsp_init_parm+0xe0>
    if(btcall_gl_var.stub_asqt_en != 0)//ASQT调试模式
60166946:	a24c      	lbu	v0,12(v0)
60166948:	2216      	beqz	v0,60166976 <asqt_set_dsp_init_parm+0x42>
6016694a:	b234      	lw	v0,60166a18 <asqt_set_dsp_init_parm+0xe4>
    {
        reset_aec_asqt();
6016694c:	eac0      	jalrc	v0
6016694e:	b234      	lw	v0,60166a1c <asqt_set_dsp_init_parm+0xe8>
        if(g_asqt_parm.AsqtCfg.analysis_mode == ASQT_CALL_MODE)
60166950:	4a7c      	addiu	v0,124
60166952:	9a46      	lw	v0,24(v0)
60166954:	7201      	cmpi	v0,1
60166956:	6105      	btnez	60166962 <asqt_set_dsp_init_parm+0x2e>
60166958:	b233      	lw	v0,60166a24 <asqt_set_dsp_init_parm+0xf0>
        {
            g_dsp_init_parm.air_pkt_len = get_bt_air_len();  //蓝牙空中报文包长度
6016695a:	eac0      	jalrc	v0
6016695c:	b331      	lw	v1,60166a1c <asqt_set_dsp_init_parm+0xe8>
6016695e:	db56      	sw	v0,88(v1)
60166960:	1003      	b	60166968 <asqt_set_dsp_init_parm+0x34>
60166962:	6b3c      	li	v1,60
        }
        else
        {
            g_dsp_init_parm.air_pkt_len = 0x3C;//调试模式下的模拟通话模式默认0x3C=60 
60166964:	b22f      	lw	v0,60166a20 <asqt_set_dsp_init_parm+0xec>
60166966:	da76      	sw	v1,88(v0)
60166968:	0c26      	la	a0,60166a00 <asqt_set_dsp_init_parm+0xcc>
        }
        show_dat("Dsp:", (uint32*)&g_dsp_init_parm, sizeof(sv_prms_t)/4);
6016696a:	b52e      	lw	a1,60166a20 <asqt_set_dsp_init_parm+0xec>
6016696c:	b22f      	lw	v0,60166a28 <asqt_set_dsp_init_parm+0xf4>
6016696e:	ea40      	jalr	v0
60166970:	6e1f      	li	a2,31
60166972:	b12f      	lw	s1,60166a2c <asqt_set_dsp_init_parm+0xf8>
        asqt_parm = &g_asqt_parm.AsqtCfg;
60166974:	101a      	b	601669aa <asqt_set_dsp_init_parm+0x76>
60166976:	b32f      	lw	v1,60166a30 <asqt_set_dsp_init_parm+0xfc>
    }
    else 
    {
        if(read_sv_prms_flag != TRUE)
60166978:	a340      	lbu	v0,0(v1)
6016697a:	7201      	cmpi	v0,1
6016697c:	6016      	bteqz	601669aa <asqt_set_dsp_init_parm+0x76>
6016697e:	6a01      	li	v0,1
        {
            read_sv_prms_flag = TRUE;
60166980:	c340      	sb	v0,0(v1)
60166982:	b028      	lw	s0,60166a20 <asqt_set_dsp_init_parm+0xec>
            //先设成默认的参数，再读config.txt的配置
            libc_memcpy((uint8*)&g_dsp_init_parm, (uint8*)dsp_init_set, sizeof(dsp_init_set));
60166984:	6790      	move	a0,s0
60166986:	b52c      	lw	a1,60166a34 <asqt_set_dsp_init_parm+0x100>
60166988:	6e60      	li	a2,96
6016698a:	b22c      	lw	v0,60166a38 <asqt_set_dsp_init_parm+0x104>
6016698c:	ea40      	jalr	v0
6016698e:	6f00      	li	a3,0
60166990:	b22b      	lw	v0,60166a3c <asqt_set_dsp_init_parm+0x108>
            actaec_init_sv_prms(&g_dsp_init_parm);
60166992:	ea40      	jalr	v0
60166994:	6790      	move	a0,s0
60166996:	6a00      	li	v0,0
            g_dsp_init_parm.pcm_mode = 0;//正常工作状态
60166998:	d855      	sw	v0,84(s0)
6016699a:	b223      	lw	v0,60166a24 <asqt_set_dsp_init_parm+0xf0>
            g_dsp_init_parm.air_pkt_len = get_bt_air_len();  //蓝牙空中报文包长度
6016699c:	eac0      	jalrc	v0
6016699e:	d856      	sw	v0,88(s0)
601669a0:	0c1a      	la	a0,60166a08 <asqt_set_dsp_init_parm+0xd4>
            show_dat("dsp:", (uint32*)&g_dsp_init_parm, sizeof(sv_prms_t)/4);
601669a2:	67b0      	move	a1,s0
601669a4:	b221      	lw	v0,60166a28 <asqt_set_dsp_init_parm+0xf4>
601669a6:	ea40      	jalr	v0
601669a8:	6e1f      	li	a2,31
601669aa:	b426      	lw	a0,60166a40 <asqt_set_dsp_init_parm+0x10c>
        }
        
    }
    g_p_share_mem->pAEC_parm = (sv_prms_t*)ADDR_M4K2DSP(&g_dsp_init_parm);//转成dsp直接访问
601669ac:	9ca0      	lw	a1,0(a0)
601669ae:	b21d      	lw	v0,60166a20 <asqt_set_dsp_init_parm+0xec>
601669b0:	b325      	lw	v1,60166a44 <asqt_set_dsp_init_parm+0x110>
601669b2:	ea6c      	and	v0,v1
601669b4:	3246      	srl	v0,1
601669b6:	b325      	lw	v1,60166a48 <asqt_set_dsp_init_parm+0x114>
601669b8:	eb4d      	or	v1,v0
601669ba:	dd60      	sw	v1,0(a1)
601669bc:	9c80      	lw	a0,0(a0)
    //兼容2015-5-25之前的库
    //要求init_m4k_dsp_ctl()先运行
    if(g_p_share_mem->Asqt_ctl[5].dsp_addr == NULL)//因为它的偏移在96
601669be:	9c58      	lw	v0,96(a0)
601669c0:	2a02      	bnez	v0,601669c6 <asqt_set_dsp_init_parm+0x92>
601669c2:	dc78      	sw	v1,96(a0)
    {
        g_p_share_mem->Asqt_ctl[5].dsp_addr = (uint32*)ADDR_M4K2DSP(&g_dsp_init_parm);//转成dsp直接访问
601669c4:	100f      	b	601669e4 <asqt_set_dsp_init_parm+0xb0>
601669c6:	b21f      	lw	v0,60166a40 <asqt_set_dsp_init_parm+0x10c>
    }
    else
    {
        libc_memcpy((uint8*)ADDR_DSP2M4K(g_p_share_mem->Asqt_ctl[5].dsp_addr), (uint8*)&g_dsp_init_parm, sizeof(sv_prms_t));
601669c8:	9a40      	lw	v0,0(v0)
601669ca:	9a98      	lw	a0,96(v0)
601669cc:	3484      	sll	a0,1
601669ce:	b220      	lw	v0,60166a4c <asqt_set_dsp_init_parm+0x118>
601669d0:	ec4c      	and	a0,v0
601669d2:	b220      	lw	v0,60166a50 <asqt_set_dsp_init_parm+0x11c>
601669d4:	ec4e      	xor	a0,v0
601669d6:	b220      	lw	v0,60166a54 <asqt_set_dsp_init_parm+0x120>
601669d8:	e451      	addu	a0,v0
601669da:	b512      	lw	a1,60166a20 <asqt_set_dsp_init_parm+0xec>
601669dc:	6e7c      	li	a2,124
601669de:	b217      	lw	v0,60166a38 <asqt_set_dsp_init_parm+0x104>
601669e0:	ea40      	jalr	v0
601669e2:	6f00      	li	a3,0
601669e4:	6751      	move	v0,s1
    }
    return asqt_parm;//return null表示用  config.txt的参数，否则用pc-tool的参数
}
601669e6:	6474      	restore	32,ra,s0-s1
601669e8:	e8a0      	jrc	ra
601669ea:	0000      	addiu	s0,sp,0
601669ec:	493c      	addiu	s1,60
601669ee:	203e      	beqz	s0,60166a6c <copy_dsp_aec_parm+0x14>
601669f0:	6573      	move	s3,v1
601669f2:	2074      	beqz	s0,60166adc <copy_dsp_aec_parm+0x84>
601669f4:	7364      	cmpi	v1,100
601669f6:	2070      	beqz	s0,60166ad8 <copy_dsp_aec_parm+0x80>
601669f8:	6170      	btnez	60166ada <copy_dsp_aec_parm+0x82>
601669fa:	6d72      	li	a1,114
601669fc:	003a      	addiu	s0,sp,232
601669fe:	0000      	addiu	s0,sp,0
60166a00:	7344      	cmpi	v1,68
60166a02:	3a70      	ld	v1,128(v0)
60166a04:	0000      	addiu	s0,sp,0
60166a06:	0000      	addiu	s0,sp,0
60166a08:	7364      	cmpi	v1,100
60166a0a:	3a70      	ld	v1,128(v0)
60166a0c:	0000      	addiu	s0,sp,0
60166a0e:	0000      	addiu	s0,sp,0
60166a10:	6009      	bteqz	60166a24 <asqt_set_dsp_init_parm+0xf0>
60166a12:	bfc2      	lwu	a2,8(a3)
60166a14:	964c      	lw	a2,304(sp)
60166a16:	9fc1      	lw	a2,4(a3)
60166a18:	6c09      	li	a0,9
60166a1a:	6016      	bteqz	60166a48 <asqt_set_dsp_init_parm+0x114>
60166a1c:	971c      	lw	a3,112(sp)
60166a1e:	9fc1      	lw	a2,4(a3)
60166a20:	96a0      	lw	a2,640(sp)
60166a22:	9fc1      	lw	a2,4(a3)
60166a24:	691d      	li	s1,29
60166a26:	6016      	bteqz	60166a54 <asqt_set_dsp_init_parm+0x120>
60166a28:	6801      	li	s0,1
60166a2a:	6016      	bteqz	60166a58 <copy_dsp_aec_parm>
60166a2c:	9754      	lw	a3,336(sp)
60166a2e:	9fc1      	lw	a2,4(a3)
60166a30:	9813      	lw	s0,76(s0)
60166a32:	9fc1      	lw	a2,4(a3)
60166a34:	6df8      	li	a1,248
60166a36:	6016      	bteqz	60166a64 <copy_dsp_aec_parm+0xc>
60166a38:	6005      	bteqz	60166a44 <asqt_set_dsp_init_parm+0x110>
60166a3a:	bfc2      	lwu	a2,8(a3)
60166a3c:	6801      	li	s0,1
60166a3e:	6006      	bteqz	60166a4c <asqt_set_dsp_init_parm+0x118>
60166a40:	969c      	lw	a2,624(sp)
60166a42:	9fc1      	lw	a2,4(a3)
60166a44:	ffff      	daddiu	a3,sp,124
60166a46:	0001      	addiu	s0,sp,4
60166a48:	0000      	addiu	s0,sp,0
60166a4a:	0003      	addiu	s0,sp,12
60166a4c:	ffff      	daddiu	a3,sp,124
60166a4e:	fffb      	daddiu	a3,sp,108
60166a50:	0000      	addiu	s0,sp,0
60166a52:	0002      	addiu	s0,sp,8
60166a54:	0000      	addiu	s0,sp,0
60166a56:	9fc0      	lw	a2,0(a3)

60166a58 <copy_dsp_aec_parm>:
60166a58:	64f4      	save	32,ra,s0-s1


/******************************************************************************/
/*!
 * \par  Description:复制aec参数，主要是复制从pc端拿到的参数
 * \param[in]      in_parm源参数
 * \param[out]   dsp_parm   dsp参数指针
 * \return       none
 * \  <author>       <time>        <opt>
 * \   Wekan       2015-4-1     creat
 *******************************************************************************/
void copy_dsp_aec_parm(sv_prms_t *dsp_parm, sv_configs_t *in_parm)
{
60166a5a:	6725      	move	s1,a1
60166a5c:	6704      	move	s0,a0
    uint32 tmp_dac_weak;
    libc_memcpy((uint8*)dsp_parm, (uint8*)&in_parm->frame_size, (2 + 8 + 2 + 2)*4);
60166a5e:	4d24      	addiu	a1,36
60166a60:	6e38      	li	a2,56
60166a62:	b224      	lw	v0,60166af0 <copy_dsp_aec_parm+0x98>
60166a64:	ea40      	jalr	v0
60166a66:	6f00      	li	a3,0
60166a68:	6a40      	li	v0,64
    
    //dsp_parm->aec_prms.tail_length = (dsp_parm->aec_prms.tail_length + 8) & (~0x0F);//必须是16倍
    dsp_parm->aec_prms.tail_length = 64;	//耳机方案尾长固定为64，与DSP库绑定，不能修改
60166a6a:	d843      	sw	v0,12(s0)
60166a6c:	9957      	lw	v0,92(s1)
#if 0 
    if(dsp_parm->aec_prms.tail_length == 0)
    {
        if(g_app_info_state_all.stub_phy_type == STUB_PHY_USB)
        {
            dsp_parm->aec_prms.tail_length = 128;
        }
        else
        {
            //耳机方案
            dsp_parm->aec_prms.tail_length = 64;
        }
    }
#endif
    
    if(in_parm->analysis_mode == 0)
60166a6e:	2a03      	bnez	v0,60166a76 <copy_dsp_aec_parm+0x1e>
60166a70:	4241      	addiu	v0,v0,1
    {
        dsp_parm->pcm_mode = 1;
60166a72:	d855      	sw	v0,84(s0)
60166a74:	1002      	b	60166a7a <copy_dsp_aec_parm+0x22>
60166a76:	6a00      	li	v0,0
    }
    else
    { 
        dsp_parm->pcm_mode = 0;   
60166a78:	d855      	sw	v0,84(s0)
60166a7a:	b21f      	lw	v0,60166af4 <copy_dsp_aec_parm+0x9c>
    }
    dsp_parm->air_pkt_len = get_bt_air_len();  //蓝牙空中报文包长度
60166a7c:	eac0      	jalrc	v0
60166a7e:	d856      	sw	v0,88(s0)
60166a80:	9942      	lw	v0,8(s1)

    dsp_parm->speaker_channel = in_parm->speaker_channel;
60166a82:	d857      	sw	v0,92(s0)
60166a84:	9942      	lw	v0,8(s1)
    if(in_parm->speaker_channel != 3)//双声道才衰减
60166a86:	7203      	cmpi	v0,3
60166a88:	6002      	bteqz	60166a8e <copy_dsp_aec_parm+0x36>
60166a8a:	6b00      	li	v1,0
    {
        tmp_dac_weak = 0;
60166a8c:	1001      	b	60166a90 <copy_dsp_aec_parm+0x38>
60166a8e:	9963      	lw	v1,12(s1)
    }
    else
    {
        tmp_dac_weak = in_parm->dac_weak;
60166a90:	434f      	addiu	v0,v1,-1
    }
    if((tmp_dac_weak > 0) && (tmp_dac_weak < 19))
60166a92:	5a12      	sltiu	v0,18
60166a94:	6005      	bteqz	60166aa0 <copy_dsp_aec_parm+0x48>
60166a96:	6a02      	li	v0,2
    {    
        dsp_parm->speaker_channel_weak_sel = 2;//左
60166a98:	d858      	sw	v0,96(s0)
60166a9a:	9943      	lw	v0,12(s1)
        dsp_parm->speaker_channel_weak_val = in_parm->dac_weak;
60166a9c:	d859      	sw	v0,100(s0)
60166a9e:	100d      	b	60166aba <copy_dsp_aec_parm+0x62>
60166aa0:	6743      	move	v0,v1
    }
    else if((tmp_dac_weak > 32) && (tmp_dac_weak < 51))
60166aa2:	4adf      	addiu	v0,-33
60166aa4:	5a12      	sltiu	v0,18
60166aa6:	6006      	bteqz	60166ab4 <copy_dsp_aec_parm+0x5c>
60166aa8:	6a01      	li	v0,1
    {
        dsp_parm->speaker_channel_weak_sel = 1;
60166aaa:	d858      	sw	v0,96(s0)
60166aac:	9943      	lw	v0,12(s1)
        dsp_parm->speaker_channel_weak_val = in_parm->dac_weak - 33;
60166aae:	4adf      	addiu	v0,-33
60166ab0:	d859      	sw	v0,100(s0)
60166ab2:	1003      	b	60166aba <copy_dsp_aec_parm+0x62>
60166ab4:	6a00      	li	v0,0
    }
    else
    {
        dsp_parm->speaker_channel_weak_sel = 0;
60166ab6:	d858      	sw	v0,96(s0)
60166ab8:	d859      	sw	v0,100(s0)
        dsp_parm->speaker_channel_weak_val = 0;
60166aba:	9958      	lw	v0,96(s1)
    }
    
    dsp_parm->hfp_mode = in_parm->hfp_mode;//0是双工1是单工
60166abc:	d85a      	sw	v0,104(s0)
60166abe:	9946      	lw	v0,24(s1)
    if(in_parm->pre_agc_level < 0xFF)
60166ac0:	5aff      	sltiu	v0,255
60166ac2:	6004      	bteqz	60166acc <copy_dsp_aec_parm+0x74>
60166ac4:	d85b      	sw	v0,108(s0)
    {
        dsp_parm->pre_agc_level = in_parm->pre_agc_level;
60166ac6:	9948      	lw	v0,32(s1)
        dsp_parm->pos_agc_level = in_parm->pos_agc_level;
60166ac8:	d85c      	sw	v0,112(s0)
60166aca:	1006      	b	60166ad8 <copy_dsp_aec_parm+0x80>
60166acc:	9946      	lw	v0,24(s1)
    }
    else
    {
        dsp_parm->pre_agc_level = in_parm->pre_agc_level + 30;
60166ace:	4a1e      	addiu	v0,30
60166ad0:	d85b      	sw	v0,108(s0)
60166ad2:	9948      	lw	v0,32(s1)
        dsp_parm->pos_agc_level = in_parm->pos_agc_level + 30; 
60166ad4:	4a1e      	addiu	v0,30
60166ad6:	d85c      	sw	v0,112(s0)
60166ad8:	9945      	lw	v0,20(s1)
    }
    dsp_parm->agc_pre_en = in_parm->pre_agc_enable;
60166ada:	d85d      	sw	v0,116(s0)
60166adc:	9947      	lw	v0,28(s1)
    dsp_parm->agc_back_en = in_parm->pos_agc_enable;
60166ade:	d85e      	sw	v0,120(s0)
60166ae0:	6a10      	li	v0,16
    
    dsp_parm->frame_size = 16;//固定
60166ae2:	d840      	sw	v0,0(s0)
60166ae4:	f723 4a10 	addiu	v0,7984
    dsp_parm->sampling_rate = 8000; //固定
60166ae8:	d841      	sw	v0,4(s0)
60166aea:	6474      	restore	32,ra,s0-s1
}
60166aec:	e8a0      	jrc	ra
60166aee:	0000      	addiu	s0,sp,0
60166af0:	6005      	bteqz	60166afc <reset_dsp+0x4>
60166af2:	bfc2      	lwu	a2,8(a3)
60166af4:	691d      	li	s1,29
60166af6:	6016      	bteqz	60166b24 <reset_dsp+0x2c>

60166af8 <reset_dsp>:
60166af8:	64c3      	save	24,ra



/******************************************************************************/
/*!
 * \par  Description:
 *  重启dsp，实现pc参数实时生效
 * \param[in]    call_mode 模拟或真实打电话
 * \param[out]   none
 * \return          none
 * \  <author>       <time>        <opt>
 * \   Wekan       2015-8-11      creat
 *******************************************************************************/

void reset_dsp(uint8 call_mode)
{
60166afa:	ec11      	zeb	a0
60166afc:	7401      	cmpi	a0,1
    if(call_mode == ASQT_CALL_MODE)
60166afe:	610c      	btnez	60166b18 <reset_dsp+0x20>
60166b00:	b20a      	lw	v0,60166b28 <reset_dsp+0x30>
    {
        if(g_p_btcall_info->status == BTCALL_HFP)//正在通话才需要重启dsp
60166b02:	9a40      	lw	v0,0(v0)
60166b04:	a240      	lbu	v0,0(v0)
60166b06:	7204      	cmpi	v0,4
60166b08:	610d      	btnez	60166b24 <reset_dsp+0x2c>
60166b0a:	b209      	lw	v0,60166b2c <reset_dsp+0x34>
        {
            btcalleg_free_hfp_mmm();
60166b0c:	eac0      	jalrc	v0
60166b0e:	b209      	lw	v0,60166b30 <reset_dsp+0x38>
            reset_aec_asqt();
60166b10:	eac0      	jalrc	v0
60166b12:	b209      	lw	v0,60166b34 <reset_dsp+0x3c>
            btcalleg_load_hfp_mmm();
60166b14:	eac0      	jalrc	v0
60166b16:	1006      	b	60166b24 <reset_dsp+0x2c>
60166b18:	b205      	lw	v0,60166b2c <reset_dsp+0x34>
        }
    }
    else
    {
        btcalleg_free_hfp_mmm();
60166b1a:	eac0      	jalrc	v0
60166b1c:	b205      	lw	v0,60166b2c <reset_dsp+0x34>
        reset_aec_asqt();
60166b1e:	eac0      	jalrc	v0
60166b20:	b206      	lw	v0,60166b34 <reset_dsp+0x3c>
        deal_load_simu_mmm();
60166b22:	eac0      	jalrc	v0
60166b24:	6443      	restore	24,ra
    }
}
60166b26:	e8a0      	jrc	ra
60166b28:	967c      	lw	a2,496(sp)
60166b2a:	9fc1      	lw	a2,4(a3)
60166b2c:	699d      	li	s1,157
60166b2e:	6012      	bteqz	60166b54 <stub_asqt_send_end+0x18>
60166b30:	6c09      	li	a0,9
60166b32:	6016      	bteqz	60166b60 <stub_asqt_down_param+0x4>
60166b34:	6801      	li	s0,1
60166b36:	6012      	bteqz	60166b5c <stub_asqt_down_param>
60166b38:	6cfd      	li	a0,253
60166b3a:	6016      	bteqz	60166b68 <stub_asqt_down_param+0xc>

60166b3c <stub_asqt_send_end>:
60166b3c:	64c3      	save	24,ra


/******************************************************************************/
/*!
 * \par  Description:
 *  通知pc-tool，上传数据结束
 * \param[in]    none
 * \param[out]   none
 * \return       none
 * \  <author>       <time>        <opt>
 * \   Wekan       2015-4-1      creat
 *******************************************************************************/
void stub_asqt_send_end(uint8 cmd)
{ 
60166b3e:	ec11      	zeb	a0
60166b40:	3480      	sll	a0,8
    stub_set_data(cmd << 8, g_pAsqtRam->stub_buf, 0);
60166b42:	b205      	lw	v0,60166b54 <stub_asqt_send_end+0x18>
60166b44:	9aa0      	lw	a1,0(v0)
60166b46:	6e00      	li	a2,0
60166b48:	b204      	lw	v0,60166b58 <stub_asqt_send_end+0x1c>
60166b4a:	ea40      	jalr	v0
60166b4c:	6f04      	li	a3,4
60166b4e:	6443      	restore	24,ra
}
60166b50:	e8a0      	jrc	ra
60166b52:	0000      	addiu	s0,sp,0
60166b54:	9698      	lw	a2,608(sp)
60166b56:	9fc1      	lw	a2,4(a3)
60166b58:	6019      	bteqz	60166b8c <stub_asqt_down_param+0x30>
60166b5a:	bfc2      	lwu	a2,8(a3)

60166b5c <stub_asqt_down_param>:
60166b5c:	64f5      	save	40,ra,s0-s1




/******************************************************************************/
/*!
 * \par  Description: 小机获取参数，保存到Vram
 * \param[in]    stub_buf缓存空间--至少512
 * \param[out]   none
 * \return       -1失败,0成功
 * \  <author>       <time>        <opt>
 * \   Wekan       2015-7-13      creat
 *******************************************************************************/
int stub_asqt_down_param(uint32 *stub_buf)
{ 
60166b5e:	6724      	move	s1,a0
    int ret;
    uint32 i, sum;
    uint8*p8;
    VM_SAVE_t *pParm = (VM_SAVE_t *)stub_buf;
60166b60:	f101 6c00 	li	a0,2304
    sv_configs_t *pc_parms = (sv_configs_t *)(stub_buf + (sizeof(VM_SAVE_t)/4 + 1));
    ret = stub_get_data(0x0900, (uint32*)pc_parms, sizeof(sv_configs_t));
60166b64:	f080 41a8 	addiu	a1,s1,136
60166b68:	6e64      	li	a2,100
60166b6a:	b224      	lw	v0,60166bf8 <stub_asqt_down_param+0x9c>
60166b6c:	ea40      	jalr	v0
60166b6e:	6f03      	li	a3,3
60166b70:	d204      	sw	v0,16(sp)
60166b72:	5200      	slti	v0,0
    if(ret > -1)
60166b74:	612f      	btnez	60166bd4 <stub_asqt_down_param+0x78>
60166b76:	6791      	move	a0,s1
    {
        copy_dsp_aec_parm(&pParm->dsp_cfg, (sv_configs_t*)stub_buf);
60166b78:	4c08      	addiu	a0,8
60166b7a:	b221      	lw	v0,60166bfc <stub_asqt_down_param+0xa0>
60166b7c:	ea40      	jalr	v0
60166b7e:	67b1      	move	a1,s1
60166b80:	6791      	move	a0,s1
        sys_vm_read(pParm, VM_ASQT_PARM_BASE, 8);
60166b82:	b520      	lw	a1,60166c00 <stub_asqt_down_param+0xa4>
60166b84:	6e08      	li	a2,8
60166b86:	b220      	lw	v0,60166c04 <stub_asqt_down_param+0xa8>
60166b88:	ea40      	jalr	v0
60166b8a:	6f12      	li	a3,18
60166b8c:	a940      	lhu	v0,0(s1)
        if(pParm->magic != 0xAA55)
60166b8e:	f255 7215 	cmpi	v0,43605
60166b92:	6003      	bteqz	60166b9a <stub_asqt_down_param+0x3e>
60166b94:	6a01      	li	v0,1
        {
            pParm->times = 1;
60166b96:	c941      	sh	v0,2(s1)
60166b98:	1003      	b	60166ba0 <stub_asqt_down_param+0x44>
60166b9a:	a941      	lhu	v0,2(s1)
        }
        else
        {
            pParm->times++;
60166b9c:	4241      	addiu	v0,v0,1
60166b9e:	c941      	sh	v0,2(s1)
60166ba0:	f5aa 6a0b 	li	v0,21931
        }
        pParm->magic = 0xAA55;
60166ba4:	ea4b      	neg	v0
60166ba6:	c940      	sh	v0,0(s1)
60166ba8:	67b1      	move	a1,s1
        p8 = (uint8*)&pParm->dsp_cfg;
60166baa:	4d08      	addiu	a1,8
60166bac:	6c00      	li	a0,0
        for(i = 0, sum = 0; i < sizeof(sv_prms_t); i++)
60166bae:	6764      	move	v1,a0
60166bb0:	e569      	addu	v0,a1,v1
        {
            sum += p8[i];
60166bb2:	a240      	lbu	v0,0(v0)
60166bb4:	e451      	addu	a0,v0
60166bb6:	4361      	addiu	v1,v1,1
60166bb8:	5b7c      	sltiu	v1,124
60166bba:	61fa      	btnez	60166bb0 <stub_asqt_down_param+0x54>
60166bbc:	d981      	sw	a0,4(s1)
        }
        pParm->cs = sum;
60166bbe:	6791      	move	a0,s1
        sys_vm_write(pParm, VM_ASQT_PARM_BASE, sizeof(VM_SAVE_t));
60166bc0:	b510      	lw	a1,60166c00 <stub_asqt_down_param+0xa4>
60166bc2:	6e84      	li	a2,132
60166bc4:	b010      	lw	s0,60166c04 <stub_asqt_down_param+0xa8>
60166bc6:	e840      	jalr	s0
60166bc8:	6f13      	li	a3,19
60166bca:	0c05      	la	a0,60166bdc <stub_asqt_down_param+0x80>
        PRINT_INFO_INT("btcall-write-vm-times:", pParm->times);
60166bcc:	a9a1      	lhu	a1,2(s1)
60166bce:	6e02      	li	a2,2
60166bd0:	e840      	jalr	s0
60166bd2:	6f4b      	li	a3,75
60166bd4:	9204      	lw	v0,16(sp)
    }
    return ret;
}
60166bd6:	6475      	restore	40,ra,s0-s1
60166bd8:	e8a0      	jrc	ra
60166bda:	0000      	addiu	s0,sp,0
60166bdc:	493c      	addiu	s1,60
60166bde:	203e      	beqz	s0,60166c5c <reset_aec_asqt+0x54>
60166be0:	7462      	cmpi	a0,98
60166be2:	6163      	btnez	60166caa <reset_aec_asqt+0xa2>
60166be4:	6c6c      	li	a0,108
60166be6:	772d      	cmpi	a3,45
60166be8:	6972      	li	s1,114
60166bea:	6574      	move	s3,a0
60166bec:	762d      	cmpi	a2,45
60166bee:	2d6d      	bnez	a1,60166cca <set_asrc_cpu_clk+0x1e>
60166bf0:	6974      	li	s1,116
60166bf2:	656d      	move	t3,a1
60166bf4:	3a73      	ld	v1,152(v0)
60166bf6:	0000      	addiu	s0,sp,0
60166bf8:	6019      	bteqz	60166c2c <reset_aec_asqt+0x24>
60166bfa:	bfc2      	lwu	a2,8(a3)
60166bfc:	6a59      	li	v0,89
60166bfe:	6016      	bteqz	60166c2c <reset_aec_asqt+0x24>
60166c00:	0000      	addiu	s0,sp,0
60166c02:	000f      	addiu	s0,sp,60
60166c04:	6009      	bteqz	60166c18 <reset_aec_asqt+0x10>
60166c06:	bfc2      	lwu	a2,8(a3)

60166c08 <reset_aec_asqt>:
60166c08:	64f4      	save	32,ra,s0-s1



/******************************************************************************/
/*!
 * \par  Description:复位aec调试内存值
 * \param[in]    none
 * \param[out]   none
 * \return       none
 * \  <author>       <time>        <opt>
 * \   Wekan       2015-4-1      creat
 *******************************************************************************/
int reset_aec_asqt(void)
{
60166c0a:	b121      	lw	s1,60166c8c <reset_aec_asqt+0x84>
    init_asqt_fifo(&g_asqt_parm.ppv_fifo, sizeof(g_pAsqtRam->ppv_data), (uint8*)g_pAsqtRam->ppv_data);
60166c0c:	99c0      	lw	a2,0(s1)
60166c0e:	b41f      	lw	a0,60166c88 <reset_aec_asqt+0x80>
60166c10:	f300 6d00 	li	a1,768
60166c14:	f400 4e00 	addiu	a2,1024
60166c18:	b01e      	lw	s0,60166c90 <reset_aec_asqt+0x88>
60166c1a:	e8c0      	jalrc	s0
60166c1c:	99c0      	lw	a2,0(s1)
    init_asqt_fifo(&g_asqt_parm.mic_fifo, sizeof(g_pAsqtRam->mic_data), (uint8*)g_pAsqtRam->mic_data);
60166c1e:	b41b      	lw	a0,60166c88 <reset_aec_asqt+0x80>
60166c20:	4c7f      	addiu	a0,127
60166c22:	f300 6d00 	li	a1,768
60166c26:	f700 4e00 	addiu	a2,1792
60166c2a:	e840      	jalr	s0
60166c2c:	4c59      	addiu	a0,89
60166c2e:	99c0      	lw	a2,0(s1)
    init_asqt_fifo(&g_asqt_parm.agc_fifo, sizeof(g_pAsqtRam->agc_data), (uint8*)g_pAsqtRam->agc_data);
60166c30:	b416      	lw	a0,60166c88 <reset_aec_asqt+0x80>
60166c32:	4c7f      	addiu	a0,127
60166c34:	f300 6d00 	li	a1,768
60166c38:	f201 4e00 	addiu	a2,2560
60166c3c:	e840      	jalr	s0
60166c3e:	4c4d      	addiu	a0,77
60166c40:	99c0      	lw	a2,0(s1)
    init_asqt_fifo(&g_asqt_parm.plc_fifo, sizeof(g_pAsqtRam->plc_data), (uint8*)g_pAsqtRam->plc_data);
60166c42:	b412      	lw	a0,60166c88 <reset_aec_asqt+0x80>
60166c44:	4c7f      	addiu	a0,127
60166c46:	f300 6d00 	li	a1,768
60166c4a:	f501 4e00 	addiu	a2,3328
60166c4e:	e840      	jalr	s0
60166c50:	4c65      	addiu	a0,101
60166c52:	9980      	lw	a0,0(s1)
    if(stub_asqt_get_parameter(g_pAsqtRam->rev_buf, &g_asqt_parm.AsqtCfg) > -1)//借用rev_buf
60166c54:	b10d      	lw	s1,60166c88 <reset_aec_asqt+0x80>
60166c56:	4938      	addiu	s1,56
60166c58:	f005 4c00 	addiu	a0,10240
60166c5c:	b20e      	lw	v0,60166c94 <reset_aec_asqt+0x8c>
60166c5e:	ea40      	jalr	v0
60166c60:	67b1      	move	a1,s1
60166c62:	5200      	slti	v0,0
60166c64:	610b      	btnez	60166c7c <reset_aec_asqt+0x74>
60166c66:	b00d      	lw	s0,60166c98 <reset_aec_asqt+0x90>
    {
        libc_memcpy((uint8*)&g_dsp_init_parm, (uint8*)dsp_init_set, sizeof(dsp_init_set));
60166c68:	6790      	move	a0,s0
60166c6a:	b50d      	lw	a1,60166c9c <reset_aec_asqt+0x94>
60166c6c:	6e60      	li	a2,96
60166c6e:	b20d      	lw	v0,60166ca0 <reset_aec_asqt+0x98>
60166c70:	ea40      	jalr	v0
60166c72:	6f00      	li	a3,0
60166c74:	6790      	move	a0,s0
        copy_dsp_aec_parm(&g_dsp_init_parm, &g_asqt_parm.AsqtCfg);
60166c76:	b20c      	lw	v0,60166ca4 <reset_aec_asqt+0x9c>
60166c78:	ea40      	jalr	v0
60166c7a:	67b1      	move	a1,s1
60166c7c:	b20b      	lw	v0,60166ca8 <reset_aec_asqt+0xa0>
    }
    init_m4k_dsp_ctl(0x3F);// 1111111     
60166c7e:	ea40      	jalr	v0
60166c80:	6c3f      	li	a0,63
60166c82:	6a00      	li	v0,0
    return 0;
}
60166c84:	6474      	restore	32,ra,s0-s1
60166c86:	e8a0      	jrc	ra
60166c88:	971c      	lw	a3,112(sp)
60166c8a:	9fc1      	lw	a2,4(a3)
60166c8c:	9698      	lw	a2,608(sp)
60166c8e:	9fc1      	lw	a2,4(a3)
60166c90:	6859      	li	s0,89
60166c92:	6016      	bteqz	60166cc0 <set_asrc_cpu_clk+0x14>
60166c94:	69e5      	li	s1,229
60166c96:	601a      	bteqz	60166ccc <set_asrc_cpu_clk+0x20>
60166c98:	96a0      	lw	a2,640(sp)
60166c9a:	9fc1      	lw	a2,4(a3)
60166c9c:	6df8      	li	a1,248
60166c9e:	6016      	bteqz	60166ccc <set_asrc_cpu_clk+0x20>
60166ca0:	6005      	bteqz	60166cac <set_asrc_cpu_clk>
60166ca2:	bfc2      	lwu	a2,8(a3)
60166ca4:	6a59      	li	v0,89
60166ca6:	6016      	bteqz	60166cd4 <set_asrc_cpu_clk+0x28>
60166ca8:	6869      	li	s0,105
60166caa:	6016      	bteqz	60166cd8 <set_asrc_cpu_clk+0x2c>

60166cac <set_asrc_cpu_clk>:
60166cac:	b411      	lw	a0,60166cf0 <set_asrc_cpu_clk+0x44>


/******************************************************************************/
/*!
 * \par  Description: 设置asrc-in为cpu读写
 * \param[in]    none
 * \param[out]   none
 * \return       none
 * \  <author>       <time>        <opt>
 * \   Wekan       2015-4-1      creat
 *******************************************************************************/
void set_asrc_cpu_clk(void)
{
    act_writel(act_readl(PCM_CTL) & (~(3u << 4)),PCM_CTL);//关pcm
60166cae:	9c40      	lw	v0,0(a0)
60166cb0:	6b31      	li	v1,49
60166cb2:	eb6b      	neg	v1
60166cb4:	ea6c      	and	v0,v1
60166cb6:	dc40      	sw	v0,0(a0)
60166cb8:	b50f      	lw	a1,60166cf4 <set_asrc_cpu_clk+0x48>
    act_writel(act_readl(ASRC_IN_CTL) & (~((1u << 1)|(3u<<11))), ASRC_IN_CTL);
60166cba:	9d40      	lw	v0,0(a1)
60166cbc:	f003 6c03 	li	a0,6147
60166cc0:	ec8b      	neg	a0
60166cc2:	ea8c      	and	v0,a0
60166cc4:	dd40      	sw	v0,0(a1)
60166cc6:	b30d      	lw	v1,60166cf8 <set_asrc_cpu_clk+0x4c>
    act_writel(act_readl(ASRC_OUT0_CTL) & (~((1u << 1)|(3u<<11))), ASRC_OUT0_CTL);
60166cc8:	9b40      	lw	v0,0(v1)
60166cca:	ea8c      	and	v0,a0
60166ccc:	db40      	sw	v0,0(v1)
60166cce:	9d40      	lw	v0,0(a1)
    set_asrc_in_wclk_cpu();
60166cd0:	f502 4c02 	addiu	a0,5378
60166cd4:	ea8c      	and	v0,a0
60166cd6:	dd40      	sw	v0,0(a1)
60166cd8:	9b40      	lw	v0,0(v1)
    set_asrc_out0_rclk_cpu();
60166cda:	ea8c      	and	v0,a0
60166cdc:	db40      	sw	v0,0(v1)
60166cde:	9d40      	lw	v0,0(a1)
    act_writel(act_readl(ASRC_IN_CTL) | (1u << 1)|(3u<<11), ASRC_IN_CTL);
60166ce0:	f303 4c03 	addiu	a0,6915
60166ce4:	ea8d      	or	v0,a0
60166ce6:	dd40      	sw	v0,0(a1)
60166ce8:	9b40      	lw	v0,0(v1)
    act_writel(act_readl(ASRC_OUT0_CTL) | (1u << 1)|(3u<<11), ASRC_OUT0_CTL);
60166cea:	ea8d      	or	v0,a0
60166cec:	db40      	sw	v0,0(v1)
60166cee:	e8a0      	jrc	ra
}
60166cf0:	0000      	addiu	s0,sp,0
60166cf2:	c017      	sb	s0,23(s0)
60166cf4:	0000      	addiu	s0,sp,0
60166cf6:	c016      	sb	s0,22(s0)
60166cf8:	0030      	addiu	s0,sp,192
60166cfa:	c016      	sb	s0,22(s0)

60166cfc <deal_load_simu_mmm>:
60166cfc:	64c3      	save	24,ra



/******************************************************************************/
/*!
 * \par  Description:加载模拟打电话的中间件
 * \param[in]    none
 * \param[out]   none
 * \return       none
 * \  <author>       <time>        <opt>
 * \   Wekan       2015-4-1      creat
 *******************************************************************************/
void deal_load_simu_mmm(void)
{
60166cfe:	b206      	lw	v0,60166d14 <deal_load_simu_mmm+0x18>
    asqt_set_dsp_init_parm();
60166d00:	eac0      	jalrc	v0
60166d02:	b206      	lw	v0,60166d18 <deal_load_simu_mmm+0x1c>
    btcalleg_load_hfp_mmm();
60166d04:	eac0      	jalrc	v0
60166d06:	6b00      	li	v1,0
    btcall_gl_var.g_sco_deal_flag = 0;//避免主线程退出mmm
60166d08:	b205      	lw	v0,60166d1c <deal_load_simu_mmm+0x20>
60166d0a:	c260      	sb	v1,0(v0)
60166d0c:	b205      	lw	v0,60166d20 <deal_load_simu_mmm+0x24>
    set_asrc_cpu_clk();
60166d0e:	eac0      	jalrc	v0
60166d10:	6443      	restore	24,ra
}
60166d12:	e8a0      	jrc	ra
60166d14:	6935      	li	s1,53
60166d16:	6016      	bteqz	60166d44 <btcall_eg_asqt_deal+0x20>
60166d18:	6801      	li	s0,1
60166d1a:	6012      	bteqz	60166d40 <btcall_eg_asqt_deal+0x1c>
60166d1c:	964c      	lw	a2,304(sp)
60166d1e:	9fc1      	lw	a2,4(a3)
60166d20:	6cad      	li	a0,173
60166d22:	6016      	bteqz	60166d50 <btcall_eg_asqt_deal+0x2c>

60166d24 <btcall_eg_asqt_deal>:
60166d24:	64f4      	save	32,ra,s0-s1



/******************************************************************************
 * \par  Description:   处理asqt功能，如果config.txt配置使能，
                                 则发异步消息给引擎，否则初始化为默认参数
 * \param[in]     null0
 * \param[out]   none
 * \return           none
 g_p_share_mem->Asqt_ctl,  g_p_share_mem->pAEC_parm  ,g_dsp_parm  ,g_pAsqtRam必须在开始前初始化好地址
 *   <author>    <time> 
 *    Wekan   2015-4-01  正常通话不会用到0x16c00的空间
 *******************************************************************************/

void btcall_eg_asqt_deal(uint8 stub_tool_type)
{
60166d26:	6724      	move	s1,a0
60166d28:	e911      	zeb	s1
60166d2a:	b221      	lw	v0,60166dac <btcall_eg_asqt_deal+0x88>
    //g_agc_aec_shm_ptr指针在进入ap时已经传递给dsp
    g_p_share_mem = (dsp_m4k_share_t *)g_agc_aec_shm_ptr;
60166d2c:	9a40      	lw	v0,0(v0)
60166d2e:	b31f      	lw	v1,60166da8 <btcall_eg_asqt_deal+0x84>
60166d30:	db40      	sw	v0,0(v1)
60166d32:	b220      	lw	v0,60166db0 <btcall_eg_asqt_deal+0x8c>
    g_stub_tools_type = stub_tool_type;
60166d34:	c220      	sb	s1,0(v0)
60166d36:	b420      	lw	a0,60166db4 <btcall_eg_asqt_deal+0x90>
    libc_memset((uint8*)&g_asqt_parm, 0x00, sizeof(g_asqt_parm));
60166d38:	6d00      	li	a1,0
60166d3a:	6ef4      	li	a2,244
60166d3c:	b01f      	lw	s0,60166db8 <btcall_eg_asqt_deal+0x94>
60166d3e:	e840      	jalr	s0
60166d40:	6f01      	li	a3,1
60166d42:	b21a      	lw	v0,60166da8 <btcall_eg_asqt_deal+0x84>
    libc_memset((uint8*)g_p_share_mem, 0x00, sizeof(dsp_m4k_share_t));
60166d44:	9a80      	lw	a0,0(v0)
60166d46:	6d00      	li	a1,0
60166d48:	6e7c      	li	a2,124
60166d4a:	e840      	jalr	s0
60166d4c:	6f01      	li	a3,1
60166d4e:	b21c      	lw	v0,60166dbc <btcall_eg_asqt_deal+0x98>
    init_m4k_dsp_ctl(0);
60166d50:	ea40      	jalr	v0
60166d52:	6c00      	li	a0,0
60166d54:	7101      	cmpi	s1,1

    if(stub_tool_type == STUB_PC_TOOL_ASQT_MODE)
60166d56:	6117      	btnez	60166d86 <btcall_eg_asqt_deal+0x62>
60166d58:	6b01      	li	v1,1
    {
        btcall_gl_var.stub_asqt_en = 1;
60166d5a:	b21a      	lw	v0,60166dc0 <btcall_eg_asqt_deal+0x9c>
60166d5c:	c26c      	sb	v1,12(v0)
60166d5e:	b31b      	lw	v1,60166dc8 <btcall_eg_asqt_deal+0xa4>
        g_pAsqtRam = (sv_asqt_ram_t *)&g_btcall_asqt_test_buf;
60166d60:	b219      	lw	v0,60166dc4 <btcall_eg_asqt_deal+0xa0>
60166d62:	da60      	sw	v1,0(v0)
60166d64:	b01a      	lw	s0,60166dcc <btcall_eg_asqt_deal+0xa8>
        if(g_stub_task_timer_id == -1)//定时器只初化一次
60166d66:	8040      	lb	v0,0(s0)
60166d68:	ea4f      	not	v0
60166d6a:	2a06      	bnez	v0,60166d78 <btcall_eg_asqt_deal+0x54>
60166d6c:	6c01      	li	a0,1
        {
            g_stub_task_timer_id = set_app_timer(APP_TIMER_ATTRB_CONTROL, 10, task_timer10ms);
60166d6e:	b619      	lw	a2,60166dd0 <btcall_eg_asqt_deal+0xac>
60166d70:	b219      	lw	v0,60166dd4 <btcall_eg_asqt_deal+0xb0>
60166d72:	ea40      	jalr	v0
60166d74:	6d0a      	li	a1,10
60166d76:	c040      	sb	v0,0(s0)
60166d78:	0c05      	la	a0,60166d8c <btcall_eg_asqt_deal+0x68>
        }
        PRINT_INFO_INT("asqt start.(0x2A00>)=",sizeof(sv_asqt_ram_t));
60166d7a:	f205 6d00 	li	a1,10752
60166d7e:	6e02      	li	a2,2
60166d80:	b216      	lw	v0,60166dd8 <btcall_eg_asqt_deal+0xb4>
60166d82:	ea40      	jalr	v0
60166d84:	6f4b      	li	a3,75
60166d86:	6474      	restore	32,ra,s0-s1
    }
}   	
60166d88:	e8a0      	jrc	ra
60166d8a:	0000      	addiu	s0,sp,0
60166d8c:	493c      	addiu	s1,60
60166d8e:	203e      	beqz	s0,60166e0c <dsp_init_set+0x14>
60166d90:	7361      	cmpi	v1,97
60166d92:	7471      	cmpi	a0,113
60166d94:	7320      	cmpi	v1,32
60166d96:	6174      	btnez	60166e80 <dsp_init_set+0x88>
60166d98:	7472      	cmpi	a0,114
60166d9a:	282e      	bnez	s0,60166df8 <dsp_init_set>
60166d9c:	7830      	sd	s1,128(s0)
60166d9e:	4132      	daddiu	s1,s1,2
60166da0:	3030      	sll	s0,s1,4
60166da2:	293e      	bnez	s1,60166e20 <dsp_init_set+0x28>
60166da4:	003d      	addiu	s0,sp,244
60166da6:	0000      	addiu	s0,sp,0
60166da8:	969c      	lw	a2,624(sp)
60166daa:	9fc1      	lw	a2,4(a3)
60166dac:	95a4      	lw	a1,656(sp)
60166dae:	9fc1      	lw	a2,4(a3)
60166db0:	95a8      	lw	a1,672(sp)
60166db2:	9fc1      	lw	a2,4(a3)
60166db4:	971c      	lw	a3,112(sp)
60166db6:	9fc1      	lw	a2,4(a3)
60166db8:	6005      	bteqz	60166dc4 <btcall_eg_asqt_deal+0xa0>
60166dba:	bfc2      	lwu	a2,8(a3)
60166dbc:	6869      	li	s0,105
60166dbe:	6016      	bteqz	60166dec <get_stub_type+0x10>
60166dc0:	964c      	lw	a2,304(sp)
60166dc2:	9fc1      	lw	a2,4(a3)
60166dc4:	9698      	lw	a2,608(sp)
60166dc6:	9fc1      	lw	a2,4(a3)
60166dc8:	6c00      	li	a0,0
60166dca:	bfc1      	lwu	a2,4(a3)
60166dcc:	9586      	lw	a1,536(sp)
60166dce:	9fc1      	lw	a2,4(a3)
60166dd0:	650d      	move	t0,a1
60166dd2:	bfc2      	lwu	a2,8(a3)
60166dd4:	6afd      	li	v0,253
60166dd6:	60a2      	bteqz	60166d1c <deal_load_simu_mmm+0x20>
60166dd8:	6009      	bteqz	60166dec <get_stub_type+0x10>
60166dda:	bfc2      	lwu	a2,8(a3)

60166ddc <get_stub_type>:
60166ddc:	64c4      	save	32,ra

/******************************************************************************/
/*!
 * \par  Description: 获取stub调试的类型，asqt为01
 * \param[in]    none
 * \param[out]   none
 * \return       none
 * \  <author>       <time>        <opt>
 * \   Wekan       2015-4-1      creat
 *******************************************************************************/
uint32 get_stub_type(void)
{
60166dde:	f71f 6c00 	li	a0,65280
    uint32 type;
    stub_get_data(0xFF00, &type, 4);
60166de2:	0504      	addiu	a1,sp,16
60166de4:	6e04      	li	a2,4
60166de6:	b204      	lw	v0,60166df4 <get_stub_type+0x18>
60166de8:	ea40      	jalr	v0
60166dea:	6f03      	li	a3,3
60166dec:	9204      	lw	v0,16(sp)
    return type;
}
60166dee:	6444      	restore	32,ra
60166df0:	e8a0      	jrc	ra
60166df2:	0000      	addiu	s0,sp,0
60166df4:	6019      	bteqz	60166e28 <dsp_init_set+0x30>
60166df6:	bfc2      	lwu	a2,8(a3)

60166df8 <dsp_init_set>:
60166df8:	0010 0000 1f40 0000 0001 0000 0040 0000     ....@.......@...
60166e08:	0001 0000 0006 0000 000f 0000 0001 0000     ................
60166e18:	0028 0000 0028 0000 0001 0000 000f 0000     (...(...........
60166e28:	0000 0000 ffc4 ffff 0000 0000 0100 0000     ................
60166e38:	0080 0000 0003 0000 000a 0000 0004 0000     ................
60166e48:	0007 0000 0000 0000 0000 0000 0003 0000     ................
Disassembly of section BANK_CONTROL_1_6:

601a6800 <asqt_write_fifo>:
601a6800:	f00c 64f5 	save	a0-a2,40,ra,s0-s1
601a6804:	6704      	move	s0,a0
601a6806:	6c00      	li	a0,0
601a6808:	67a4      	move	a1,a0
601a680a:	67c4      	move	a2,a0
601a680c:	b21c      	lw	v0,601a687c <asqt_write_fifo+0x7c>
601a680e:	ea40      	jalr	v0
601a6810:	6f2d      	li	a3,45
601a6812:	d204      	sw	v0,16(sp)
601a6814:	6900      	li	s1,0
601a6816:	920c      	lw	v0,48(sp)
601a6818:	2222      	beqz	v0,601a685e <asqt_write_fifo+0x5e>
601a681a:	a842      	lhu	v0,4(s0)
601a681c:	a863      	lhu	v1,6(s0)
601a681e:	ea6e      	xor	v0,v1
601a6820:	2a07      	bnez	v0,601a6830 <asqt_write_fifo+0x30>
601a6822:	0c14      	la	a0,601a6870 <asqt_write_fifo+0x70>
601a6824:	67b0      	move	a1,s0
601a6826:	6e02      	li	a2,2
601a6828:	b215      	lw	v0,601a687c <asqt_write_fifo+0x7c>
601a682a:	ea40      	jalr	v0
601a682c:	6f41      	li	a3,65
601a682e:	1017      	b	601a685e <asqt_write_fifo+0x5e>
601a6830:	a860      	lhu	v1,0(s0)
601a6832:	9842      	lw	v0,8(s0)
601a6834:	e269      	addu	v0,v1
601a6836:	940b      	lw	a0,44(sp)
601a6838:	e42d      	addu	v1,a0,s1
601a683a:	a360      	lbu	v1,0(v1)
601a683c:	c260      	sb	v1,0(v0)
601a683e:	a842      	lhu	v0,4(s0)
601a6840:	4241      	addiu	v0,v0,1
601a6842:	c842      	sh	v0,4(s0)
601a6844:	a840      	lhu	v0,0(s0)
601a6846:	4241      	addiu	v0,v0,1
601a6848:	c840      	sh	v0,0(s0)
601a684a:	a860      	lhu	v1,0(s0)
601a684c:	a843      	lhu	v0,6(s0)
601a684e:	eb43      	sltu	v1,v0
601a6850:	6102      	btnez	601a6856 <asqt_write_fifo+0x56>
601a6852:	6a00      	li	v0,0
601a6854:	c840      	sh	v0,0(s0)
601a6856:	4121      	addiu	s1,s1,1
601a6858:	920c      	lw	v0,48(sp)
601a685a:	e943      	sltu	s1,v0
601a685c:	61de      	btnez	601a681a <asqt_write_fifo+0x1a>
601a685e:	9404      	lw	a0,16(sp)
601a6860:	6d00      	li	a1,0
601a6862:	67c5      	move	a2,a1
601a6864:	b206      	lw	v0,601a687c <asqt_write_fifo+0x7c>
601a6866:	ea40      	jalr	v0
601a6868:	6f2e      	li	a3,46
601a686a:	6751      	move	v0,s1
601a686c:	6475      	restore	40,ra,s0-s1
601a686e:	e8a0      	jrc	ra
601a6870:	7361      	cmpi	v1,97
601a6872:	7471      	cmpi	a0,113
601a6874:	662d      	0x662d
601a6876:	6c75      	li	a0,117
601a6878:	2e6c      	bnez	a2,601a6952 <send_data_to_asrc+0x12>
601a687a:	0026      	addiu	s0,sp,152
601a687c:	6009      	bteqz	601a6890 <asqt_read_fifo+0x10>
601a687e:	bfc2      	lwu	a2,8(a3)

601a6880 <asqt_read_fifo>:
601a6880:	f00c 64f4 	save	a0-a2,32,ra,s0-s1
601a6884:	6704      	move	s0,a0
601a6886:	6c00      	li	a0,0
601a6888:	67a4      	move	a1,a0
601a688a:	67c4      	move	a2,a0
601a688c:	b215      	lw	v0,601a68e0 <asqt_read_fifo+0x60>
601a688e:	ea40      	jalr	v0
601a6890:	6f2d      	li	a3,45
601a6892:	67a2      	move	a1,v0
601a6894:	6900      	li	s1,0
601a6896:	920a      	lw	v0,40(sp)
601a6898:	2219      	beqz	v0,601a68cc <asqt_read_fifo+0x4c>
601a689a:	a842      	lhu	v0,4(s0)
601a689c:	2217      	beqz	v0,601a68cc <asqt_read_fifo+0x4c>
601a689e:	9209      	lw	v0,36(sp)
601a68a0:	e231      	addu	a0,v0,s1
601a68a2:	a861      	lhu	v1,2(s0)
601a68a4:	9842      	lw	v0,8(s0)
601a68a6:	e269      	addu	v0,v1
601a68a8:	a240      	lbu	v0,0(v0)
601a68aa:	c440      	sb	v0,0(a0)
601a68ac:	a842      	lhu	v0,4(s0)
601a68ae:	424f      	addiu	v0,v0,-1
601a68b0:	c842      	sh	v0,4(s0)
601a68b2:	a841      	lhu	v0,2(s0)
601a68b4:	4241      	addiu	v0,v0,1
601a68b6:	c841      	sh	v0,2(s0)
601a68b8:	a861      	lhu	v1,2(s0)
601a68ba:	a843      	lhu	v0,6(s0)
601a68bc:	eb43      	sltu	v1,v0
601a68be:	6102      	btnez	601a68c4 <asqt_read_fifo+0x44>
601a68c0:	6a00      	li	v0,0
601a68c2:	c841      	sh	v0,2(s0)
601a68c4:	4121      	addiu	s1,s1,1
601a68c6:	920a      	lw	v0,40(sp)
601a68c8:	e943      	sltu	s1,v0
601a68ca:	61e7      	btnez	601a689a <asqt_read_fifo+0x1a>
601a68cc:	6785      	move	a0,a1
601a68ce:	6d00      	li	a1,0
601a68d0:	67c5      	move	a2,a1
601a68d2:	b204      	lw	v0,601a68e0 <asqt_read_fifo+0x60>
601a68d4:	ea40      	jalr	v0
601a68d6:	6f2e      	li	a3,46
601a68d8:	6751      	move	v0,s1
601a68da:	6474      	restore	32,ra,s0-s1
601a68dc:	e8a0      	jrc	ra
601a68de:	0000      	addiu	s0,sp,0
601a68e0:	6009      	bteqz	601a68f4 <get_asqt_frame_addr+0x10>
601a68e2:	bfc2      	lwu	a2,8(a3)

601a68e4 <get_asqt_frame_addr>:
601a68e4:	ec11      	zeb	a0
601a68e6:	3488      	sll	a0,2
601a68e8:	b207      	lw	v0,601a6904 <get_asqt_frame_addr+0x20>
601a68ea:	e451      	addu	a0,v0
601a68ec:	f080 9c7c 	lw	v1,156(a0)
601a68f0:	6a03      	li	v0,3
601a68f2:	ea6c      	and	v0,v1
601a68f4:	3240      	sll	v0,8
601a68f6:	f0a0 9cb4 	lw	a1,180(a0)
601a68fa:	4361      	addiu	v1,v1,1
601a68fc:	f080 dc7c 	sw	v1,156(a0)
601a6900:	e820      	jr	ra
601a6902:	e2a9      	addu	v0,a1
601a6904:	971c      	lw	a3,112(sp)
601a6906:	9fc1      	lw	a2,4(a3)

601a6908 <push_to_fifo>:
601a6908:	64e3      	save	24,ra,s0
601a690a:	6704      	move	s0,a0
601a690c:	6785      	move	a0,a1
601a690e:	ec11      	zeb	a0
601a6910:	a843      	lhu	v0,6(s0)
601a6912:	a862      	lhu	v1,4(s0)
601a6914:	f100 4b00 	addiu	v1,256
601a6918:	ea62      	slt	v0,v1
601a691a:	610a      	btnez	601a6930 <push_to_fifo+0x28>
601a691c:	b207      	lw	v0,601a6938 <push_to_fifo+0x30>
601a691e:	eac0      	jalrc	v0
601a6920:	6790      	move	a0,s0
601a6922:	67a2      	move	a1,v0
601a6924:	6eff      	li	a2,255
601a6926:	b206      	lw	v0,601a693c <push_to_fifo+0x34>
601a6928:	ea40      	jalr	v0
601a692a:	46c1      	addiu	a2,a2,1
601a692c:	6a01      	li	v0,1
601a692e:	1001      	b	601a6932 <push_to_fifo+0x2a>
601a6930:	6a00      	li	v0,0
601a6932:	6463      	restore	24,ra,s0
601a6934:	e8a0      	jrc	ra
601a6936:	0000      	addiu	s0,sp,0
601a6938:	68e5      	li	s0,229
601a693a:	601a      	bteqz	601a6970 <send_data_to_asrc+0x30>
601a693c:	6801      	li	s0,1
601a693e:	601a      	bteqz	601a6974 <send_data_to_asrc+0x34>

601a6940 <send_data_to_asrc>:
601a6940:	f004 64f4 	save	a0,32,ra,s0-s1
601a6944:	6900      	li	s1,0
601a6946:	6711      	move	s0,s1
601a6948:	4001      	addiu	s0,s0,1
601a694a:	b314      	lw	v1,601a6998 <send_data_to_asrc+0x58>
601a694c:	a340      	lbu	v0,0(v1)
601a694e:	2a09      	bnez	v0,601a6962 <send_data_to_asrc+0x22>
601a6950:	9408      	lw	a0,32(sp)
601a6952:	b513      	lw	a1,601a699c <send_data_to_asrc+0x5c>
601a6954:	b213      	lw	v0,601a69a0 <send_data_to_asrc+0x60>
601a6956:	ea40      	jalr	v0
601a6958:	6e02      	li	a2,2
601a695a:	221b      	beqz	v0,601a6992 <send_data_to_asrc+0x52>
601a695c:	6a01      	li	v0,1
601a695e:	b30f      	lw	v1,601a6998 <send_data_to_asrc+0x58>
601a6960:	c340      	sb	v0,0(v1)
601a6962:	b211      	lw	v0,601a69a4 <send_data_to_asrc+0x64>
601a6964:	9a40      	lw	v0,0(v0)
601a6966:	6b04      	li	v1,4
601a6968:	ea6c      	and	v0,v1
601a696a:	220e      	beqz	v0,601a6988 <send_data_to_asrc+0x48>
601a696c:	b30c      	lw	v1,601a699c <send_data_to_asrc+0x5c>
601a696e:	9b40      	lw	v0,0(v1)
601a6970:	3240      	sll	v0,8
601a6972:	3240      	sll	v0,8
601a6974:	db40      	sw	v0,0(v1)
601a6976:	b30d      	lw	v1,601a69a8 <send_data_to_asrc+0x68>
601a6978:	db40      	sw	v0,0(v1)
601a697a:	db40      	sw	v0,0(v1)
601a697c:	6a00      	li	v0,0
601a697e:	b307      	lw	v1,601a6998 <send_data_to_asrc+0x58>
601a6980:	c340      	sb	v0,0(v1)
601a6982:	6800      	li	s0,0
601a6984:	4121      	addiu	s1,s1,1
601a6986:	1003      	b	601a698e <send_data_to_asrc+0x4e>
601a6988:	f3e0 5809 	sltiu	s0,1001
601a698c:	6002      	bteqz	601a6992 <send_data_to_asrc+0x52>
601a698e:	59a0      	sltiu	s1,160
601a6990:	61db      	btnez	601a6948 <send_data_to_asrc+0x8>
601a6992:	6751      	move	v0,s1
601a6994:	6474      	restore	32,ra,s0-s1
601a6996:	e8a0      	jrc	ra
601a6998:	9681      	lw	a2,516(sp)
601a699a:	9fc1      	lw	a2,4(a3)
601a699c:	9684      	lw	a2,528(sp)
601a699e:	9fc1      	lw	a2,4(a3)
601a69a0:	6881      	li	s0,129
601a69a2:	601a      	bteqz	601a69d8 <stub_asqt_get_status+0x10>
601a69a4:	0020      	addiu	s0,sp,128
601a69a6:	c016      	sb	s0,22(s0)
601a69a8:	0014      	addiu	s0,sp,80
601a69aa:	c016      	sb	s0,22(s0)

601a69ac <stub_asqt_get_volums>:
601a69ac:	64e3      	save	24,ra,s0
601a69ae:	6704      	move	s0,a0
601a69b0:	f501 6c00 	li	a0,3328
601a69b4:	67b0      	move	a1,s0
601a69b6:	6e04      	li	a2,4
601a69b8:	b203      	lw	v0,601a69c4 <stub_asqt_get_volums+0x18>
601a69ba:	ea40      	jalr	v0
601a69bc:	6f03      	li	a3,3
601a69be:	9840      	lw	v0,0(s0)
601a69c0:	6463      	restore	24,ra,s0
601a69c2:	e8a0      	jrc	ra
601a69c4:	6019      	bteqz	601a69f8 <.L33+0xe>
601a69c6:	bfc2      	lwu	a2,8(a3)

601a69c8 <stub_asqt_get_status>:
601a69c8:	64e3      	save	24,ra,s0
601a69ca:	6704      	move	s0,a0
601a69cc:	6cff      	li	a0,255
601a69ce:	4481      	addiu	a0,a0,1
601a69d0:	67b0      	move	a1,s0
601a69d2:	6e04      	li	a2,4
601a69d4:	b203      	lw	v0,601a69e0 <stub_asqt_get_status+0x18>
601a69d6:	ea40      	jalr	v0
601a69d8:	6f03      	li	a3,3
601a69da:	9840      	lw	v0,0(s0)
601a69dc:	6463      	restore	24,ra,s0
601a69de:	e8a0      	jrc	ra
601a69e0:	6019      	bteqz	601a6a14 <.L33+0x2a>
601a69e2:	bfc2      	lwu	a2,8(a3)

601a69e4 <stub_asqt_get_parameter>:
601a69e4:	f008 64f4 	save	a0-a1,32,ra,s0-s1
601a69e8:	6724      	move	s1,a0

601a69ea <.L33>:
601a69ea:	f200 6c00 	li	a0,512
601a69ee:	67b1      	move	a1,s1
601a69f0:	6e64      	li	a2,100
601a69f2:	b218      	lw	v0,601a6a50 <.L33+0x66>
601a69f4:	ea40      	jalr	v0
601a69f6:	6f03      	li	a3,3
601a69f8:	6702      	move	s0,v0
601a69fa:	ea4f      	not	v0
601a69fc:	2210      	beqz	v0,601a6a1e <.L33+0x34>
601a69fe:	9209      	lw	v0,36(sp)
601a6a00:	2206      	beqz	v0,601a6a0e <.L33+0x24>
601a6a02:	6782      	move	a0,v0
601a6a04:	67b1      	move	a1,s1
601a6a06:	6e64      	li	a2,100
601a6a08:	b213      	lw	v0,601a6a54 <.L33+0x6a>
601a6a0a:	ea40      	jalr	v0
601a6a0c:	6f00      	li	a3,0
601a6a0e:	9957      	lw	v0,92(s1)
601a6a10:	b312      	lw	v1,601a6a58 <.L33+0x6e>
601a6a12:	c340      	sb	v0,0(v1)
601a6a14:	7064      	cmpi	s0,100
601a6a16:	600f      	bteqz	601a6a36 <.L33+0x4c>
601a6a18:	6a01      	li	v0,1
601a6a1a:	d958      	sw	v0,96(s1)
601a6a1c:	100c      	b	601a6a36 <.L33+0x4c>
601a6a1e:	6c32      	li	a0,50
601a6a20:	6d00      	li	a1,0
601a6a22:	67c5      	move	a2,a1
601a6a24:	b00e      	lw	s0,601a6a5c <.L33+0x72>
601a6a26:	e840      	jalr	s0
601a6a28:	6f31      	li	a3,49
601a6a2a:	0c05      	la	a0,601a6a3c <.L33+0x52>
601a6a2c:	6d00      	li	a1,0
601a6a2e:	67c5      	move	a2,a1
601a6a30:	e840      	jalr	s0
601a6a32:	6f4b      	li	a3,75
601a6a34:	17da      	b	601a69ea <.L33>
601a6a36:	6750      	move	v0,s0
601a6a38:	6474      	restore	32,ra,s0-s1
601a6a3a:	e8a0      	jrc	ra
601a6a3c:	7361      	cmpi	v1,97
601a6a3e:	7471      	cmpi	a0,113
601a6a40:	672d      	move	s1,t5
601a6a42:	7465      	cmpi	a0,101
601a6a44:	702d      	cmpi	s0,45
601a6a46:	7261      	cmpi	v0,97
601a6a48:	2d6d      	bnez	a1,601a6b24 <stub_asqt_send_result_ext+0x60>
601a6a4a:	7265      	cmpi	v0,101
601a6a4c:	0072      	addiu	s0,sp,456
601a6a4e:	0000      	addiu	s0,sp,0
601a6a50:	6019      	bteqz	601a6a84 <stub_asqt_get_remote_voice+0x24>
601a6a52:	bfc2      	lwu	a2,8(a3)
601a6a54:	6005      	bteqz	601a6a60 <stub_asqt_get_remote_voice>
601a6a56:	bfc2      	lwu	a2,8(a3)
601a6a58:	9680      	lw	a2,512(sp)
601a6a5a:	9fc1      	lw	a2,4(a3)
601a6a5c:	6009      	bteqz	601a6a70 <stub_asqt_get_remote_voice+0x10>
601a6a5e:	bfc2      	lwu	a2,8(a3)

601a6a60 <stub_asqt_get_remote_voice>:
601a6a60:	f004 64f4 	save	a0,32,ra,s0-s1
601a6a64:	6900      	li	s1,0
601a6a66:	b00d      	lw	s0,601a6a98 <stub_asqt_get_remote_voice+0x38>
601a6a68:	a842      	lhu	v0,4(s0)
601a6a6a:	4a7f      	addiu	v0,127
601a6a6c:	4a21      	addiu	v0,33
601a6a6e:	a863      	lhu	v1,6(s0)
601a6a70:	eb42      	slt	v1,v0
601a6a72:	610f      	btnez	601a6a92 <stub_asqt_get_remote_voice+0x32>
601a6a74:	f300 6c00 	li	a0,768
601a6a78:	9508      	lw	a1,32(sp)
601a6a7a:	6ea0      	li	a2,160
601a6a7c:	b208      	lw	v0,601a6a9c <stub_asqt_get_remote_voice+0x3c>
601a6a7e:	ea40      	jalr	v0
601a6a80:	6f03      	li	a3,3
601a6a82:	ea22      	slt	v0,s1
601a6a84:	6106      	btnez	601a6a92 <stub_asqt_get_remote_voice+0x32>
601a6a86:	6790      	move	a0,s0
601a6a88:	9508      	lw	a1,32(sp)
601a6a8a:	b206      	lw	v0,601a6aa0 <stub_asqt_get_remote_voice+0x40>
601a6a8c:	ea40      	jalr	v0
601a6a8e:	6ea0      	li	a2,160
601a6a90:	4121      	addiu	s1,s1,1
601a6a92:	6751      	move	v0,s1
601a6a94:	6474      	restore	32,ra,s0-s1
601a6a96:	e8a0      	jrc	ra
601a6a98:	971c      	lw	a3,112(sp)
601a6a9a:	9fc1      	lw	a2,4(a3)
601a6a9c:	6019      	bteqz	601a6ad0 <stub_asqt_send_result_ext+0xc>
601a6a9e:	bfc2      	lwu	a2,8(a3)
601a6aa0:	6801      	li	s0,1
601a6aa2:	601a      	bteqz	601a6ad8 <stub_asqt_send_result_ext+0x14>

601a6aa4 <stub_asqt_send_remote_phone_volce>:
601a6aa4:	64c3      	save	24,ra
601a6aa6:	67a4      	move	a1,a0
601a6aa8:	6a00      	li	v0,0
601a6aaa:	dc40      	sw	v0,0(a0)
601a6aac:	dc41      	sw	v0,4(a0)
601a6aae:	f600 6c00 	li	a0,1536
601a6ab2:	6ea0      	li	a2,160
601a6ab4:	b203      	lw	v0,601a6ac0 <stub_asqt_send_remote_phone_volce+0x1c>
601a6ab6:	ea40      	jalr	v0
601a6ab8:	6f04      	li	a3,4
601a6aba:	6443      	restore	24,ra
601a6abc:	e8a0      	jrc	ra
601a6abe:	0000      	addiu	s0,sp,0
601a6ac0:	6019      	bteqz	601a6af4 <stub_asqt_send_result_ext+0x30>
601a6ac2:	bfc2      	lwu	a2,8(a3)

601a6ac4 <stub_asqt_send_result_ext>:
601a6ac4:	f00c 64f5 	save	a0-a2,40,ra,s0-s1
601a6ac8:	6724      	move	s1,a0
601a6aca:	6744      	move	v0,a0
601a6acc:	4a08      	addiu	v0,8
601a6ace:	d205      	sw	v0,20(sp)
601a6ad0:	f201 7500 	cmpi	a1,2560
601a6ad4:	6103      	btnez	601a6adc <stub_asqt_send_result_ext+0x18>
601a6ad6:	6b01      	li	v1,1
601a6ad8:	d304      	sw	v1,16(sp)
601a6ada:	1002      	b	601a6ae0 <stub_asqt_send_result_ext+0x1c>
601a6adc:	6a04      	li	v0,4
601a6ade:	d204      	sw	v0,16(sp)
601a6ae0:	9304      	lw	v1,16(sp)
601a6ae2:	3268      	sll	v0,v1,2
601a6ae4:	b313      	lw	v1,601a6b30 <stub_asqt_send_result_ext+0x6c>
601a6ae6:	e269      	addu	v0,v1
601a6ae8:	4a7c      	addiu	v0,124
601a6aea:	9a48      	lw	v0,32(v0)
601a6aec:	930c      	lw	v1,48(sp)
601a6aee:	ea63      	sltu	v0,v1
601a6af0:	601d      	bteqz	601a6b2c <stub_asqt_send_result_ext+0x68>
601a6af2:	6800      	li	s0,0
601a6af4:	d900      	sw	s0,0(s1)
601a6af6:	d901      	sw	s0,4(s1)
601a6af8:	b20f      	lw	v0,601a6b34 <stub_asqt_send_result_ext+0x70>
601a6afa:	ea40      	jalr	v0
601a6afc:	9404      	lw	a0,16(sp)
601a6afe:	9405      	lw	a0,20(sp)
601a6b00:	67a2      	move	a1,v0
601a6b02:	6eff      	li	a2,255
601a6b04:	46c1      	addiu	a2,a2,1
601a6b06:	b20d      	lw	v0,601a6b38 <stub_asqt_send_result_ext+0x74>
601a6b08:	ea40      	jalr	v0
601a6b0a:	67f0      	move	a3,s0
601a6b0c:	940b      	lw	a0,44(sp)
601a6b0e:	67b1      	move	a1,s1
601a6b10:	6eff      	li	a2,255
601a6b12:	46c1      	addiu	a2,a2,1
601a6b14:	b20a      	lw	v0,601a6b3c <stub_asqt_send_result_ext+0x78>
601a6b16:	ea40      	jalr	v0
601a6b18:	6f04      	li	a3,4
601a6b1a:	9304      	lw	v1,16(sp)
601a6b1c:	3268      	sll	v0,v1,2
601a6b1e:	b305      	lw	v1,601a6b30 <stub_asqt_send_result_ext+0x6c>
601a6b20:	e269      	addu	v0,v1
601a6b22:	4a7c      	addiu	v0,124
601a6b24:	9a48      	lw	v0,32(v0)
601a6b26:	930c      	lw	v1,48(sp)
601a6b28:	ea63      	sltu	v0,v1
601a6b2a:	61e4      	btnez	601a6af4 <stub_asqt_send_result_ext+0x30>
601a6b2c:	6475      	restore	40,ra,s0-s1
601a6b2e:	e8a0      	jrc	ra
601a6b30:	971c      	lw	a3,112(sp)
601a6b32:	9fc1      	lw	a2,4(a3)
601a6b34:	68e5      	li	s0,229
601a6b36:	601a      	bteqz	601a6b6c <stub_asqt_send_result_merger+0x2c>
601a6b38:	6005      	bteqz	601a6b44 <stub_asqt_send_result_merger+0x4>
601a6b3a:	bfc2      	lwu	a2,8(a3)
601a6b3c:	6019      	bteqz	601a6b70 <stub_asqt_send_result_merger+0x30>
601a6b3e:	bfc2      	lwu	a2,8(a3)

601a6b40 <stub_asqt_send_result_merger>:
601a6b40:	f008 64f4 	save	a0-a1,32,ra,s0-s1
601a6b44:	6724      	move	s1,a0
601a6b46:	b221      	lw	v0,601a6bc8 <stub_asqt_send_result_merger+0x88>
601a6b48:	4a7c      	addiu	v0,124
601a6b4a:	9a4c      	lw	v0,48(v0)
601a6b4c:	eaa3      	sltu	v0,a1
601a6b4e:	6039      	bteqz	601a6bc2 <stub_asqt_send_result_merger+0x82>
601a6b50:	6a00      	li	v0,0
601a6b52:	d940      	sw	v0,0(s1)
601a6b54:	d941      	sw	v0,4(s1)
601a6b56:	6711      	move	s0,s1
601a6b58:	4808      	addiu	s0,8
601a6b5a:	b21d      	lw	v0,601a6bcc <stub_asqt_send_result_merger+0x8c>
601a6b5c:	a240      	lbu	v0,0(v0)
601a6b5e:	7201      	cmpi	v0,1
601a6b60:	6107      	btnez	601a6b70 <stub_asqt_send_result_merger+0x30>
601a6b62:	b41a      	lw	a0,601a6bc8 <stub_asqt_send_result_merger+0x88>
601a6b64:	67b0      	move	a1,s0
601a6b66:	6eff      	li	a2,255
601a6b68:	b31a      	lw	v1,601a6bd0 <stub_asqt_send_result_merger+0x90>
601a6b6a:	eb40      	jalr	v1
601a6b6c:	46c1      	addiu	a2,a2,1
601a6b6e:	1007      	b	601a6b7e <stub_asqt_send_result_merger+0x3e>
601a6b70:	6790      	move	a0,s0
601a6b72:	6d00      	li	a1,0
601a6b74:	6eff      	li	a2,255
601a6b76:	46c1      	addiu	a2,a2,1
601a6b78:	b217      	lw	v0,601a6bd4 <stub_asqt_send_result_merger+0x94>
601a6b7a:	ea40      	jalr	v0
601a6b7c:	6f01      	li	a3,1
601a6b7e:	f100 4800 	addiu	s0,256
601a6b82:	b416      	lw	a0,601a6bd8 <stub_asqt_send_result_merger+0x98>
601a6b84:	67b0      	move	a1,s0
601a6b86:	6eff      	li	a2,255
601a6b88:	b312      	lw	v1,601a6bd0 <stub_asqt_send_result_merger+0x90>
601a6b8a:	eb40      	jalr	v1
601a6b8c:	46c1      	addiu	a2,a2,1
601a6b8e:	f100 4800 	addiu	s0,256
601a6b92:	b213      	lw	v0,601a6bdc <stub_asqt_send_result_merger+0x9c>
601a6b94:	ea40      	jalr	v0
601a6b96:	6c04      	li	a0,4
601a6b98:	6790      	move	a0,s0
601a6b9a:	67a2      	move	a1,v0
601a6b9c:	6eff      	li	a2,255
601a6b9e:	46c1      	addiu	a2,a2,1
601a6ba0:	b20d      	lw	v0,601a6bd4 <stub_asqt_send_result_merger+0x94>
601a6ba2:	ea40      	jalr	v0
601a6ba4:	6f00      	li	a3,0
601a6ba6:	f401 6c00 	li	a0,3072
601a6baa:	67b1      	move	a1,s1
601a6bac:	f300 6e00 	li	a2,768
601a6bb0:	b20c      	lw	v0,601a6be0 <stub_asqt_send_result_merger+0xa0>
601a6bb2:	ea40      	jalr	v0
601a6bb4:	6f04      	li	a3,4
601a6bb6:	b305      	lw	v1,601a6bc8 <stub_asqt_send_result_merger+0x88>
601a6bb8:	f0a0 9b4c 	lw	v0,172(v1)
601a6bbc:	9309      	lw	v1,36(sp)
601a6bbe:	ea63      	sltu	v0,v1
601a6bc0:	61c7      	btnez	601a6b50 <stub_asqt_send_result_merger+0x10>
601a6bc2:	6474      	restore	32,ra,s0-s1
601a6bc4:	e8a0      	jrc	ra
601a6bc6:	0000      	addiu	s0,sp,0
601a6bc8:	971c      	lw	a3,112(sp)
601a6bca:	9fc1      	lw	a2,4(a3)
601a6bcc:	9680      	lw	a2,512(sp)
601a6bce:	9fc1      	lw	a2,4(a3)
601a6bd0:	6881      	li	s0,129
601a6bd2:	601a      	bteqz	601a6c08 <stub_asqt_send_result+0x24>
601a6bd4:	6005      	bteqz	601a6be0 <stub_asqt_send_result_merger+0xa0>
601a6bd6:	bfc2      	lwu	a2,8(a3)
601a6bd8:	9800      	lw	s0,0(s0)
601a6bda:	9fc1      	lw	a2,4(a3)
601a6bdc:	68e5      	li	s0,229
601a6bde:	601a      	bteqz	601a6c14 <stub_asqt_send_result+0x30>
601a6be0:	6019      	bteqz	601a6c14 <stub_asqt_send_result+0x30>
601a6be2:	bfc2      	lwu	a2,8(a3)

601a6be4 <stub_asqt_send_result>:
601a6be4:	f004 64f6 	save	a0,48,ra,s0-s1
601a6be8:	6a00      	li	v0,0
601a6bea:	dc40      	sw	v0,0(a0)
601a6bec:	930c      	lw	v1,48(sp)
601a6bee:	db41      	sw	v0,4(v1)
601a6bf0:	b41d      	lw	a0,601a6c64 <stub_asqt_send_result+0x80>
601a6bf2:	67a3      	move	a1,v1
601a6bf4:	4d08      	addiu	a1,8
601a6bf6:	6eff      	li	a2,255
601a6bf8:	b01c      	lw	s0,601a6c68 <stub_asqt_send_result+0x84>
601a6bfa:	e840      	jalr	s0
601a6bfc:	46c1      	addiu	a2,a2,1
601a6bfe:	b41a      	lw	a0,601a6c64 <stub_asqt_send_result+0x80>
601a6c00:	4cf4      	addiu	a0,-12
601a6c02:	950c      	lw	a1,48(sp)
601a6c04:	f100 4d08 	addiu	a1,264
601a6c08:	6eff      	li	a2,255
601a6c0a:	e840      	jalr	s0
601a6c0c:	46c1      	addiu	a2,a2,1
601a6c0e:	900c      	lw	s0,48(sp)
601a6c10:	f200 4800 	addiu	s0,512
601a6c14:	0404      	addiu	a0,sp,16
601a6c16:	40ac      	addiu	a1,s0,-4
601a6c18:	6e0c      	li	a2,12
601a6c1a:	b115      	lw	s1,601a6c6c <stub_asqt_send_result+0x88>
601a6c1c:	e940      	jalr	s1
601a6c1e:	6f00      	li	a3,0
601a6c20:	6790      	move	a0,s0
601a6c22:	0504      	addiu	a1,sp,16
601a6c24:	6e0c      	li	a2,12
601a6c26:	e940      	jalr	s1
601a6c28:	6f00      	li	a3,0
601a6c2a:	480c      	addiu	s0,12
601a6c2c:	b211      	lw	v0,601a6c70 <stub_asqt_send_result+0x8c>
601a6c2e:	ea40      	jalr	v0
601a6c30:	6c05      	li	a0,5
601a6c32:	6790      	move	a0,s0
601a6c34:	67a2      	move	a1,v0
601a6c36:	6eff      	li	a2,255
601a6c38:	46c1      	addiu	a2,a2,1
601a6c3a:	e940      	jalr	s1
601a6c3c:	6f00      	li	a3,0
601a6c3e:	f100 4080 	addiu	a0,s0,256
601a6c42:	b509      	lw	a1,601a6c64 <stub_asqt_send_result+0x80>
601a6c44:	4d80      	addiu	a1,-128
601a6c46:	4db4      	addiu	a1,-76
601a6c48:	6e2c      	li	a2,44
601a6c4a:	e940      	jalr	s1
601a6c4c:	6f00      	li	a3,0
601a6c4e:	f400 6c00 	li	a0,1024
601a6c52:	950c      	lw	a1,48(sp)
601a6c54:	f320 6e10 	li	a2,816
601a6c58:	b207      	lw	v0,601a6c74 <stub_asqt_send_result+0x90>
601a6c5a:	ea40      	jalr	v0
601a6c5c:	6f04      	li	a3,4
601a6c5e:	6476      	restore	48,ra,s0-s1
601a6c60:	e8a0      	jrc	ra
601a6c62:	0000      	addiu	s0,sp,0
601a6c64:	97f4      	lw	a3,976(sp)
601a6c66:	9fc1      	lw	a2,4(a3)
601a6c68:	6881      	li	s0,129
601a6c6a:	601a      	bteqz	601a6ca0 <asqt_get_result_and_send+0x28>
601a6c6c:	6005      	bteqz	601a6c78 <asqt_get_result_and_send>
601a6c6e:	bfc2      	lwu	a2,8(a3)
601a6c70:	68e5      	li	s0,229
601a6c72:	601a      	bteqz	601a6ca8 <asqt_get_result_and_send+0x30>
601a6c74:	6019      	bteqz	601a6ca8 <asqt_get_result_and_send+0x30>
601a6c76:	bfc2      	lwu	a2,8(a3)

601a6c78 <asqt_get_result_and_send>:
601a6c78:	f004 64f7 	save	a0,56,ra,s0-s1
601a6c7c:	6c00      	li	a0,0
601a6c7e:	0604      	addiu	a2,sp,16
601a6c80:	b24f      	lw	v0,601a6dbc <asqt_get_result_and_send+0x144>
601a6c82:	9aa0      	lw	a1,0(v0)
601a6c84:	3388      	sll	v1,a0,2
601a6c86:	e3cd      	addu	v1,a2
601a6c88:	3290      	sll	v0,a0,4
601a6c8a:	e2a9      	addu	v0,a1
601a6c8c:	9a43      	lw	v0,12(v0)
601a6c8e:	db40      	sw	v0,0(v1)
601a6c90:	4441      	addiu	v0,a0,1
601a6c92:	6782      	move	a0,v0
601a6c94:	ec11      	zeb	a0
601a6c96:	5c06      	sltiu	a0,6
601a6c98:	61f5      	btnez	601a6c84 <asqt_get_result_and_send+0xc>
601a6c9a:	b24a      	lw	v0,601a6dc0 <asqt_get_result_and_send+0x148>
601a6c9c:	a240      	lbu	v0,0(v0)
601a6c9e:	7201      	cmpi	v0,1
601a6ca0:	612a      	btnez	601a6cf6 <asqt_get_result_and_send+0x7e>
601a6ca2:	b249      	lw	v0,601a6dc4 <asqt_get_result_and_send+0x14c>
601a6ca4:	6702      	move	s0,v0
601a6ca6:	f080 9a7c 	lw	v1,156(v0)
601a6caa:	9204      	lw	v0,16(sp)
601a6cac:	eb43      	sltu	v1,v0
601a6cae:	6023      	bteqz	601a6cf6 <asqt_get_result_and_send+0x7e>
601a6cb0:	6730      	move	s1,s0
601a6cb2:	b246      	lw	v0,601a6dc8 <asqt_get_result_and_send+0x150>
601a6cb4:	a2b9      	lbu	a1,25(v0)
601a6cb6:	2d14      	bnez	a1,601a6ce0 <asqt_get_result_and_send+0x68>
601a6cb8:	b345      	lw	v1,601a6dcc <asqt_get_result_and_send+0x154>
601a6cba:	eb40      	jalr	v1
601a6cbc:	6790      	move	a0,s0
601a6cbe:	a842      	lhu	v0,4(s0)
601a6cc0:	5aa0      	sltiu	v0,160
601a6cc2:	6113      	btnez	601a6cea <asqt_get_result_and_send+0x72>
601a6cc4:	b040      	lw	s0,601a6dc4 <asqt_get_result_and_send+0x14c>
601a6cc6:	6790      	move	a0,s0
601a6cc8:	950e      	lw	a1,56(sp)
601a6cca:	4d08      	addiu	a1,8
601a6ccc:	b241      	lw	v0,601a6dd0 <asqt_get_result_and_send+0x158>
601a6cce:	ea40      	jalr	v0
601a6cd0:	6ea0      	li	a2,160
601a6cd2:	b241      	lw	v0,601a6dd4 <asqt_get_result_and_send+0x15c>
601a6cd4:	ea40      	jalr	v0
601a6cd6:	940e      	lw	a0,56(sp)
601a6cd8:	a842      	lhu	v0,4(s0)
601a6cda:	5aa0      	sltiu	v0,160
601a6cdc:	60f4      	bteqz	601a6cc6 <asqt_get_result_and_send+0x4e>
601a6cde:	1005      	b	601a6cea <asqt_get_result_and_send+0x72>
601a6ce0:	b439      	lw	a0,601a6dc4 <asqt_get_result_and_send+0x14c>
601a6ce2:	b33b      	lw	v1,601a6dcc <asqt_get_result_and_send+0x154>
601a6ce4:	eb40      	jalr	v1
601a6ce6:	6d00      	li	a1,0
601a6ce8:	2206      	beqz	v0,601a6cf6 <asqt_get_result_and_send+0x7e>
601a6cea:	6711      	move	s0,s1
601a6cec:	f080 995c 	lw	v0,156(s1)
601a6cf0:	9304      	lw	v1,16(sp)
601a6cf2:	ea63      	sltu	v0,v1
601a6cf4:	61de      	btnez	601a6cb2 <asqt_get_result_and_send+0x3a>
601a6cf6:	b235      	lw	v0,601a6dc8 <asqt_get_result_and_send+0x150>
601a6cf8:	a259      	lbu	v0,25(v0)
601a6cfa:	2a07      	bnez	v0,601a6d0a <asqt_get_result_and_send+0x92>
601a6cfc:	940e      	lw	a0,56(sp)
601a6cfe:	f201 6d00 	li	a1,2560
601a6d02:	b236      	lw	v0,601a6dd8 <asqt_get_result_and_send+0x160>
601a6d04:	ea40      	jalr	v0
601a6d06:	9605      	lw	a2,20(sp)
601a6d08:	1013      	b	601a6d30 <asqt_get_result_and_send+0xb8>
601a6d0a:	b22f      	lw	v0,601a6dc4 <asqt_get_result_and_send+0x14c>
601a6d0c:	f0a0 9a60 	lw	v1,160(v0)
601a6d10:	9205      	lw	v0,20(sp)
601a6d12:	eb43      	sltu	v1,v0
601a6d14:	600d      	bteqz	601a6d30 <asqt_get_result_and_send+0xb8>
601a6d16:	b032      	lw	s0,601a6ddc <asqt_get_result_and_send+0x164>
601a6d18:	f71f 402c 	addiu	s1,s0,-228
601a6d1c:	6790      	move	a0,s0
601a6d1e:	b22c      	lw	v0,601a6dcc <asqt_get_result_and_send+0x154>
601a6d20:	ea40      	jalr	v0
601a6d22:	6d01      	li	a1,1
601a6d24:	2205      	beqz	v0,601a6d30 <asqt_get_result_and_send+0xb8>
601a6d26:	f0a0 9940 	lw	v0,160(s1)
601a6d2a:	9305      	lw	v1,20(sp)
601a6d2c:	ea63      	sltu	v0,v1
601a6d2e:	61f6      	btnez	601a6d1c <asqt_get_result_and_send+0xa4>
601a6d30:	b225      	lw	v0,601a6dc4 <asqt_get_result_and_send+0x14c>
601a6d32:	f0a0 9a64 	lw	v1,164(v0)
601a6d36:	9206      	lw	v0,24(sp)
601a6d38:	eb43      	sltu	v1,v0
601a6d3a:	600d      	bteqz	601a6d56 <asqt_get_result_and_send+0xde>
601a6d3c:	b029      	lw	s0,601a6de0 <asqt_get_result_and_send+0x168>
601a6d3e:	f73f 4024 	addiu	s1,s0,-204
601a6d42:	6790      	move	a0,s0
601a6d44:	b222      	lw	v0,601a6dcc <asqt_get_result_and_send+0x154>
601a6d46:	ea40      	jalr	v0
601a6d48:	6d02      	li	a1,2
601a6d4a:	2205      	beqz	v0,601a6d56 <asqt_get_result_and_send+0xde>
601a6d4c:	f0a0 9944 	lw	v0,164(s1)
601a6d50:	9306      	lw	v1,24(sp)
601a6d52:	ea63      	sltu	v0,v1
601a6d54:	61f6      	btnez	601a6d42 <asqt_get_result_and_send+0xca>
601a6d56:	b21c      	lw	v0,601a6dc4 <asqt_get_result_and_send+0x14c>
601a6d58:	f0a0 9a68 	lw	v1,168(v0)
601a6d5c:	9207      	lw	v0,28(sp)
601a6d5e:	eb43      	sltu	v1,v0
601a6d60:	600d      	bteqz	601a6d7c <asqt_get_result_and_send+0x104>
601a6d62:	b021      	lw	s0,601a6de4 <asqt_get_result_and_send+0x16c>
601a6d64:	f72f 4028 	addiu	s1,s0,-216
601a6d68:	6790      	move	a0,s0
601a6d6a:	b219      	lw	v0,601a6dcc <asqt_get_result_and_send+0x154>
601a6d6c:	ea40      	jalr	v0
601a6d6e:	6d03      	li	a1,3
601a6d70:	2205      	beqz	v0,601a6d7c <asqt_get_result_and_send+0x104>
601a6d72:	f0a0 9948 	lw	v0,168(s1)
601a6d76:	9307      	lw	v1,28(sp)
601a6d78:	ea63      	sltu	v0,v1
601a6d7a:	61f6      	btnez	601a6d68 <asqt_get_result_and_send+0xf0>
601a6d7c:	b213      	lw	v0,601a6dc8 <asqt_get_result_and_send+0x150>
601a6d7e:	a259      	lbu	v0,25(v0)
601a6d80:	2a07      	bnez	v0,601a6d90 <asqt_get_result_and_send+0x118>
601a6d82:	940e      	lw	a0,56(sp)
601a6d84:	f301 6d00 	li	a1,2816
601a6d88:	b214      	lw	v0,601a6dd8 <asqt_get_result_and_send+0x160>
601a6d8a:	ea40      	jalr	v0
601a6d8c:	9608      	lw	a2,32(sp)
601a6d8e:	1004      	b	601a6d98 <asqt_get_result_and_send+0x120>
601a6d90:	940e      	lw	a0,56(sp)
601a6d92:	b216      	lw	v0,601a6de8 <asqt_get_result_and_send+0x170>
601a6d94:	ea40      	jalr	v0
601a6d96:	9508      	lw	a1,32(sp)
601a6d98:	b20b      	lw	v0,601a6dc4 <asqt_get_result_and_send+0x14c>
601a6d9a:	f0a0 9a70 	lw	v1,176(v0)
601a6d9e:	9209      	lw	v0,36(sp)
601a6da0:	eb43      	sltu	v1,v0
601a6da2:	6009      	bteqz	601a6db6 <asqt_get_result_and_send+0x13e>
601a6da4:	b112      	lw	s1,601a6dec <asqt_get_result_and_send+0x174>
601a6da6:	b008      	lw	s0,601a6dc4 <asqt_get_result_and_send+0x14c>
601a6da8:	e940      	jalr	s1
601a6daa:	940e      	lw	a0,56(sp)
601a6dac:	f0a0 9850 	lw	v0,176(s0)
601a6db0:	9309      	lw	v1,36(sp)
601a6db2:	ea63      	sltu	v0,v1
601a6db4:	61f9      	btnez	601a6da8 <asqt_get_result_and_send+0x130>
601a6db6:	6477      	restore	56,ra,s0-s1
601a6db8:	e8a0      	jrc	ra
601a6dba:	0000      	addiu	s0,sp,0
601a6dbc:	969c      	lw	a2,624(sp)
601a6dbe:	9fc1      	lw	a2,4(a3)
601a6dc0:	9680      	lw	a2,512(sp)
601a6dc2:	9fc1      	lw	a2,4(a3)
601a6dc4:	971c      	lw	a3,112(sp)
601a6dc6:	9fc1      	lw	a2,4(a3)
601a6dc8:	a094      	lbu	a0,20(s0)
601a6dca:	9fc1      	lw	a2,4(a3)
601a6dcc:	6909      	li	s1,9
601a6dce:	601a      	bteqz	601a6e04 <real_call_mode_deal+0x14>
601a6dd0:	6881      	li	s0,129
601a6dd2:	601a      	bteqz	601a6e08 <real_call_mode_deal+0x18>
601a6dd4:	6aa5      	li	v0,165
601a6dd6:	601a      	bteqz	601a6e0c <real_call_mode_deal+0x1c>
601a6dd8:	6ac5      	li	v0,197
601a6dda:	601a      	bteqz	601a6e10 <real_call_mode_deal+0x20>
601a6ddc:	9800      	lw	s0,0(s0)
601a6dde:	9fc1      	lw	a2,4(a3)
601a6de0:	97e8      	lw	a3,928(sp)
601a6de2:	9fc1      	lw	a2,4(a3)
601a6de4:	97f4      	lw	a3,976(sp)
601a6de6:	9fc1      	lw	a2,4(a3)
601a6de8:	6b41      	li	v1,65
601a6dea:	601a      	bteqz	601a6e20 <real_call_mode_deal+0x30>
601a6dec:	6be5      	li	v1,229
601a6dee:	601a      	bteqz	601a6e24 <real_call_mode_deal+0x34>

601a6df0 <real_call_mode_deal>:
601a6df0:	64f5      	save	40,ra,s0-s1
601a6df2:	ec11      	zeb	a0
601a6df4:	d404      	sw	a0,16(sp)
601a6df6:	ed11      	zeb	a1
601a6df8:	b22c      	lw	v0,601a6ea8 <real_call_mode_deal+0xb8>
601a6dfa:	9a40      	lw	v0,0(v0)
601a6dfc:	a200      	lbu	s0,0(v0)
601a6dfe:	7501      	cmpi	a1,1
601a6e00:	6103      	btnez	601a6e08 <real_call_mode_deal+0x18>
601a6e02:	6b00      	li	v1,0
601a6e04:	b22a      	lw	v0,601a6eac <real_call_mode_deal+0xbc>
601a6e06:	c260      	sb	v1,0(v0)
601a6e08:	b129      	lw	s1,601a6eac <real_call_mode_deal+0xbc>
601a6e0a:	a140      	lbu	v0,0(s1)
601a6e0c:	7205      	cmpi	v0,5
601a6e0e:	6105      	btnez	601a6e1a <real_call_mode_deal+0x2a>
601a6e10:	b228      	lw	v0,601a6eb0 <real_call_mode_deal+0xc0>
601a6e12:	ea40      	jalr	v0
601a6e14:	6c07      	li	a0,7
601a6e16:	6a00      	li	v0,0
601a6e18:	c140      	sb	v0,0(s1)
601a6e1a:	b227      	lw	v0,601a6eb4 <real_call_mode_deal+0xc4>
601a6e1c:	a240      	lbu	v0,0(v0)
601a6e1e:	ea0a      	cmp	v0,s0
601a6e20:	600a      	bteqz	601a6e36 <real_call_mode_deal+0x46>
601a6e22:	7004      	cmpi	s0,4
601a6e24:	6008      	bteqz	601a6e36 <real_call_mode_deal+0x46>
601a6e26:	7204      	cmpi	v0,4
601a6e28:	6106      	btnez	601a6e36 <real_call_mode_deal+0x46>
601a6e2a:	b222      	lw	v0,601a6eb0 <real_call_mode_deal+0xc0>
601a6e2c:	ea40      	jalr	v0
601a6e2e:	6c05      	li	a0,5
601a6e30:	6b05      	li	v1,5
601a6e32:	b21f      	lw	v0,601a6eac <real_call_mode_deal+0xbc>
601a6e34:	c260      	sb	v1,0(v0)
601a6e36:	b220      	lw	v0,601a6eb4 <real_call_mode_deal+0xc4>
601a6e38:	c200      	sb	s0,0(v0)
601a6e3a:	9204      	lw	v0,16(sp)
601a6e3c:	7205      	cmpi	v0,5
601a6e3e:	612a      	btnez	601a6e94 <real_call_mode_deal+0xa4>
601a6e40:	7004      	cmpi	s0,4
601a6e42:	6128      	btnez	601a6e94 <real_call_mode_deal+0xa4>
601a6e44:	b21a      	lw	v0,601a6eac <real_call_mode_deal+0xbc>
601a6e46:	a240      	lbu	v0,0(v0)
601a6e48:	2a21      	bnez	v0,601a6e8c <real_call_mode_deal+0x9c>
601a6e4a:	6702      	move	s0,v0
601a6e4c:	b51b      	lw	a1,601a6eb8 <real_call_mode_deal+0xc8>
601a6e4e:	b21c      	lw	v0,601a6ebc <real_call_mode_deal+0xcc>
601a6e50:	9a80      	lw	a0,0(v0)
601a6e52:	3208      	sll	v0,s0,2
601a6e54:	e2a9      	addu	v0,a1
601a6e56:	9c63      	lw	v1,12(a0)
601a6e58:	f080 da7c 	sw	v1,156(v0)
601a6e5c:	4041      	addiu	v0,s0,1
601a6e5e:	6702      	move	s0,v0
601a6e60:	e811      	zeb	s0
601a6e62:	5806      	sltiu	s0,6
601a6e64:	61f6      	btnez	601a6e52 <real_call_mode_deal+0x62>
601a6e66:	6b01      	li	v1,1
601a6e68:	b211      	lw	v0,601a6eac <real_call_mode_deal+0xbc>
601a6e6a:	c260      	sb	v1,0(v0)
601a6e6c:	6800      	li	s0,0
601a6e6e:	b214      	lw	v0,601a6ebc <real_call_mode_deal+0xcc>
601a6e70:	9a60      	lw	v1,0(v0)
601a6e72:	3208      	sll	v0,s0,2
601a6e74:	e269      	addu	v0,v1
601a6e76:	0c09      	la	a0,601a6e98 <real_call_mode_deal+0xa8>
601a6e78:	9ab9      	lw	a1,100(v0)
601a6e7a:	6e02      	li	a2,2
601a6e7c:	b211      	lw	v0,601a6ec0 <real_call_mode_deal+0xd0>
601a6e7e:	ea40      	jalr	v0
601a6e80:	6f4b      	li	a3,75
601a6e82:	4041      	addiu	v0,s0,1
601a6e84:	6702      	move	s0,v0
601a6e86:	e811      	zeb	s0
601a6e88:	5806      	sltiu	s0,6
601a6e8a:	61f1      	btnez	601a6e6e <real_call_mode_deal+0x7e>
601a6e8c:	b20e      	lw	v0,601a6ec4 <real_call_mode_deal+0xd4>
601a6e8e:	9a80      	lw	a0,0(v0)
601a6e90:	b20e      	lw	v0,601a6ec8 <real_call_mode_deal+0xd8>
601a6e92:	eac0      	jalrc	v0
601a6e94:	6475      	restore	40,ra,s0-s1
601a6e96:	e8a0      	jrc	ra
601a6e98:	493c      	addiu	s1,60
601a6e9a:	203e      	beqz	s0,601a6f18 <simu_call_mode_deal+0x4c>
601a6e9c:	7364      	cmpi	v1,100
601a6e9e:	2d70      	bnez	a1,601a6f80 <simu_call_mode_deal+0xb4>
601a6ea0:	7270      	cmpi	v0,112
601a6ea2:	6e69      	li	a2,105
601a6ea4:	3a74      	ld	v1,160(v0)
601a6ea6:	0000      	addiu	s0,sp,0
601a6ea8:	967c      	lw	a2,496(sp)
601a6eaa:	9fc1      	lw	a2,4(a3)
601a6eac:	9689      	lw	a2,548(sp)
601a6eae:	9fc1      	lw	a2,4(a3)
601a6eb0:	6b3d      	li	v1,61
601a6eb2:	6016      	bteqz	601a6ee0 <simu_call_mode_deal+0x14>
601a6eb4:	9688      	lw	a2,544(sp)
601a6eb6:	9fc1      	lw	a2,4(a3)
601a6eb8:	971c      	lw	a3,112(sp)
601a6eba:	9fc1      	lw	a2,4(a3)
601a6ebc:	969c      	lw	a2,624(sp)
601a6ebe:	9fc1      	lw	a2,4(a3)
601a6ec0:	6009      	bteqz	601a6ed4 <simu_call_mode_deal+0x8>
601a6ec2:	bfc2      	lwu	a2,8(a3)
601a6ec4:	9698      	lw	a2,608(sp)
601a6ec6:	9fc1      	lw	a2,4(a3)
601a6ec8:	6c79      	li	a0,121
601a6eca:	601a      	bteqz	601a6f00 <simu_call_mode_deal+0x34>

601a6ecc <simu_call_mode_deal>:
601a6ecc:	64f4      	save	32,ra,s0-s1
601a6ece:	6704      	move	s0,a0
601a6ed0:	e811      	zeb	s0
601a6ed2:	7003      	cmpi	s0,3
601a6ed4:	610a      	btnez	601a6eea <simu_call_mode_deal+0x1e>
601a6ed6:	b116      	lw	s1,601a6f2c <simu_call_mode_deal+0x60>
601a6ed8:	a140      	lbu	v0,0(s1)
601a6eda:	2a07      	bnez	v0,601a6eea <simu_call_mode_deal+0x1e>
601a6edc:	b215      	lw	v0,601a6f30 <simu_call_mode_deal+0x64>
601a6ede:	ea40      	jalr	v0
601a6ee0:	6c05      	li	a0,5
601a6ee2:	b215      	lw	v0,601a6f34 <simu_call_mode_deal+0x68>
601a6ee4:	eac0      	jalrc	v0
601a6ee6:	6a01      	li	v0,1
601a6ee8:	c140      	sb	v0,0(s1)
601a6eea:	7005      	cmpi	s0,5
601a6eec:	611c      	btnez	601a6f26 <simu_call_mode_deal+0x5a>
601a6eee:	b010      	lw	s0,601a6f2c <simu_call_mode_deal+0x60>
601a6ef0:	a040      	lbu	v0,0(s0)
601a6ef2:	7201      	cmpi	v0,1
601a6ef4:	6104      	btnez	601a6efe <simu_call_mode_deal+0x32>
601a6ef6:	b211      	lw	v0,601a6f38 <simu_call_mode_deal+0x6c>
601a6ef8:	eac0      	jalrc	v0
601a6efa:	6a00      	li	v0,0
601a6efc:	c040      	sb	v0,0(s0)
601a6efe:	b110      	lw	s1,601a6f3c <simu_call_mode_deal+0x70>
601a6f00:	b010      	lw	s0,601a6f40 <simu_call_mode_deal+0x74>
601a6f02:	e840      	jalr	s0
601a6f04:	9980      	lw	a0,0(s1)
601a6f06:	7201      	cmpi	v0,1
601a6f08:	60fc      	bteqz	601a6f02 <simu_call_mode_deal+0x36>
601a6f0a:	b40f      	lw	a0,601a6f44 <simu_call_mode_deal+0x78>
601a6f0c:	ac42      	lhu	v0,4(a0)
601a6f0e:	5a02      	sltiu	v0,2
601a6f10:	6103      	btnez	601a6f18 <simu_call_mode_deal+0x4c>
601a6f12:	b20e      	lw	v0,601a6f48 <simu_call_mode_deal+0x7c>
601a6f14:	eac0      	jalrc	v0
601a6f16:	1003      	b	601a6f1e <simu_call_mode_deal+0x52>
601a6f18:	b206      	lw	v0,601a6f30 <simu_call_mode_deal+0x64>
601a6f1a:	ea40      	jalr	v0
601a6f1c:	6c05      	li	a0,5
601a6f1e:	b208      	lw	v0,601a6f3c <simu_call_mode_deal+0x70>
601a6f20:	9a80      	lw	a0,0(v0)
601a6f22:	b20b      	lw	v0,601a6f4c <simu_call_mode_deal+0x80>
601a6f24:	eac0      	jalrc	v0
601a6f26:	6474      	restore	32,ra,s0-s1
601a6f28:	e8a0      	jrc	ra
601a6f2a:	0000      	addiu	s0,sp,0
601a6f2c:	9587      	lw	a1,540(sp)
601a6f2e:	9fc1      	lw	a2,4(a3)
601a6f30:	6b3d      	li	v1,61
601a6f32:	6016      	bteqz	601a6f60 <simu_call_mode_deal+0x94>
601a6f34:	699d      	li	s1,157
601a6f36:	6012      	bteqz	601a6f5c <simu_call_mode_deal+0x90>
601a6f38:	6cfd      	li	a0,253
601a6f3a:	6016      	bteqz	601a6f68 <simu_call_mode_deal+0x9c>
601a6f3c:	9698      	lw	a2,608(sp)
601a6f3e:	9fc1      	lw	a2,4(a3)
601a6f40:	6a61      	li	v0,97
601a6f42:	601a      	bteqz	601a6f78 <simu_call_mode_deal+0xac>
601a6f44:	971c      	lw	a3,112(sp)
601a6f46:	9fc1      	lw	a2,4(a3)
601a6f48:	6941      	li	s1,65
601a6f4a:	601a      	bteqz	601a6f80 <simu_call_mode_deal+0xb4>
601a6f4c:	6c79      	li	a0,121
601a6f4e:	601a      	bteqz	601a6f84 <simu_call_mode_deal+0xb8>
Disassembly of section BANK_CONTROL_1_40:

60a26800 <get_engine_type_by_appid>:
60a26800:	b609      	lw	a2,60a26824 <get_engine_type_by_appid+0x24>
};

//判断是否引擎
engine_type_e get_engine_type_by_appid(uint8 app_id)
{
60a26802:	ec11      	zeb	a0
60a26804:	6d00      	li	a1,0
    uint8 i;

    for (i = 0; i < (sizeof(applib_app2eg_type) / sizeof(app2engine_type_t)); i++)
60a26806:	37a4      	sll	a3,a1,1
    {
        if (applib_app2eg_type[i].engine_app_id == app_id)
60a26808:	e7cd      	addu	v1,a3,a2
60a2680a:	a340      	lbu	v0,0(v1)
60a2680c:	ea8e      	xor	v0,a0
60a2680e:	2a02      	bnez	v0,60a26814 <get_engine_type_by_appid+0x14>
60a26810:	e820      	jr	ra
        {
            return applib_app2eg_type[i].engine_type;
60a26812:	a341      	lbu	v0,1(v1)
60a26814:	4561      	addiu	v1,a1,1
60a26816:	67a3      	move	a1,v1
60a26818:	ed11      	zeb	a1
60a2681a:	5d06      	sltiu	a1,6
60a2681c:	61f4      	btnez	60a26806 <get_engine_type_by_appid+0x6>
60a2681e:	e820      	jr	ra
        }
    }

    return ENGINE_NULL;
}
60a26820:	6a00      	li	v0,0
60a26822:	0000      	addiu	s0,sp,0
60a26824:	6854      	li	s0,84
60a26826:	60a2      	bteqz	60a2676c <simu_call_mode_deal+0x87f8a0>

60a26828 <get_engine_appid_by_type>:
60a26828:	ec11      	zeb	a0

//获取引擎对应 app id
uint8 get_engine_appid_by_type(engine_type_e engine_type)
{
60a2682a:	6a18      	li	v0,24
    uint8 i;

    if (engine_type == ENGINE_NULL)
    {
        return APP_ID_MAX;
60a2682c:	2c03      	bnez	a0,60a26834 <get_engine_appid_by_type+0xc>
60a2682e:	100f      	b	60a2684e <get_engine_appid_by_type+0x26>
60a26830:	e820      	jr	ra
    }

    for (i = 0; i < (sizeof(applib_app2eg_type) / sizeof(app2engine_type_t)); i++)
    {
        if (applib_app2eg_type[i].engine_type == engine_type)
        {
            return applib_app2eg_type[i].engine_app_id;
60a26832:	a340      	lbu	v0,0(v1)
60a26834:	b607      	lw	a2,60a26850 <get_engine_appid_by_type+0x28>
60a26836:	6d00      	li	a1,0
60a26838:	37a4      	sll	a3,a1,1
60a2683a:	e7cd      	addu	v1,a3,a2
60a2683c:	a341      	lbu	v0,1(v1)
60a2683e:	ea8e      	xor	v0,a0
60a26840:	22f7      	beqz	v0,60a26830 <get_engine_appid_by_type+0x8>
60a26842:	4561      	addiu	v1,a1,1
60a26844:	67a3      	move	a1,v1
60a26846:	ed11      	zeb	a1
60a26848:	5d06      	sltiu	a1,6
60a2684a:	61f6      	btnez	60a26838 <get_engine_appid_by_type+0x10>
60a2684c:	6a18      	li	v0,24
        }
    }

    return APP_ID_MAX;
60a2684e:	e8a0      	jrc	ra
}
60a26850:	6854      	li	s0,84
60a26852:	60a2      	bteqz	60a26798 <simu_call_mode_deal+0x87f8cc>

60a26854 <applib_app2eg_type>:
60a26854:	010e 0212 030f 0410 0511 0613               ............

60a26860 <applib_init>:
60a26860:	64f5      	save	40,ra,s0-s1
 * \note
 * \li  在应用 main 函数入口处调用，在此之前，不许调用其他 applib 接口。
 *******************************************************************************/
bool applib_init(uint8 app_id, app_type_e type)
{
60a26862:	ec11      	zeb	a0
60a26864:	6705      	move	s0,a1
60a26866:	5c18      	sltiu	a0,24
    app_info_t *cur_app_info;

    if (app_id >= APP_ID_MAX)
60a26868:	d404      	sw	a0,16(sp)
60a2686a:	e811      	zeb	s0
60a2686c:	6a00      	li	v0,0
    {
        return FALSE;
60a2686e:	6056      	bteqz	60a2691c <applib_init+0xbc>
60a26870:	6b01      	li	v1,1
    }

    //调节频率
    if (type == APP_TYPE_GUI)
60a26872:	eb0e      	xor	v1,s0
60a26874:	5b01      	sltiu	v1,1
60a26876:	6758      	move	v0,t8
60a26878:	d205      	sw	v0,20(sp)
60a2687a:	220a      	beqz	v0,60a26890 <applib_init+0x30>
60a2687c:	b12d      	lw	s1,60a26930 <applib_init+0xd0>
    {
        adjust_freq_set_level(AP_FRONT_LOW_PRIO, FREQ_LEVEL7, FREQ_NULL);
60a2687e:	6c0a      	li	a0,10
60a26880:	6d07      	li	a1,7
60a26882:	6e00      	li	a2,0
60a26884:	e940      	jalr	s1
60a26886:	6f03      	li	a3,3
60a26888:	b42b      	lw	a0,60a26934 <applib_init+0xd4>
        g_app_info_state_all.ui_status = UI_STATUS_IDLE;
60a2688a:	6d00      	li	a1,0
60a2688c:	c4a3      	sb	a1,3(a0)
60a2688e:	1008      	b	60a268a0 <applib_init+0x40>
60a26890:	7002      	cmpi	s0,2
    }
    else if (type == APP_TYPE_CONSOLE)
60a26892:	6106      	btnez	60a268a0 <applib_init+0x40>
60a26894:	b227      	lw	v0,60a26930 <applib_init+0xd0>
    {
        adjust_freq_set_level(AP_BACK_LOW_PRIO, FREQ_LEVEL2, FREQ_NULL);
60a26896:	6c06      	li	a0,6
60a26898:	6d02      	li	a1,2
60a2689a:	6e00      	li	a2,0
60a2689c:	ea40      	jalr	v0
60a2689e:	6f03      	li	a3,3
60a268a0:	b426      	lw	a0,60a26938 <applib_init+0xd8>
    }
    else
    {
        //nothing
    }

    //获取 app_info 结构体指针
    cur_app_info = &g_app_info_vector[type];
60a268a2:	3308      	sll	v1,s0,2
60a268a4:	e385      	addu	s1,v1,a0
60a268a6:	b226      	lw	v0,60a2693c <applib_init+0xdc>

    //上锁，禁止任务调度
    sys_os_sched_lock();
60a268a8:	6c00      	li	a0,0
60a268aa:	67a4      	move	a1,a0
60a268ac:	67c4      	move	a2,a0
60a268ae:	ea40      	jalr	v0
60a268b0:	6f33      	li	a3,51
60a268b2:	b224      	lw	v0,60a26940 <applib_init+0xe0>

    //初始化应用信息
    libc_memset(cur_app_info, 0x0, sizeof(app_info_t));
60a268b4:	6e04      	li	a2,4
60a268b6:	6f01      	li	a3,1
60a268b8:	6791      	move	a0,s1
60a268ba:	ea40      	jalr	v0
60a268bc:	6d00      	li	a1,0
60a268be:	6a01      	li	v0,1
    cur_app_info->used = 1; //标志已被分配使用
60a268c0:	c140      	sb	v0,0(s1)
60a268c2:	67fd      	move	a3,sp
    cur_app_info->app_id = app_id;
60a268c4:	a7d0      	lbu	a2,16(a3)
60a268c6:	c102      	sb	s0,2(s1)
    cur_app_info->app_type = (uint8) type;
60a268c8:	c1c1      	sb	a2,1(s1)
60a268ca:	2802      	bnez	s0,60a268d0 <applib_init+0x70>
    //cur_app_info->soft_watchdog_timeout_expires = 0;
    if (type == APP_TYPE_PMNG)
60a268cc:	c103      	sb	s0,3(s1)
    {
        cur_app_info->mq_id = (uint8) MQ_ID_MNG;
60a268ce:	1012      	b	60a268f4 <applib_init+0x94>
60a268d0:	7003      	cmpi	s0,3
    }
    else if (type == APP_TYPE_BTSTACK)
60a268d2:	6103      	btnez	60a268da <applib_init+0x7a>
60a268d4:	6803      	li	s0,3
    {
        cur_app_info->mq_id = (uint8) MQ_ID_BT;
60a268d6:	c103      	sb	s0,3(s1)
60a268d8:	100d      	b	60a268f4 <applib_init+0x94>
60a268da:	9505      	lw	a1,20(sp)
    }
    else if (type == APP_TYPE_GUI)
60a268dc:	b016      	lw	s0,60a26934 <applib_init+0xd4>
60a268de:	2504      	beqz	a1,60a268e8 <applib_init+0x88>
60a268e0:	6e00      	li	a2,0
    {
        cur_app_info->mq_id = (uint8) MQ_ID_DESK;
        g_app_info_state_all.app_state = APP_STATE_NO_PLAY; //前台AP注册，初始化为 NO_PLAY 状态
60a268e2:	c143      	sb	v0,3(s1)
60a268e4:	c0c2      	sb	a2,2(s0)
60a268e6:	1006      	b	60a268f4 <applib_init+0x94>
60a268e8:	6f02      	li	a3,2
    }
    else
    {
        //message queue
        cur_app_info->mq_id = (uint8) MQ_ID_EGN;
60a268ea:	c1e3      	sb	a3,3(s1)
60a268ec:	b216      	lw	v0,60a26944 <applib_init+0xe4>

        g_app_info_state_all.engine_type = get_engine_type_by_appid(app_id);
60a268ee:	ea40      	jalr	v0
60a268f0:	9404      	lw	a0,16(sp)
60a268f2:	c040      	sb	v0,0(s0)
60a268f4:	6c00      	li	a0,0
    }

    //解锁，允许任务调度
    sys_os_sched_unlock();
60a268f6:	b012      	lw	s0,60a2693c <applib_init+0xdc>
60a268f8:	67a4      	move	a1,a0
60a268fa:	67c4      	move	a2,a0
60a268fc:	e840      	jalr	s0
60a268fe:	6f34      	li	a3,52
60a26900:	b412      	lw	a0,60a26948 <applib_init+0xe8>

    g_this_app_info = cur_app_info;
60a26902:	b210      	lw	v0,60a26940 <applib_init+0xe0>

    //初始化线程互斥信号量
    libc_sem_init(&thread_mutex, 1);
60a26904:	dc20      	sw	s1,0(a0)
60a26906:	b412      	lw	a0,60a2694c <applib_init+0xec>
60a26908:	6d01      	li	a1,1
60a2690a:	6e00      	li	a2,0
60a2690c:	ea40      	jalr	v0
60a2690e:	6f12      	li	a3,18
60a26910:	9504      	lw	a1,16(sp)

    PRINT_INFO_INT("app init:", app_id);
60a26912:	0c04      	la	a0,60a26920 <applib_init+0xc0>
60a26914:	6e02      	li	a2,2
60a26916:	e840      	jalr	s0
60a26918:	6f4b      	li	a3,75
60a2691a:	6a01      	li	v0,1

    return TRUE;
60a2691c:	6475      	restore	40,ra,s0-s1
}
60a2691e:	e8a0      	jrc	ra
60a26920:	493c      	addiu	s1,60
60a26922:	203e      	beqz	s0,60a269a0 <.LBE2+0x14>
60a26924:	7061      	cmpi	s0,97
60a26926:	2070      	beqz	s0,60a26a08 <.LBE2+0x7c>
60a26928:	6e69      	li	a2,105
60a2692a:	7469      	cmpi	a0,105
60a2692c:	003a      	addiu	s0,sp,232
60a2692e:	0000      	addiu	s0,sp,0
60a26930:	6011      	bteqz	60a26954 <applib_quit+0x4>
60a26932:	bfc2      	lwu	a2,8(a3)
60a26934:	a094      	lbu	a0,20(s0)
60a26936:	9fc1      	lw	a2,4(a3)
60a26938:	a080      	lbu	a0,0(s0)
60a2693a:	9fc1      	lw	a2,4(a3)
60a2693c:	6009      	bteqz	60a26950 <applib_quit>
60a2693e:	bfc2      	lwu	a2,8(a3)
60a26940:	6005      	bteqz	60a2694c <applib_init+0xec>
60a26942:	bfc2      	lwu	a2,8(a3)
60a26944:	6801      	li	s0,1
60a26946:	60a2      	bteqz	60a2688c <applib_init+0x2c>
60a26948:	9598      	lw	a1,608(sp)
60a2694a:	9fc1      	lw	a2,4(a3)
60a2694c:	959c      	lw	a1,624(sp)
60a2694e:	9fc1      	lw	a2,4(a3)

60a26950 <applib_quit>:
60a26950:	64f5      	save	40,ra,s0-s1

/******************************************************************************/
/*!
 * \par  Description:
 *    应用在 applib 模块上的注销处理。
 * \param[in]    none
 * \param[out]   none
 * \return       bool
 * \retval           TRUE 表示注销成功。
 * \retval           FALSE 表示注销失败。
 * \ingroup      app_manager
 * \par          exmaple code
 * \code
 例子1：应用进行 applib 模块注销
 applib_quit();
 * \endcode
 * \note
 * \li  在应用 main 函数退出处调用，在此之后，不许调用其他 applib 接口。
 *******************************************************************************/
bool applib_quit(void)
{
60a26952:	b02f      	lw	s0,60a26a0c <.LBE2+0x80>
    app_info_t cur_app_info;

    PRINT_INFO_INT("app quit:", g_this_app_info->app_id);
60a26954:	b12f      	lw	s1,60a26a10 <.LBE2+0x84>
60a26956:	9860      	lw	v1,0(s0)
60a26958:	0c29      	la	a0,60a269fc <.LBE2+0x70>
60a2695a:	a3a1      	lbu	a1,1(v1)
60a2695c:	6e02      	li	a2,2
60a2695e:	e940      	jalr	s1
60a26960:	6f4b      	li	a3,75
60a26962:	6d00      	li	a1,0

    //销毁线程互斥信号量
    libc_sem_destroy(&thread_mutex);
60a26964:	b42c      	lw	a0,60a26a14 <.LBE2+0x88>
60a26966:	b12d      	lw	s1,60a26a18 <.LBE2+0x8c>
60a26968:	67c5      	move	a2,a1
60a2696a:	e940      	jalr	s1
60a2696c:	6f13      	li	a3,19
60a2696e:	98a0      	lw	a1,0(s0)

    if (g_this_app_info->app_type == APP_TYPE_CONSOLE)
60a26970:	a542      	lbu	v0,2(a1)
60a26972:	7202      	cmpi	v0,2
60a26974:	6104      	btnez	60a2697e <applib_quit+0x2e>
60a26976:	b42a      	lw	a0,60a26a1c <.LBE2+0x90>
    {
        //修改后台引擎类型为 NONE
        g_app_info_state_all.engine_type = ENGINE_NULL;
60a26978:	6e00      	li	a2,0
60a2697a:	c4c0      	sb	a2,0(a0)
60a2697c:	c4c1      	sb	a2,1(a0)
        g_app_info_state_all.engine_state = ENGINE_STATE_NULL;
60a2697e:	0404      	addiu	a0,sp,16
    }

    //修改 app_info 结构体为未被使用
    libc_memcpy(&cur_app_info, g_this_app_info, sizeof(app_info_t));
60a26980:	6f00      	li	a3,0
60a26982:	e940      	jalr	s1
60a26984:	6e04      	li	a2,4
60a26986:	67fd      	move	a3,sp
    cur_app_info.used = 0;
60a26988:	6a18      	li	v0,24

60a2698a <.LBB2>:
    cur_app_info.app_id = APP_ID_MAX;
60a2698a:	98a0      	lw	a1,0(s0)

60a2698c <.LBE2>:
    //cur_app_info.soft_watchdog_timeout_expires = 0;
    __app_running_set_app_info(g_this_app_info->app_id, &cur_app_info);

    //调节频率
    if (g_this_app_info->app_type == APP_TYPE_GUI)
    {
        adjust_freq_set_level(AP_FRONT_LOW_PRIO, FREQ_NULL, FREQ_NULL);
    }
    else if (g_this_app_info->app_type == APP_TYPE_CONSOLE)
    {
        adjust_freq_set_level(AP_BACK_LOW_PRIO, FREQ_NULL, FREQ_NULL);
    }
    else
    {
        //nothing
    }

    return TRUE;
}

/*! \endcond */

/*! \cond */

//根据应用ID设置应用信息
static bool __app_running_set_app_info(uint8 app_id, const app_info_t *app_info)
{
60a2698c:	c751      	sb	v0,17(a3)
60a2698e:	a581      	lbu	a0,1(a1)
60a26990:	6b00      	li	v1,0
60a26992:	5c18      	sltiu	a0,24
    app_info_t *app;
    uint8 i;

    if (app_id >= APP_ID_MAX)
60a26994:	c770      	sb	v1,16(a3)
60a26996:	6020      	bteqz	60a269d8 <.LBE2+0x4c>
60a26998:	b522      	lw	a1,60a26a20 <.LBE2+0x94>
60a2699a:	6b00      	li	v1,0
    {
        return FALSE;
    }

    //搜索 app_id 对应 app_info_t
    app = NULL;
    for (i = 0; i < MAX_APP_COUNT; i++)
60a2699c:	3668      	sll	a2,v1,2
    {
        app = &g_app_info_vector[i];
60a2699e:	e6a5      	addu	s1,a2,a1
60a269a0:	a100      	lbu	s0,0(s1)
        if ((app->used == 1) && (app->app_id == app_id))
60a269a2:	7001      	cmpi	s0,1
60a269a4:	6103      	btnez	60a269ac <.LBE2+0x20>
60a269a6:	a1e1      	lbu	a3,1(s1)
60a269a8:	ef8e      	xor	a3,a0
60a269aa:	2705      	beqz	a3,60a269b6 <.LBE2+0x2a>
60a269ac:	4341      	addiu	v0,v1,1
60a269ae:	6762      	move	v1,v0
60a269b0:	eb11      	zeb	v1
60a269b2:	5b04      	sltiu	v1,4
60a269b4:	61f3      	btnez	60a2699c <.LBE2+0x10>
60a269b6:	6c00      	li	a0,0
        {
            break;
        }
    }

    if (NULL == app)
    {
        return FALSE;
    }

    sys_os_sched_lock();
60a269b8:	b016      	lw	s0,60a26a10 <.LBE2+0x84>
60a269ba:	67a4      	move	a1,a0
60a269bc:	67c4      	move	a2,a0
60a269be:	e840      	jalr	s0
60a269c0:	6f33      	li	a3,51
60a269c2:	b216      	lw	v0,60a26a18 <.LBE2+0x8c>
    libc_memcpy(app, app_info, sizeof(app_info_t));
60a269c4:	6791      	move	a0,s1
60a269c6:	0504      	addiu	a1,sp,16
60a269c8:	6e04      	li	a2,4
60a269ca:	ea40      	jalr	v0
60a269cc:	6f00      	li	a3,0
60a269ce:	6c00      	li	a0,0
    sys_os_sched_unlock();
60a269d0:	67a4      	move	a1,a0
60a269d2:	67c4      	move	a2,a0
60a269d4:	e840      	jalr	s0
60a269d6:	6f34      	li	a3,52
60a269d8:	b50d      	lw	a1,60a26a0c <.LBE2+0x80>
60a269da:	9d80      	lw	a0,0(a1)
60a269dc:	a442      	lbu	v0,2(a0)
60a269de:	6c0a      	li	a0,10
60a269e0:	7201      	cmpi	v0,1
60a269e2:	6003      	bteqz	60a269ea <.LBE2+0x5e>
60a269e4:	7202      	cmpi	v0,2
60a269e6:	6106      	btnez	60a269f4 <.LBE2+0x68>
60a269e8:	6c06      	li	a0,6
60a269ea:	6d00      	li	a1,0
60a269ec:	b20e      	lw	v0,60a26a24 <.LBE2+0x98>
60a269ee:	67c5      	move	a2,a1
60a269f0:	ea40      	jalr	v0
60a269f2:	6f03      	li	a3,3
60a269f4:	6a01      	li	v0,1
60a269f6:	6475      	restore	40,ra,s0-s1
60a269f8:	e8a0      	jrc	ra
60a269fa:	0000      	addiu	s0,sp,0
60a269fc:	493c      	addiu	s1,60
60a269fe:	203e      	beqz	s0,60a26a7c <__set_timer+0x54>
60a26a00:	7061      	cmpi	s0,97
60a26a02:	2070      	beqz	s0,60a26ae4 <__set_timer+0xbc>
60a26a04:	7571      	cmpi	a1,113
60a26a06:	7469      	cmpi	a0,105
60a26a08:	003a      	addiu	s0,sp,232
60a26a0a:	0000      	addiu	s0,sp,0
60a26a0c:	9598      	lw	a1,608(sp)
60a26a0e:	9fc1      	lw	a2,4(a3)
60a26a10:	6009      	bteqz	60a26a24 <.LBE2+0x98>
60a26a12:	bfc2      	lwu	a2,8(a3)
60a26a14:	959c      	lw	a1,624(sp)
60a26a16:	9fc1      	lw	a2,4(a3)
60a26a18:	6005      	bteqz	60a26a24 <.LBE2+0x98>
60a26a1a:	bfc2      	lwu	a2,8(a3)
60a26a1c:	a094      	lbu	a0,20(s0)
60a26a1e:	9fc1      	lw	a2,4(a3)
60a26a20:	a080      	lbu	a0,0(s0)
60a26a22:	9fc1      	lw	a2,4(a3)
60a26a24:	6011      	bteqz	60a26a48 <__set_timer+0x20>
60a26a26:	bfc2      	lwu	a2,8(a3)

60a26a28 <__set_timer>:
60a26a28:	64f7      	save	56,ra,s0-s1
/*! \cond */

//创建应用级定时器
static inline int8 __set_timer(timer_attrb_e attrb, timer_type_e type, uint8 tag, uint16 timeout, timer_proc func_proc)
{
60a26a2a:	ec11      	zeb	a0
60a26a2c:	d404      	sw	a0,16(sp)
60a26a2e:	9312      	lw	v1,72(sp)
    app_timer_t *tm;
    int8 timer_id = -1;
    int8 i;

    //服务例程不能为NULL
    if (!func_proc)
60a26a30:	6c01      	li	a0,1
60a26a32:	ea8b      	neg	v0,a0
60a26a34:	ed11      	zeb	a1
60a26a36:	d505      	sw	a1,20(sp)
60a26a38:	d606      	sw	a2,24(sp)
60a26a3a:	d707      	sw	a3,28(sp)
60a26a3c:	d208      	sw	v0,32(sp)
60a26a3e:	651a      	move	t8,v0
    {
        return -1;
60a26a40:	2346      	beqz	v1,60a26ace <__set_timer+0xa6>
60a26a42:	2f28      	bnez	a3,60a26a94 <__set_timer+0x6c>
    }

    //定时周期不能为0
    if (0 == timeout)
60a26a44:	1044      	b	60a26ace <__set_timer+0xa6>
60a26a46:	67fd      	move	a3,sp
    {
        return -1;
    }

    //检索符合条件的可用软定时器
    for (i = 0; i < g_app_timer_count; i++)
    {
        if (g_app_timer_vector[i].state == TIMER_STATE_NOUSED)
        {
            timer_id = i;
            tm = &g_app_timer_vector[timer_id];

            //初始化软定时器
            tm->timeout = timeout;
60a26a48:	af8e      	lhu	a0,28(a3)
60a26a4a:	b22c      	lw	v0,60a26af8 <__set_timer+0xd0>
            tm->timeout_expires = sys_get_ab_timer() + timeout;
60a26a4c:	67a6      	move	a1,a2
60a26a4e:	d308      	sw	v1,32(sp)
60a26a50:	c882      	sh	a0,4(s0)
60a26a52:	6f1c      	li	a3,28
60a26a54:	ea40      	jalr	v0
60a26a56:	6786      	move	a0,a2
60a26a58:	9307      	lw	v1,28(sp)
60a26a5a:	9712      	lw	a3,72(sp)
            tm->func_proc = func_proc;
60a26a5c:	e275      	addu	a1,v0,v1
60a26a5e:	d8e3      	sw	a3,12(s0)
60a26a60:	6a04      	li	v0,4
            tm->state = TIMER_STATE_RUNNING;
60a26a62:	a0e0      	lbu	a3,0(s0)
60a26a64:	9604      	lw	a2,16(sp)
            tm->attrb = attrb;
60a26a66:	ec4b      	neg	a0,v0
60a26a68:	ef8c      	and	a3,a0
60a26a6a:	d8a2      	sw	a1,8(s0)
60a26a6c:	6c01      	li	a0,1
60a26a6e:	6d0d      	li	a1,13
60a26a70:	ebab      	neg	v1,a1
60a26a72:	ef8d      	or	a3,a0
60a26a74:	e9cc      	and	s1,a2
60a26a76:	9605      	lw	a2,20(sp)
            tm->type = type;
60a26a78:	3228      	sll	v0,s1,2
60a26a7a:	ef6c      	and	a3,v1
60a26a7c:	6d11      	li	a1,17
60a26a7e:	ef4d      	or	a3,v0
60a26a80:	eccc      	and	a0,a2
60a26a82:	ebab      	neg	v1,a1
60a26a84:	3290      	sll	v0,a0,4
60a26a86:	ef6c      	and	a3,v1
60a26a88:	ef4d      	or	a3,v0
60a26a8a:	c0e0      	sb	a3,0(s0)
60a26a8c:	67dd      	move	a2,sp
            tm->tag = tag;
60a26a8e:	a6b8      	lbu	a1,24(a2)
60a26a90:	c0a1      	sb	a1,1(s0)
60a26a92:	1012      	b	60a26ab8 <__set_timer+0x90>
            break;
60a26a94:	b617      	lw	a2,60a26af0 <__set_timer+0xc8>
60a26a96:	6b00      	li	v1,0
60a26a98:	a680      	lbu	a0,0(a2)
60a26a9a:	240e      	beqz	a0,60a26ab8 <__set_timer+0x90>
60a26a9c:	b516      	lw	a1,60a26af4 <__set_timer+0xcc>
60a26a9e:	6903      	li	s1,3
60a26aa0:	9d00      	lw	s0,0(a1)
60a26aa2:	a0c0      	lbu	a2,0(s0)
60a26aa4:	ee2c      	and	a2,s1
60a26aa6:	26cf      	beqz	a2,60a26a46 <__set_timer+0x1e>
60a26aa8:	43e1      	addiu	a3,v1,1
60a26aaa:	6767      	move	v1,a3
60a26aac:	6744      	move	v0,a0
60a26aae:	eb91      	seb	v1
60a26ab0:	ea11      	zeb	v0
60a26ab2:	eb42      	slt	v1,v0
60a26ab4:	4810      	addiu	s0,16
60a26ab6:	61f5      	btnez	60a26aa2 <__set_timer+0x7a>
60a26ab8:	9308      	lw	v1,32(sp)
        }
    }

    if (timer_id == -1)
60a26aba:	ec6f      	not	a0,v1
60a26abc:	651b      	move	t8,v1
    {
        PRINT_ERR("set app timer fail#3");
        while (1)
        {
            ; //nothing
        }
    }

    return timer_id;
60a26abe:	2c07      	bnez	a0,60a26ace <__set_timer+0xa6>
60a26ac0:	6d00      	li	a1,0
60a26ac2:	b00e      	lw	s0,60a26af8 <__set_timer+0xd0>
60a26ac4:	0c04      	la	a0,60a26ad4 <__set_timer+0xac>
60a26ac6:	67c5      	move	a2,a1
60a26ac8:	e840      	jalr	s0
60a26aca:	6f4b      	li	a3,75
60a26acc:	17ff      	b	60a26acc <__set_timer+0xa4>
60a26ace:	6758      	move	v0,t8
}
60a26ad0:	6477      	restore	56,ra,s0-s1
60a26ad2:	e8a0      	jrc	ra
60a26ad4:	453c      	daddiu	s1,a1,-4
60a26ad6:	203e      	beqz	s0,60a26b54 <modify_app_timer+0x20>
60a26ad8:	6573      	move	s3,v1
60a26ada:	2074      	beqz	s0,60a26bc4 <restart_app_timer+0xc>
60a26adc:	7061      	cmpi	s0,97
60a26ade:	2070      	beqz	s0,60a26bc0 <restart_app_timer+0x8>
60a26ae0:	6974      	li	s1,116
60a26ae2:	656d      	move	t3,a1
60a26ae4:	2072      	beqz	s0,60a26bca <restart_app_timer+0x12>
60a26ae6:	6166      	btnez	60a26bb4 <stop_app_timer+0x34>
60a26ae8:	6c69      	li	a0,105
60a26aea:	3323      	sra	v1,s1,8
60a26aec:	0000      	addiu	s0,sp,0
60a26aee:	0000      	addiu	s0,sp,0
60a26af0:	95a0      	lw	a1,640(sp)
60a26af2:	9fc1      	lw	a2,4(a3)
60a26af4:	9590      	lw	a1,576(sp)
60a26af6:	9fc1      	lw	a2,4(a3)
60a26af8:	6009      	bteqz	60a26b0c <set_app_timer+0x10>
60a26afa:	bfc2      	lwu	a2,8(a3)

60a26afc <set_app_timer>:
60a26afc:	64c4      	save	32,ra
60a26afe:	3282      	srl	v0,a0,8
60a26b00:	d604      	sw	a2,16(sp)
60a26b02:	67e5      	move	a3,a1
60a26b04:	67c2      	move	a2,v0
60a26b06:	ef31      	zeh	a3
60a26b08:	ec11      	zeb	a0
60a26b0a:	6d00      	li	a1,0
60a26b0c:	1901 9a8a 	jal	60a26a28 <__set_timer>
60a26b10:	ee11      	zeb	a2
60a26b12:	6444      	restore	32,ra
60a26b14:	e8a0      	jrc	ra
	...

60a26b18 <set_single_shot_app_timer>:
60a26b18:	64c4      	save	32,ra
60a26b1a:	3282      	srl	v0,a0,8
60a26b1c:	d604      	sw	a2,16(sp)
60a26b1e:	67e5      	move	a3,a1
60a26b20:	67c2      	move	a2,v0
60a26b22:	ef31      	zeh	a3
60a26b24:	ec11      	zeb	a0
60a26b26:	6d01      	li	a1,1
60a26b28:	1901 9a8a 	jal	60a26a28 <__set_timer>
60a26b2c:	ee11      	zeb	a2
60a26b2e:	6444      	restore	32,ra
60a26b30:	e8a0      	jrc	ra
	...

60a26b34 <modify_app_timer>:
60a26b34:	64f4      	save	32,ra,s0-s1
60a26b36:	ec91      	seb	a0
60a26b38:	6705      	move	s0,a1
60a26b3a:	ea8f      	not	v0,a0
60a26b3c:	e831      	zeh	s0
60a26b3e:	2206      	beqz	v0,60a26b4c <modify_app_timer+0x18>
60a26b40:	b60d      	lw	a2,60a26b74 <modify_app_timer+0x40>
60a26b42:	67a4      	move	a1,a0
60a26b44:	a660      	lbu	v1,0(a2)
60a26b46:	ed11      	zeb	a1
60a26b48:	ed63      	sltu	a1,v1
60a26b4a:	6102      	btnez	60a26b50 <modify_app_timer+0x1c>
60a26b4c:	6a00      	li	v0,0
60a26b4e:	1010      	b	60a26b70 <modify_app_timer+0x3c>
60a26b50:	b10a      	lw	s1,60a26b78 <modify_app_timer+0x44>
60a26b52:	3790      	sll	a3,a0,4
60a26b54:	9980      	lw	a0,0(s1)
60a26b56:	6750      	move	v0,s0
60a26b58:	e4e5      	addu	s1,a0,a3
60a26b5a:	200a      	beqz	s0,60a26b70 <modify_app_timer+0x3c>
60a26b5c:	6c00      	li	a0,0
60a26b5e:	b208      	lw	v0,60a26b7c <modify_app_timer+0x48>
60a26b60:	c902      	sh	s0,4(s1)
60a26b62:	67a4      	move	a1,a0
60a26b64:	67c4      	move	a2,a0
60a26b66:	ea40      	jalr	v0
60a26b68:	6f1c      	li	a3,28
60a26b6a:	e209      	addu	v0,s0
60a26b6c:	d942      	sw	v0,8(s1)
60a26b6e:	6a01      	li	v0,1
60a26b70:	6474      	restore	32,ra,s0-s1
60a26b72:	e8a0      	jrc	ra
60a26b74:	95a0      	lw	a1,640(sp)
60a26b76:	9fc1      	lw	a2,4(a3)
60a26b78:	9590      	lw	a1,576(sp)
60a26b7a:	9fc1      	lw	a2,4(a3)
60a26b7c:	6009      	bteqz	60a26b90 <stop_app_timer+0x10>
60a26b7e:	bfc2      	lwu	a2,8(a3)

60a26b80 <stop_app_timer>:
60a26b80:	ec91      	seb	a0
60a26b82:	ea8f      	not	v0,a0
60a26b84:	2206      	beqz	v0,60a26b92 <stop_app_timer+0x12>
60a26b86:	b60b      	lw	a2,60a26bb0 <stop_app_timer+0x30>
60a26b88:	67a4      	move	a1,a0
60a26b8a:	a660      	lbu	v1,0(a2)
60a26b8c:	ed11      	zeb	a1
60a26b8e:	ed63      	sltu	a1,v1
60a26b90:	6102      	btnez	60a26b96 <stop_app_timer+0x16>
60a26b92:	e820      	jr	ra
60a26b94:	6a00      	li	v0,0
60a26b96:	3790      	sll	a3,a0,4
60a26b98:	b407      	lw	a0,60a26bb4 <stop_app_timer+0x34>
60a26b9a:	6d04      	li	a1,4
60a26b9c:	9cc0      	lw	a2,0(a0)
60a26b9e:	ebab      	neg	v1,a1
60a26ba0:	e6f1      	addu	a0,a2,a3
60a26ba2:	a4e0      	lbu	a3,0(a0)
60a26ba4:	4346      	addiu	v0,v1,6
60a26ba6:	ef6c      	and	a3,v1
60a26ba8:	ef4d      	or	a3,v0
60a26baa:	6a01      	li	v0,1
60a26bac:	e820      	jr	ra
60a26bae:	c4e0      	sb	a3,0(a0)
60a26bb0:	95a0      	lw	a1,640(sp)
60a26bb2:	9fc1      	lw	a2,4(a3)
60a26bb4:	9590      	lw	a1,576(sp)
60a26bb6:	9fc1      	lw	a2,4(a3)

60a26bb8 <restart_app_timer>:
60a26bb8:	64f4      	save	32,ra,s0-s1
60a26bba:	ec91      	seb	a0
60a26bbc:	ea8f      	not	v0,a0
60a26bbe:	2206      	beqz	v0,60a26bcc <restart_app_timer+0x14>
60a26bc0:	b610      	lw	a2,60a26c00 <restart_app_timer+0x48>
60a26bc2:	67a4      	move	a1,a0
60a26bc4:	a660      	lbu	v1,0(a2)
60a26bc6:	ed11      	zeb	a1
60a26bc8:	ed63      	sltu	a1,v1
60a26bca:	6102      	btnez	60a26bd0 <restart_app_timer+0x18>
60a26bcc:	6a00      	li	v0,0
60a26bce:	1015      	b	60a26bfa <restart_app_timer+0x42>
60a26bd0:	3690      	sll	a2,a0,4
60a26bd2:	b40d      	lw	a0,60a26c04 <restart_app_timer+0x4c>
60a26bd4:	6b04      	li	v1,4
60a26bd6:	9c00      	lw	s0,0(a0)
60a26bd8:	e96b      	neg	s1,v1
60a26bda:	e0c1      	addu	s0,a2
60a26bdc:	a0a0      	lbu	a1,0(s0)
60a26bde:	6c00      	li	a0,0
60a26be0:	ed2c      	and	a1,s1
60a26be2:	6901      	li	s1,1
60a26be4:	ed2d      	or	a1,s1
60a26be6:	b209      	lw	v0,60a26c08 <restart_app_timer+0x50>
60a26be8:	c0a0      	sb	a1,0(s0)
60a26bea:	67c4      	move	a2,a0
60a26bec:	67a4      	move	a1,a0
60a26bee:	ea40      	jalr	v0
60a26bf0:	6f1c      	li	a3,28
60a26bf2:	a8e2      	lhu	a3,4(s0)
60a26bf4:	e2f1      	addu	a0,v0,a3
60a26bf6:	d882      	sw	a0,8(s0)
60a26bf8:	6751      	move	v0,s1
60a26bfa:	6474      	restore	32,ra,s0-s1
60a26bfc:	e8a0      	jrc	ra
60a26bfe:	0000      	addiu	s0,sp,0
60a26c00:	95a0      	lw	a1,640(sp)
60a26c02:	9fc1      	lw	a2,4(a3)
60a26c04:	9590      	lw	a1,576(sp)
60a26c06:	9fc1      	lw	a2,4(a3)
60a26c08:	6009      	bteqz	60a26c1c <kill_app_timer+0x10>
60a26c0a:	bfc2      	lwu	a2,8(a3)

60a26c0c <kill_app_timer>:
60a26c0c:	ec91      	seb	a0
60a26c0e:	ea8f      	not	v0,a0
60a26c10:	2206      	beqz	v0,60a26c1e <kill_app_timer+0x12>
60a26c12:	b60a      	lw	a2,60a26c38 <kill_app_timer+0x2c>
60a26c14:	67a4      	move	a1,a0
60a26c16:	a660      	lbu	v1,0(a2)
60a26c18:	ed11      	zeb	a1
60a26c1a:	ed63      	sltu	a1,v1
60a26c1c:	6102      	btnez	60a26c22 <kill_app_timer+0x16>
60a26c1e:	e820      	jr	ra
60a26c20:	6a00      	li	v0,0
60a26c22:	b707      	lw	a3,60a26c3c <kill_app_timer+0x30>
60a26c24:	3690      	sll	a2,a0,4
60a26c26:	9f60      	lw	v1,0(a3)
60a26c28:	6d04      	li	a1,4
60a26c2a:	e3dd      	addu	a3,v1,a2
60a26c2c:	a740      	lbu	v0,0(a3)
60a26c2e:	ecab      	neg	a0,a1
60a26c30:	ea8c      	and	v0,a0
60a26c32:	c740      	sb	v0,0(a3)
60a26c34:	e820      	jr	ra
60a26c36:	6a01      	li	v0,1
60a26c38:	95a0      	lw	a1,640(sp)
60a26c3a:	9fc1      	lw	a2,4(a3)
60a26c3c:	9590      	lw	a1,576(sp)
60a26c3e:	9fc1      	lw	a2,4(a3)

60a26c40 <init_app_timers>:
60a26c40:	ed11      	zeb	a1
60a26c42:	6745      	move	v0,a1
60a26c44:	2518      	beqz	a1,60a26c76 <init_app_timers+0x36>
60a26c46:	b70d      	lw	a3,60a26c78 <init_app_timers+0x38>
60a26c48:	b60d      	lw	a2,60a26c7c <init_app_timers+0x3c>
60a26c4a:	df80      	sw	a0,0(a3)
60a26c4c:	c6a0      	sb	a1,0(a2)
60a26c4e:	6c00      	li	a0,0
60a26c50:	250e      	beqz	a1,60a26c6e <init_app_timers+0x2e>
60a26c52:	6d04      	li	a1,4
60a26c54:	edab      	neg	a1
60a26c56:	9f60      	lw	v1,0(a3)
60a26c58:	3290      	sll	v0,a0,4
60a26c5a:	e34d      	addu	v1,v0
60a26c5c:	a340      	lbu	v0,0(v1)
60a26c5e:	eaac      	and	v0,a1
60a26c60:	c340      	sb	v0,0(v1)
60a26c62:	4461      	addiu	v1,a0,1
60a26c64:	6783      	move	a0,v1
60a26c66:	a640      	lbu	v0,0(a2)
60a26c68:	ec11      	zeb	a0
60a26c6a:	ec43      	sltu	a0,v0
60a26c6c:	61f4      	btnez	60a26c56 <init_app_timers+0x16>
60a26c6e:	b405      	lw	a0,60a26c80 <init_app_timers+0x40>
60a26c70:	6e00      	li	a2,0
60a26c72:	c4c0      	sb	a2,0(a0)
60a26c74:	6a01      	li	v0,1
60a26c76:	e8a0      	jrc	ra
60a26c78:	9590      	lw	a1,576(sp)
60a26c7a:	9fc1      	lw	a2,4(a3)
60a26c7c:	95a0      	lw	a1,640(sp)
60a26c7e:	9fc1      	lw	a2,4(a3)
60a26c80:	9595      	lw	a1,596(sp)
60a26c82:	9fc1      	lw	a2,4(a3)

60a26c84 <standby_restart_all_app_timer>:
60a26c84:	f004 64f5 	save	a0,40,ra,s0-s1
60a26c88:	ed11      	zeb	a1
60a26c8a:	d504      	sw	a1,16(sp)
60a26c8c:	6900      	li	s1,0
60a26c8e:	2517      	beqz	a1,60a26cbe <standby_restart_all_app_timer+0x3a>
60a26c90:	950a      	lw	a1,40(sp)
60a26c92:	3430      	sll	a0,s1,4
60a26c94:	e581      	addu	s0,a1,a0
60a26c96:	a040      	lbu	v0,0(s0)
60a26c98:	6b03      	li	v1,3
60a26c9a:	ea6c      	and	v0,v1
60a26c9c:	7201      	cmpi	v0,1
60a26c9e:	6109      	btnez	60a26cb2 <standby_restart_all_app_timer+0x2e>
60a26ca0:	6c00      	li	a0,0
60a26ca2:	b209      	lw	v0,60a26cc4 <standby_restart_all_app_timer+0x40>
60a26ca4:	67c4      	move	a2,a0
60a26ca6:	6f1c      	li	a3,28
60a26ca8:	ea40      	jalr	v0
60a26caa:	67a4      	move	a1,a0
60a26cac:	a8e2      	lhu	a3,4(s0)
60a26cae:	e2f9      	addu	a2,v0,a3
60a26cb0:	d8c2      	sw	a2,8(s0)
60a26cb2:	4181      	addiu	a0,s1,1
60a26cb4:	6724      	move	s1,a0
60a26cb6:	9304      	lw	v1,16(sp)
60a26cb8:	e911      	zeb	s1
60a26cba:	e963      	sltu	s1,v1
60a26cbc:	61e9      	btnez	60a26c90 <standby_restart_all_app_timer+0xc>
60a26cbe:	6475      	restore	40,ra,s0-s1
60a26cc0:	e8a0      	jrc	ra
60a26cc2:	0000      	addiu	s0,sp,0
60a26cc4:	6009      	bteqz	60a26cd8 <applib_message_init+0x10>
60a26cc6:	bfc2      	lwu	a2,8(a3)

60a26cc8 <applib_message_init>:
60a26cc8:	64c3      	save	24,ra
 * \endcode
 * \note
 *******************************************************************************/
bool applib_message_init(void)
{
60a26cca:	b406      	lw	a0,60a26ce0 <applib_message_init+0x18>
    //清空 应用消息队列
    sys_mq_flush(g_this_app_info->mq_id);
60a26ccc:	6d00      	li	a1,0
60a26cce:	9c60      	lw	v1,0(a0)
60a26cd0:	b205      	lw	v0,60a26ce4 <applib_message_init+0x1c>
60a26cd2:	a383      	lbu	a0,3(v1)
60a26cd4:	67c5      	move	a2,a1
60a26cd6:	ea40      	jalr	v0
60a26cd8:	6f1a      	li	a3,26
60a26cda:	6a01      	li	v0,1

    return TRUE;
}
60a26cdc:	6443      	restore	24,ra
60a26cde:	e8a0      	jrc	ra
60a26ce0:	9598      	lw	a1,608(sp)
60a26ce2:	9fc1      	lw	a2,4(a3)
60a26ce4:	6009      	bteqz	60a26cf8 <send_sync_msg_btmanager+0x10>
60a26ce6:	bfc2      	lwu	a2,8(a3)

60a26ce8 <send_sync_msg_btmanager>:
60a26ce8:	f00e 64f9 	save	a0-a3,72,ra,s0-s1
 *      由于发送同步消息后会等待返回，如果调用 send_sync_msg 的代码是在 control bank段，那么上面的
 *      缓冲区可以开在bank data中。
 *******************************************************************************/
int send_sync_msg_btmanager(uint8 *bd_addr, msg_apps_t *msg, msg_reply_t *reply, uint32 timeout)
{
60a26cec:	b328      	lw	v1,60a26d8c <send_sync_msg_btmanager+0xa4>
    btstack_msg_t cur_msg;
    msg_reply_t temp_reply;
    os_event_t *sem; //同步消息同步信号量指针
    int retvalue = ERR_NO_ERR;
    uint8 mq_id = MQ_ID_BT;

    PRINT_DBG_INT("sync msg:", msg->type);

    if (g_app_info_vector[APP_TYPE_BTSTACK].used == 0)
60a26cee:	a34c      	lbu	v0,12(v1)
60a26cf0:	6900      	li	s1,0
60a26cf2:	6519      	move	t8,s1
    {
        return 0;
60a26cf4:	2247      	beqz	v0,60a26d84 <send_sync_msg_btmanager+0x9c>
60a26cf6:	b527      	lw	a1,60a26d90 <send_sync_msg_btmanager+0xa8>
    }

    //无限时等待信号量，同时只能有1个线程发送同步消息
    libc_sem_wait(thread_mutex, 0);
60a26cf8:	b027      	lw	s0,60a26d94 <send_sync_msg_btmanager+0xac>
60a26cfa:	9d80      	lw	a0,0(a1)
60a26cfc:	67d1      	move	a2,s1
60a26cfe:	67b1      	move	a1,s1
60a26d00:	e840      	jalr	s0
60a26d02:	6f14      	li	a3,20
60a26d04:	9513      	lw	a1,76(sp)

    //填充私有消息结构体
    libc_memcpy(&(cur_msg.msg), msg, sizeof(msg_apps_t));
60a26d06:	0404      	addiu	a0,sp,16
60a26d08:	6e08      	li	a2,8
60a26d0a:	e840      	jalr	s0
60a26d0c:	67f1      	move	a3,s1
60a26d0e:	9212      	lw	v0,72(sp)
    if (bd_addr != NULL)
60a26d10:	f020 0402 	addiu	a0,sp,34
60a26d14:	2204      	beqz	v0,60a26d1e <send_sync_msg_btmanager+0x36>
60a26d16:	67a2      	move	a1,v0
    {
        libc_memcpy(cur_msg.bd_addr, bd_addr, BD_ADDR_LEN);
60a26d18:	6e06      	li	a2,6
60a26d1a:	67f1      	move	a3,s1
60a26d1c:	1003      	b	60a26d24 <send_sync_msg_btmanager+0x3c>
60a26d1e:	67b1      	move	a1,s1
    }
    else
    {
        libc_memset(cur_msg.bd_addr, 0x0, BD_ADDR_LEN);
60a26d20:	6e06      	li	a2,6
60a26d22:	6f01      	li	a3,1
60a26d24:	e8c0      	jalrc	s0
60a26d26:	6d00      	li	a1,0
    }

    libc_sem_init(&sem, 0);
60a26d28:	b01b      	lw	s0,60a26d94 <send_sync_msg_btmanager+0xac>
60a26d2a:	040c      	addiu	a0,sp,48
60a26d2c:	67c5      	move	a2,a1
60a26d2e:	e840      	jalr	s0
60a26d30:	6f12      	li	a3,18
60a26d32:	960c      	lw	a2,48(sp)
    cur_msg.sem = sem;
60a26d34:	9414      	lw	a0,80(sp)
    if (reply == NULL)
60a26d36:	d606      	sw	a2,24(sp)
60a26d38:	2c02      	bnez	a0,60a26d3e <send_sync_msg_btmanager+0x56>
60a26d3a:	020a      	addiu	v0,sp,40
    {
        cur_msg.reply = &temp_reply;
60a26d3c:	1001      	b	60a26d40 <send_sync_msg_btmanager+0x58>
60a26d3e:	9214      	lw	v0,80(sp)
    }
    else
    {
        cur_msg.reply = reply;
60a26d40:	d207      	sw	v0,28(sp)
60a26d42:	b216      	lw	v0,60a26d98 <send_sync_msg_btmanager+0xb0>
    }

    //发送消息到队列中
    if (sys_mq_send((uint32) (mq_id), (void *) &cur_msg) < 0)
60a26d44:	6c03      	li	a0,3
60a26d46:	0504      	addiu	a1,sp,16
60a26d48:	6e00      	li	a2,0
60a26d4a:	ea40      	jalr	v0
60a26d4c:	6f18      	li	a3,24
60a26d4e:	5200      	slti	v0,0
60a26d50:	6002      	bteqz	60a26d56 <send_sync_msg_btmanager+0x6e>
60a26d52:	6902      	li	s1,2
    {
        //PRINT_ERR("sync msg ERR_MSGQUEUE_FULL!!");
        retvalue = ERR_MSGQUEUE_FULL;
60a26d54:	1009      	b	60a26d68 <send_sync_msg_btmanager+0x80>
60a26d56:	940c      	lw	a0,48(sp)
    }
    else
    {
        //等待同步消息回应
        if (libc_sem_wait(sem, timeout) < 0)
60a26d58:	9515      	lw	a1,84(sp)
60a26d5a:	b00f      	lw	s0,60a26d94 <send_sync_msg_btmanager+0xac>
60a26d5c:	6e00      	li	a2,0
60a26d5e:	e840      	jalr	s0
60a26d60:	6f14      	li	a3,20
60a26d62:	5200      	slti	v0,0
60a26d64:	6002      	bteqz	60a26d6a <send_sync_msg_btmanager+0x82>
60a26d66:	6904      	li	s1,4
        {
            //PRINT_ERR("sync msg ERR_SYNC_TIMEOUT!!");
            retvalue = ERR_SYNC_TIMEOUT;
60a26d68:	e92b      	neg	s1
60a26d6a:	6d00      	li	a1,0
        }
    }

    libc_sem_destroy(&sem);
60a26d6c:	b00a      	lw	s0,60a26d94 <send_sync_msg_btmanager+0xac>
60a26d6e:	67c5      	move	a2,a1
60a26d70:	040c      	addiu	a0,sp,48
60a26d72:	e840      	jalr	s0
60a26d74:	6f13      	li	a3,19
60a26d76:	b707      	lw	a3,60a26d90 <send_sync_msg_btmanager+0xa8>
    libc_sem_post(thread_mutex);
60a26d78:	6d00      	li	a1,0
60a26d7a:	9f80      	lw	a0,0(a3)
60a26d7c:	67c5      	move	a2,a1
60a26d7e:	e840      	jalr	s0
60a26d80:	6f16      	li	a3,22
60a26d82:	6519      	move	t8,s1

    PRINT_DBG_INT("sync msg ret:", msg->type);

    return retvalue;
60a26d84:	6758      	move	v0,t8
}
60a26d86:	6479      	restore	72,ra,s0-s1
60a26d88:	e8a0      	jrc	ra
60a26d8a:	0000      	addiu	s0,sp,0
60a26d8c:	a080      	lbu	a0,0(s0)
60a26d8e:	9fc1      	lw	a2,4(a3)
60a26d90:	959c      	lw	a1,624(sp)
60a26d92:	9fc1      	lw	a2,4(a3)
60a26d94:	6005      	bteqz	60a26da0 <send_sync_msg_btmanager+0xb8>
60a26d96:	bfc2      	lwu	a2,8(a3)
60a26d98:	6009      	bteqz	60a26dac <send_sync_msg_btmanager+0xc4>
60a26d9a:	bfc2      	lwu	a2,8(a3)
Disassembly of section BANK_CONTROL_1_41:

60a66800 <com_open_config_file>:
60a66800:	64e5      	save	40,ra,s0
 * \li  该接口只在 manager ap的 globe_data_init 中调用一次，也就是说在系统启动时
 *      进行一次打开初始化，之后任何地方读取应用配置项时都无须打开。
 *******************************************************************************/
bool com_open_config_file(const char* config_file)
{
60a66802:	6d00      	li	a1,0
    uint8 head[16];

    config_fp = sys_sd_fopen(config_file);
60a66804:	b011      	lw	s0,60a66848 <com_open_config_file+0x48>
60a66806:	67c5      	move	a2,a1
60a66808:	e840      	jalr	s0
60a6680a:	6f0d      	li	a3,13
60a6680c:	6782      	move	a0,v0
60a6680e:	b20e      	lw	v0,60a66844 <com_open_config_file+0x44>
60a66810:	6764      	move	v1,a0
    if (config_fp == NULL)
    {
        return FALSE;
60a66812:	da80      	sw	a0,0(v0)
60a66814:	2413      	beqz	a0,60a6683c <com_open_config_file+0x3c>
60a66816:	0504      	addiu	a1,sp,16
    }

    if (sys_sd_fread(config_fp, head, 16) == -1)
60a66818:	6e10      	li	a2,16
60a6681a:	e840      	jalr	s0
60a6681c:	6f11      	li	a3,17
60a6681e:	ec4f      	not	a0,v0
60a66820:	6b00      	li	v1,0
    {
        return FALSE;
60a66822:	240c      	beqz	a0,60a6683c <com_open_config_file+0x3c>
60a66824:	677d      	move	v1,sp
    }

    if ((head[0] != 'c') || (head[1] != 'f') || (head[2] != 'g'))
60a66826:	a3b0      	lbu	a1,16(v1)
60a66828:	7563      	cmpi	a1,99
60a6682a:	6107      	btnez	60a6683a <com_open_config_file+0x3a>
60a6682c:	a3d1      	lbu	a2,17(v1)
60a6682e:	7666      	cmpi	a2,102
60a66830:	6104      	btnez	60a6683a <com_open_config_file+0x3a>
60a66832:	a3f2      	lbu	a3,18(v1)
60a66834:	6b01      	li	v1,1
    {
        return FALSE;
    }

    return TRUE;
60a66836:	7767      	cmpi	a3,103
60a66838:	6001      	bteqz	60a6683c <com_open_config_file+0x3c>
60a6683a:	6b00      	li	v1,0
60a6683c:	6743      	move	v0,v1
}
60a6683e:	6465      	restore	40,ra,s0
60a66840:	e8a0      	jrc	ra
60a66842:	0000      	addiu	s0,sp,0
60a66844:	a090      	lbu	a0,16(s0)
60a66846:	9fc1      	lw	a2,4(a3)
60a66848:	6009      	bteqz	60a6685c <com_get_config_struct+0x10>
60a6684a:	bfc2      	lwu	a2,8(a3)

60a6684c <com_get_config_struct>:
60a6684c:	f008 64f6 	save	a0-a1,48,ra,s0-s1

/******************************************************************************/
/*!
 * \par  Description:
 *    关闭应用配置脚本文件。
 * \param[in]    none
 * \param[out]   none
 * \return       bool
 * \retval           TRUE 关闭应用配置脚本成功。
 * \retval           FALSE 关闭应用配置脚本失败。
 * \ingroup      common_func
 * \note
 *******************************************************************************/
#if 0
bool com_close_config_file(void)
{
    if (sys_sd_fclose(config_fp) == -1)
    {
        return FALSE;
    }

    return TRUE;
}
#endif

/******************************************************************************/
/*!
 * \par  Description:
 *    读取应用配置项。
 * \param[in]    config_id 配置参数ID
 * \param[in]    buf_len 参数输出缓冲区大小
 * \param[out]   buf 参数输出缓冲区
 * \return       bool
 * \retval           TRUE 读取配置项成功。
 * \retval           FALSE 读取配置项失败。
 * \ingroup      common_func
 * \ingroup      common_func
 * \par          exmaple code
 * \code
 例子1：获取背光亮度时间参数结构体
 if(com_get_config_struct(CONFIG_ID_LIGHT_TIME, config_buf, CONFIG_BUF_LEN) == TRUE)
 {
 config_nonlinear_t *config_param;

 config_param = (config_nonlinear_t *)config_buf;
 然后就可以对 config_param 按 config_nonlinear_t 结构进行访问
 }
 else
 {
 没有找到该应用配置项
 }
 * \endcode
 * \note
 * \li  取可变长的 config_string_t 和 config_nonlinear_t，必须先根据使用场合申请最大
 *      的config参数的 uint8 缓冲区并读取数据，读取成功后把该缓冲区强制转换为
 *      config_string_t 或 config_nonlinear_t 类型指针，然后就可以按照 config_string_t
 *      和 config_nonlinear_t类型进行访问。
 *******************************************************************************/
bool com_get_config_struct(uint16 config_id, uint8 *buf, uint16 buf_len)
{
60a66850:	67a4      	move	a1,a0
60a66852:	ed31      	zeh	a1
60a66854:	b118      	lw	s1,60a668b4 <com_get_config_struct+0x68>
    config_index_t temp_index;

    //读取配置项索引结构体
    if (sys_sd_fseek(config_fp, SEEK_SET, 16 + config_id * sizeof(config_index_t)) == -1)
60a66856:	33ac      	sll	v1,a1,3
60a66858:	ee31      	zeh	a2
60a6685a:	d606      	sw	a2,24(sp)
60a6685c:	9980      	lw	a0,0(s1)
60a6685e:	67c3      	move	a2,v1
60a66860:	b016      	lw	s0,60a668b8 <com_get_config_struct+0x6c>
60a66862:	6d00      	li	a1,0
60a66864:	4e10      	addiu	a2,16
60a66866:	e840      	jalr	s0
60a66868:	6f0f      	li	a3,15
60a6686a:	ea4f      	not	v0
60a6686c:	6b00      	li	v1,0
    {
        return FALSE;
60a6686e:	221f      	beqz	v0,60a668ae <com_get_config_struct+0x62>
60a66870:	9980      	lw	a0,0(s1)
    }
    if (sys_sd_fread(config_fp, &temp_index, sizeof(config_index_t)) == -1)
60a66872:	0504      	addiu	a1,sp,16
60a66874:	6e08      	li	a2,8
60a66876:	e840      	jalr	s0
60a66878:	6f11      	li	a3,17
60a6687a:	ec4f      	not	a0,v0
60a6687c:	6b00      	li	v1,0
    {
        return FALSE;
60a6687e:	2417      	beqz	a0,60a668ae <com_get_config_struct+0x62>
60a66880:	9604      	lw	a2,16(sp)
    }

    //读取配置项内容
    if (sys_sd_fseek(config_fp, SEEK_SET, temp_index.offset) == -1)
60a66882:	9980      	lw	a0,0(s1)
60a66884:	67a3      	move	a1,v1
60a66886:	e840      	jalr	s0
60a66888:	6f0f      	li	a3,15
60a6688a:	ee4f      	not	a2,v0
60a6688c:	6b00      	li	v1,0
    {
        return FALSE;
60a6688e:	260f      	beqz	a2,60a668ae <com_get_config_struct+0x62>
60a66890:	9605      	lw	a2,20(sp)
    }
    if (temp_index.length > buf_len)
60a66892:	9206      	lw	v0,24(sp)
60a66894:	9980      	lw	a0,0(s1)
60a66896:	eac3      	sltu	v0,a2
60a66898:	6003      	bteqz	60a668a0 <com_get_config_struct+0x54>
60a6689a:	950d      	lw	a1,52(sp)
    {
        if (sys_sd_fread(config_fp, buf, buf_len) == -1)
60a6689c:	67c2      	move	a2,v0
60a6689e:	1001      	b	60a668a2 <com_get_config_struct+0x56>
60a668a0:	950d      	lw	a1,52(sp)
        {
            return FALSE;
        }
    }
    else
    {
        if (sys_sd_fread(config_fp, buf, temp_index.length) == -1)
60a668a2:	e840      	jalr	s0
60a668a4:	6f11      	li	a3,17
60a668a6:	ef4f      	not	a3,v0
60a668a8:	6b00      	li	v1,0
        {
            return FALSE;
60a668aa:	2701      	beqz	a3,60a668ae <com_get_config_struct+0x62>
60a668ac:	6b01      	li	v1,1
        }
    }

    return TRUE;
60a668ae:	6743      	move	v0,v1
}
60a668b0:	6476      	restore	48,ra,s0-s1
60a668b2:	e8a0      	jrc	ra
60a668b4:	a090      	lbu	a0,16(s0)
60a668b6:	9fc1      	lw	a2,4(a3)
60a668b8:	6009      	bteqz	60a668cc <com_get_config_default+0x10>
60a668ba:	bfc2      	lwu	a2,8(a3)

60a668bc <com_get_config_default>:
60a668bc:	64f6      	save	48,ra,s0-s1

/******************************************************************************/
/*!
 * \par  Description:
 *    读取应用配置项默认值。
 * \param[in]    config_id 配置参数ID
 * \param[out]   none
 * \return       uint16
 * \retval           返回读取到的应用配置项默认值。
 * \ingroup      common_func
 * \ingroup      common_func
 * \par          exmaple code
 * \code
 例子1：获取背光亮度时间默认值
 light_time = com_get_config_default(CONFIG_ID_LIGHT_TIME);
 * \endcode
 * \note
 * \li  仅用于数值型参数，并由用户保证 config_id 正确，若找不到配置项则返回0。
 *******************************************************************************/
uint16 com_get_config_default(uint16 config_id)
{
60a668be:	67c4      	move	a2,a0
60a668c0:	b115      	lw	s1,60a66914 <com_get_config_default+0x58>
    config_index_t temp_index;
    uint16 default_value;

    //读取配置项索引结构体
    if (sys_sd_fseek(config_fp, SEEK_SET, 16 + config_id * sizeof(config_index_t)) == -1)
60a668c2:	ee31      	zeh	a2
60a668c4:	36cc      	sll	a2,3
60a668c6:	9980      	lw	a0,0(s1)
60a668c8:	b014      	lw	s0,60a66918 <com_get_config_default+0x5c>
60a668ca:	6d00      	li	a1,0
60a668cc:	4e10      	addiu	a2,16
60a668ce:	e840      	jalr	s0
60a668d0:	6f0f      	li	a3,15
60a668d2:	ea4f      	not	v0
60a668d4:	6b00      	li	v1,0
    {
        return 0;
60a668d6:	221a      	beqz	v0,60a6690c <com_get_config_default+0x50>
60a668d8:	9980      	lw	a0,0(s1)
    }
    if (sys_sd_fread(config_fp, &temp_index, sizeof(config_index_t)) == -1)
60a668da:	0504      	addiu	a1,sp,16
60a668dc:	6e08      	li	a2,8
60a668de:	e840      	jalr	s0
60a668e0:	6f11      	li	a3,17
60a668e2:	ec4f      	not	a0,v0
60a668e4:	6b00      	li	v1,0
    {
        return 0;
60a668e6:	2412      	beqz	a0,60a6690c <com_get_config_default+0x50>
60a668e8:	9980      	lw	a0,0(s1)
    }

    //读取配置项内容
    if (sys_sd_fseek(config_fp, SEEK_SET, temp_index.offset) == -1)
60a668ea:	9604      	lw	a2,16(sp)
60a668ec:	67a3      	move	a1,v1
60a668ee:	e840      	jalr	s0
60a668f0:	6f0f      	li	a3,15
60a668f2:	ed4f      	not	a1,v0
60a668f4:	6b00      	li	v1,0
    {
        return 0;
60a668f6:	250a      	beqz	a1,60a6690c <com_get_config_default+0x50>
60a668f8:	9980      	lw	a0,0(s1)
    }
    if (sys_sd_fread(config_fp, &default_value, sizeof(uint16)) == -1)
60a668fa:	6f11      	li	a3,17
60a668fc:	0506      	addiu	a1,sp,24
60a668fe:	e840      	jalr	s0
60a66900:	6e02      	li	a2,2
60a66902:	ef4f      	not	a3,v0
60a66904:	6b00      	li	v1,0
    {
        return 0;
60a66906:	2702      	beqz	a3,60a6690c <com_get_config_default+0x50>
60a66908:	675d      	move	v0,sp
    }

    return default_value;
60a6690a:	aa6c      	lhu	v1,24(v0)
60a6690c:	6743      	move	v0,v1
}
60a6690e:	6476      	restore	48,ra,s0-s1
60a66910:	e8a0      	jrc	ra
60a66912:	0000      	addiu	s0,sp,0
60a66914:	a090      	lbu	a0,16(s0)
60a66916:	9fc1      	lw	a2,4(a3)
60a66918:	6009      	bteqz	60a6692c <.LBE2+0xc>
60a6691a:	bfc2      	lwu	a2,8(a3)

60a6691c <com_set_sound_out>:
60a6691c:	b202      	lw	v0,60a66924 <.LBE2+0x4>
60a6691e:	c288      	sb	a0,8(v0)

60a66920 <.LBE2>:
60a66920:	e820      	jr	ra
    //设置音频输出状态
    change_soundout_state(state);

    return TRUE;
}
60a66922:	6a01      	li	v0,1
60a66924:	a094      	lbu	a0,20(s0)
60a66926:	9fc1      	lw	a2,4(a3)
