In archive common_ota.a:

Ota_rcp_q_cmd_deal.o:     file format elf32-tradlittlemips

Disassembly of section .text:

00000000 <message_copy>:
   0:	64e3      	save	24,ra,s0
   2:	ed11      	zeb	a1
   4:	7501      	cmpi	a1,1
   6:	6107      	btnez	16 <message_copy+0x16>
   8:	b30e      	lw	v1,40 <message_copy+0x40>
   a:	b20f      	lw	v0,44 <message_copy+0x44>
   c:	9ba0      	lw	a1,0(v1)
   e:	6e10      	li	a2,16
  10:	ea40      	jalr	v0
  12:	6f00      	li	a3,0
  14:	1013      	b	3c <message_copy+0x3c>
  16:	7502      	cmpi	a1,2
  18:	b00b      	lw	s0,44 <message_copy+0x44>
  1a:	b50a      	lw	a1,40 <message_copy+0x40>
  1c:	6104      	btnez	26 <message_copy+0x26>
  1e:	9da0      	lw	a1,0(a1)
  20:	6e10      	li	a2,16
  22:	4d10      	addiu	a1,16
  24:	1009      	b	38 <message_copy+0x38>
  26:	b209      	lw	v0,48 <message_copy+0x48>
  28:	9dc0      	lw	a2,0(a1)
  2a:	f020 a2ee 	lbu	a3,46(v0)
  2e:	f020 c6ec 	sb	a3,44(a2)
  32:	9da0      	lw	a1,0(a1)
  34:	6e0e      	li	a2,14
  36:	4d20      	addiu	a1,32
  38:	e840      	jalr	s0
  3a:	6f00      	li	a3,0
  3c:	6463      	restore	24,ra,s0
  3e:	e8a0      	jrc	ra
	...

0000004c <ota_enquiry_message>:
  4c:	64c8      	save	64,ra
  4e:	040a      	addiu	a0,sp,40
  50:	1800 0000 	jal	0 <message_copy>
  54:	6d03      	li	a1,3
  56:	b215      	lw	v0,a8 <ota_enquiry_message+0x5c>
  58:	9a60      	lw	v1,0(v0)
  5a:	f020 a3b2 	lbu	a1,50(v1)
  5e:	250a      	beqz	a1,74 <ota_enquiry_message+0x28>
  60:	6c00      	li	a0,0
  62:	6d00      	li	a1,0
  64:	b212      	lw	v0,ac <ota_enquiry_message+0x60>
  66:	f020 c392 	sb	a0,50(v1)
  6a:	67c5      	move	a2,a1
  6c:	0c07      	la	a0,88 <ota_enquiry_message+0x3c>
  6e:	ea40      	jalr	v0
  70:	6f4b      	li	a3,75
  72:	1006      	b	80 <ota_enquiry_message+0x34>
  74:	6f0e      	li	a3,14
  76:	b30f      	lw	v1,b0 <ota_enquiry_message+0x64>
  78:	d704      	sw	a3,16(sp)
  7a:	6785      	move	a0,a1
  7c:	eb40      	jalr	v1
  7e:	0606      	addiu	a2,sp,24
  80:	6a00      	li	v0,0
  82:	6448      	restore	64,ra
  84:	e8a0      	jrc	ra
  86:	0000      	addiu	s0,sp,0
  88:	5f67      	sltiu	a3,103
  8a:	6573      	move	s3,v1
  8c:	646e      	restore	112,ra,s0
  8e:	655f      	move	k0,a3
  90:	7272      	cmpi	v0,114
  92:	5f6f      	sltiu	a3,111
  94:	6f63      	li	a3,99
  96:	6e75      	li	a2,117
  98:	2074      	beqz	s0,182 <ota_get_ver_num+0x6>
  9a:	6863      	li	s0,99
  9c:	6e61      	li	a2,97
  9e:	6568      	move	t3,s0
  a0:	7420      	cmpi	a0,32
  a2:	206f      	beqz	s0,182 <ota_get_ver_num+0x6>
  a4:	0030      	addiu	s0,sp,192
	...

000000b4 <ota_enquiry_connect>:
  b4:	64f9      	save	72,ra,s0-s1
  b6:	6d00      	li	a1,0
  b8:	b11f      	lw	s1,134 <ota_enquiry_connect+0x80>
  ba:	0c13      	la	a0,104 <ota_enquiry_connect+0x50>
  bc:	67c5      	move	a2,a1
  be:	e940      	jalr	s1
  c0:	6f4b      	li	a3,75
  c2:	b11e      	lw	s1,138 <ota_enquiry_connect+0x84>
  c4:	000a      	addiu	s0,sp,40
  c6:	9960      	lw	v1,0(s1)
  c8:	a350      	lbu	v0,16(v1)
  ca:	7205      	cmpi	v0,5
  cc:	610d      	btnez	e8 <ota_enquiry_connect+0x34>
  ce:	6790      	move	a0,s0
  d0:	1800 0000 	jal	0 <message_copy>
  d4:	6d02      	li	a1,2
  d6:	9980      	lw	a0,0(s1)
  d8:	6d00      	li	a1,0
  da:	c4b0      	sb	a1,16(a0)
  dc:	6c00      	li	a0,0
  de:	6f10      	li	a3,16
  e0:	67a4      	move	a1,a0
  e2:	67d0      	move	a2,s0
  e4:	d704      	sw	a3,16(sp)
  e6:	1009      	b	fa <ota_enquiry_connect+0x46>
  e8:	6790      	move	a0,s0
  ea:	1800 0000 	jal	0 <message_copy>
  ee:	6d01      	li	a1,1
  f0:	6f10      	li	a3,16
  f2:	6c00      	li	a0,0
  f4:	d704      	sw	a3,16(sp)
  f6:	67a4      	move	a1,a0
  f8:	0606      	addiu	a2,sp,24
  fa:	b211      	lw	v0,13c <ota_enquiry_connect+0x88>
  fc:	eac0      	jalrc	v0
  fe:	6a00      	li	v0,0
 100:	6479      	restore	72,ra,s0-s1
 102:	e8a0      	jrc	ra
 104:	6572      	move	s3,v0
 106:	6563      	move	v1,v1
 108:	7669      	cmpi	a2,105
 10a:	2065      	beqz	s0,1d6 <reboot_system+0x1e>
 10c:	6e65      	li	a2,101
 10e:	7571      	cmpi	a1,113
 110:	7269      	cmpi	v0,105
 112:	2079      	beqz	s0,206 <reboot_system+0x4e>
 114:	6f63      	li	a3,99
 116:	6e6e      	li	a2,110
 118:	6365      	addiu	sp,808
 11a:	2074      	beqz	s0,204 <reboot_system+0x4c>
 11c:	7573      	cmpi	a1,115
 11e:	6363      	addiu	sp,792
 120:	7365      	cmpi	v1,101
 122:	2073      	beqz	s0,20a <reboot_system+0x52>
 124:	726f      	cmpi	v0,111
 126:	6e20      	li	a2,32
 128:	746f      	cmpi	a0,111
 12a:	4320      	addiu	s1,v1,0
 12c:	444d      	addiu	v0,a0,-3
 12e:	2120      	beqz	s1,170 <get_ver_message+0x30>
 130:	0021      	addiu	s0,sp,132
	...

00000140 <get_ver_message>:
 140:	64f4      	save	32,ra,s0-s1
 142:	b10d      	lw	s1,174 <get_ver_message+0x34>
 144:	6704      	move	s0,a0
 146:	e940      	jalr	s1
 148:	6c0a      	li	a0,10
 14a:	c840      	sh	v0,0(s0)
 14c:	e940      	jalr	s1
 14e:	6c0b      	li	a0,11
 150:	b10a      	lw	s1,178 <get_ver_message+0x38>
 152:	4084      	addiu	a0,s0,4
 154:	c841      	sh	v0,2(s0)
 156:	6d08      	li	a1,8
 158:	6e04      	li	a2,4
 15a:	e940      	jalr	s1
 15c:	6f1b      	li	a3,27
 15e:	6790      	move	a0,s0
 160:	4c08      	addiu	a0,8
 162:	f1c0 6d10 	li	a1,464
 166:	6e08      	li	a2,8
 168:	e940      	jalr	s1
 16a:	6f1b      	li	a3,27
 16c:	6a01      	li	v0,1
 16e:	6474      	restore	32,ra,s0-s1
 170:	e8a0      	jrc	ra
	...

0000017c <ota_get_ver_num>:
 17c:	64c8      	save	64,ra
 17e:	6d00      	li	a1,0
 180:	b20c      	lw	v0,1b0 <ota_get_ver_num+0x34>
 182:	67c5      	move	a2,a1
 184:	0c08      	la	a0,1a4 <ota_get_ver_num+0x28>
 186:	ea40      	jalr	v0
 188:	6f4b      	li	a3,75
 18a:	1800 0000 	jal	0 <message_copy>
 18e:	040a      	addiu	a0,sp,40
 190:	6f10      	li	a3,16
 192:	6c00      	li	a0,0
 194:	b208      	lw	v0,1b4 <ota_get_ver_num+0x38>
 196:	d704      	sw	a3,16(sp)
 198:	67a4      	move	a1,a0
 19a:	ea40      	jalr	v0
 19c:	0606      	addiu	a2,sp,24
 19e:	6a00      	li	v0,0
 1a0:	6448      	restore	64,ra
 1a2:	e8a0      	jrc	ra
 1a4:	6567      	move	v1,a3
 1a6:	5f74      	sltiu	a3,116
 1a8:	6576      	move	s3,a2
 1aa:	5f72      	sltiu	a3,114
 1ac:	756e      	cmpi	a1,110
 1ae:	006d      	addiu	s0,sp,436
	...

000001b8 <reboot_system>:
 1b8:	b405      	lw	a0,1cc <reboot_system+0x14>
 1ba:	6d2f      	li	a1,47
 1bc:	9c40      	lw	v0,0(a0)
 1be:	ebab      	neg	v1,a1
 1c0:	ea6c      	and	v0,v1
 1c2:	4b40      	addiu	v1,64
 1c4:	ea6d      	or	v0,v1
 1c6:	dc40      	sw	v0,0(a0)
 1c8:	17ff      	b	1c8 <reboot_system+0x10>
 1ca:	0000      	addiu	s0,sp,0
 1cc:	001c      	addiu	s0,sp,112
 1ce:	c012      	sb	s0,18(s0)
Disassembly of section .reginfo:

00000000 <.reginfo>:
   0:	a10100ff 	sb	at,255(t0)
	...
Disassembly of section .pdr:

00000000 <.pdr>:
   0:	00000000 	nop
   4:	80010000 	lb	at,0(zero)
   8:	fffffffc 	sdc3	$31,-4(ra)
	...
  14:	00000018 	mult	zero,zero
  18:	0000001d 	0x1d
  1c:	0000001f 	0x1f
  20:	00000000 	nop
  24:	80000000 	lb	zero,0(zero)
  28:	fffffffc 	sdc3	$31,-4(ra)
	...
  34:	00000040 	ssnop
  38:	0000001d 	0x1d
  3c:	0000001f 	0x1f
  40:	00000000 	nop
  44:	80030000 	lb	v1,0(zero)
  48:	fffffffc 	sdc3	$31,-4(ra)
	...
  54:	00000048 	0x48
  58:	0000001d 	0x1d
  5c:	0000001f 	0x1f
  60:	00000000 	nop
  64:	80030000 	lb	v1,0(zero)
  68:	fffffffc 	sdc3	$31,-4(ra)
	...
  74:	00000020 	add	zero,zero,zero
  78:	0000001d 	0x1d
  7c:	0000001f 	0x1f
  80:	00000000 	nop
  84:	80000000 	lb	zero,0(zero)
  88:	fffffffc 	sdc3	$31,-4(ra)
	...
  94:	00000040 	ssnop
  98:	0000001d 	0x1d
  9c:	0000001f 	0x1f
	...
  b8:	0000001d 	0x1d
  bc:	0000001f 	0x1f
Disassembly of section .debug_abbrev:

00000000 <.debug_abbrev>:
   0:	10011101 	beq	zero,at,4408 <reboot_system+0x4250>
   4:	11011206 	beq	t0,at,4820 <reboot_system+0x4668>
   8:	130e2501 	beq	t8,t6,9410 <reboot_system+0x9258>
   c:	1b0e030b 	0x1b0e030b
  10:	0200000e 	0x200000e
  14:	0e030024 	jal	80c0090 <reboot_system+0x80bfed8>
  18:	0b3e0b0b 	j	cf82c2c <reboot_system+0xcf82a74>
  1c:	16030000 	bne	s0,v1,20 <.debug_abbrev+0x20>
  20:	3a0e0300 	xori	t6,s0,0x300
  24:	490b3b0b 	bc2tl	$cc2,ec54 <reboot_system+0xea9c>
  28:	04000013 	bltz	zero,78 <.debug_abbrev+0x78>
  2c:	08030024 	j	c0090 <reboot_system+0xbfed8>
  30:	0b3e0b0b 	j	cf82c2c <reboot_system+0xcf82a74>
  34:	0f050000 	jal	c140000 <reboot_system+0xc13fe48>
  38:	000b0b00 	sll	at,t3,0xc
  3c:	01130600 	0x1130600
  40:	0b0b1301 	j	c2c4c04 <reboot_system+0xc2c4a4c>
  44:	0b3b0b3a 	j	cec2ce8 <reboot_system+0xcec2b30>
  48:	0d070000 	jal	41c0000 <reboot_system+0x41bfe48>
  4c:	3a080300 	xori	t0,s0,0x300
  50:	490b3b0b 	bc2tl	$cc2,ec80 <reboot_system+0xeac8>
  54:	000a3813 	0xa3813
  58:	000d0800 	sll	at,t5,0x0
  5c:	0b3a0e03 	j	ce8380c <reboot_system+0xce83654>
  60:	13490b3b 	beq	k0,t1,2d50 <reboot_system+0x2b98>
  64:	00000a38 	0xa38
  68:	01010109 	0x1010109
  6c:	00134913 	0x134913
  70:	00210a00 	0x210a00
  74:	0b2f1349 	j	cbc4d24 <reboot_system+0xcbc4b6c>
  78:	040b0000 	tltiu	zero,0
  7c:	0b130101 	j	c4c0404 <reboot_system+0xc4c024c>
  80:	3b0b3a0b 	xori	t3,t8,0x3a0b
  84:	0c00000b 	jal	2c <.debug_abbrev+0x2c>
  88:	0e030028 	jal	80c00a0 <reboot_system+0x80bfee8>
  8c:	00000d1c 	0xd1c
  90:	0300160d 	break	0x300,0x58
  94:	3b0b3a0e 	xori	t3,t8,0x3a0e
  98:	00134905 	0x134905
  9c:	01130e00 	0x1130e00
  a0:	0b0b1301 	j	c2c4c04 <reboot_system+0xc2c4a4c>
  a4:	053b0b3a 	0x53b0b3a
  a8:	0d0f0000 	jal	43c0000 <reboot_system+0x43bfe48>
  ac:	3a0e0300 	xori	t6,s0,0x300
  b0:	49053b0b 	bc2t	$cc1,ece0 <reboot_system+0xeb28>
  b4:	000a3813 	0xa3813
  b8:	000d1000 	sll	v0,t5,0x0
  bc:	0b3a0e03 	j	ce8380c <reboot_system+0xce83654>
  c0:	1349053b 	beq	k0,t1,15b0 <reboot_system+0x13f8>
  c4:	0b0d0b0b 	j	c342c2c <reboot_system+0xc342a74>
  c8:	0a380b0c 	j	8e02c30 <reboot_system+0x8e02a78>
  cc:	0f110000 	jal	c440000 <reboot_system+0xc43fe48>
  d0:	490b0b00 	bc2tl	$cc2,2cd4 <reboot_system+0x2b1c>
  d4:	12000013 	beqz	s0,124 <.debug_abbrev+0x124>
  d8:	0e03000d 	jal	80c0034 <reboot_system+0x80bfe7c>
  dc:	0b3b0b3a 	j	cec2ce8 <reboot_system+0xcec2b30>
  e0:	0b0b1349 	j	c2c4d24 <reboot_system+0xc2c4b6c>
  e4:	0b0c0b0d 	j	c302c34 <reboot_system+0xc302a7c>
  e8:	00000a38 	0xa38
  ec:	01012e13 	0x1012e13
  f0:	030c3f13 	0x30c3f13
  f4:	3b0b3a0e 	xori	t3,t8,0x3a0e
  f8:	490c270b 	bc2f	$cc3,9d28 <reboot_system+0x9b70>
  fc:	12011113 	beq	s0,at,454c <reboot_system+0x4394>
 100:	000a4001 	0xa4001
 104:	00051400 	sll	v0,a1,0x10
 108:	0b3a0e03 	j	ce8380c <reboot_system+0xce83654>
 10c:	13490b3b 	beq	k0,t1,2dfc <reboot_system+0x2c44>
 110:	00000a02 	srl	at,zero,0x8
 114:	03003415 	0x3003415
 118:	3b0b3a0e 	xori	t3,t8,0x3a0e
 11c:	0213490b 	0x213490b
 120:	1600000a 	bnez	s0,14c <.debug_abbrev+0x14c>
 124:	0e030034 	jal	80c00d0 <reboot_system+0x80bff18>
 128:	0b3b0b3a 	j	cec2ce8 <reboot_system+0xcec2b30>
 12c:	00001349 	0x1349
 130:	01012e17 	0x1012e17
 134:	030c3f13 	0x30c3f13
 138:	3b0b3a0e 	xori	t3,t8,0x3a0e
 13c:	110c270b 	beq	t0,t4,9d6c <reboot_system+0x9bb4>
 140:	40011201 	0x40011201
 144:	1800000a 	blez	zero,170 <get_ver_message+0x30>
 148:	0e030034 	jal	80c00d0 <reboot_system+0x80bff18>
 14c:	0b3b0b3a 	j	cec2ce8 <reboot_system+0xcec2b30>
 150:	0c3f1349 	jal	fc4d24 <reboot_system+0xfc4b6c>
 154:	00000c3c 	0xc3c
 158:	03003419 	0x3003419
 15c:	3b0b3a0e 	xori	t3,t8,0x3a0e
 160:	3f134905 	0x3f134905
 164:	000c3c0c 	syscall	0x30f0
	...
Disassembly of section .debug_info:

00000000 <.debug_info>:
   0:	00000d57 	0xd57
   4:	00000002 	srl	zero,zero,0x0
   8:	01040000 	0x1040000
   c:	00000000 	nop
  10:	000001d0 	0x1d0
  14:	00000000 	nop
  18:	00000597 	0x597
  1c:	000c6001 	movf	t4,zero,$fcc3
  20:	0002c000 	sll	t8,v0,0x0
  24:	04e10200 	bgez	a3,828 <.debug_info+0x828>
  28:	08010000 	j	40000 <reboot_system+0x3fe48>
  2c:	00071503 	sra	v0,a3,0x14
  30:	250f0800 	addiu	t7,t0,2048
  34:	02000000 	0x2000000
  38:	000008c3 	sra	at,zero,0x3
  3c:	2c020601 	sltiu	v0,zero,1537
  40:	02000001 	movf	zero,s0,$fcc0
  44:	0fd20207 	jal	f48081c <reboot_system+0xf480664>
  48:	05020000 	bltzl	t0,4c <.debug_info+0x4c>
  4c:	00044202 	srl	t0,a0,0x8
  50:	02070400 	0x2070400
  54:	000009e3 	0x9e3
  58:	ff020504 	sdc3	$2,1284(t8)
  5c:	04000004 	bltz	zero,70 <.debug_info+0x70>
  60:	0c300204 	jal	c00810 <reboot_system+0xc00658>
  64:	04080000 	tgei	zero,0
  68:	000d9002 	srl	s2,t5,0x0
  6c:	02070800 	0x2070800
  70:	0000052a 	0x52a
  74:	14020508 	bne	zero,v0,1498 <reboot_system+0x12e0>
  78:	04000000 	bltz	zero,7c <.debug_info+0x7c>
  7c:	02560307 	0x2560307
  80:	15020000 	bne	t0,v0,84 <.debug_info+0x84>
  84:	00000025 	move	zero,zero
  88:	000a9803 	sra	s3,t2,0x0
  8c:	3e1d0200 	0x3e1d0200
  90:	03000000 	0x3000000
  94:	00000b24 	0xb24
  98:	00762502 	0x762502
  9c:	69040000 	0x69040000
  a0:	0400746e 	bltz	zero,1d25c <reboot_system+0x1d0a4>
  a4:	0ae20205 	j	b880814 <reboot_system+0xb88065c>
  a8:	06010000 	bgez	s0,ac <.debug_info+0xac>
  ac:	00044202 	srl	t0,a0,0x8
  b0:	05070400 	0x5070400
  b4:	00e80604 	0xe80604
  b8:	05080000 	tgei	t0,0
  bc:	49500778 	0x49500778
  c0:	75050044 	jalx	4140110 <reboot_system+0x413ff58>
  c4:	0000003e 	0x3e
  c8:	07002302 	bltz	t8,8cd4 <reboot_system+0x8b1c>
  cc:	00444956 	0x444956
  d0:	003e7605 	0x3e7605
  d4:	23020000 	addi	v0,t8,0
  d8:	058f0802 	0x58f0802
  dc:	77050000 	jalx	c140000 <reboot_system+0xc13fe48>
  e0:	000000e8 	0xe8
  e4:	00042302 	srl	a0,a0,0xc
  e8:	0000f809 	jalr	zero
  ec:	0000a500 	sll	s4,zero,0x14
  f0:	00ac0a00 	0xac0a00
  f4:	00030000 	sll	zero,v1,0x0
  f8:	00067703 	sra	t6,a2,0x1c
  fc:	b5780500 	0xb5780500
 100:	06000000 	bltz	s0,104 <.debug_info+0x104>
 104:	00000128 	0x128
 108:	087e0510 	j	1f81440 <reboot_system+0x1f81288>
 10c:	00000ec5 	0xec5
 110:	00f87c05 	0xf87c05
 114:	23020000 	addi	v0,t8,0
 118:	097a0800 	j	5e82000 <reboot_system+0x5e81e48>
 11c:	7d050000 	0x7d050000
 120:	00000128 	0x128
 124:	00082302 	srl	a0,t0,0xc
 128:	00013809 	0x13809
 12c:	0000a500 	sll	s4,zero,0x14
 130:	00ac0a00 	0xac0a00
 134:	00070000 	sll	zero,a3,0x0
 138:	00088b03 	sra	s1,t0,0xc
 13c:	037e0500 	0x37e0500
 140:	0b000001 	j	c000004 <reboot_system+0xbfffe4c>
 144:	00000362 	0x362
 148:	0ce00302 	jal	3800c08 <reboot_system+0x3800a50>
 14c:	00000426 	0x426
 150:	0b810c00 	j	e043000 <reboot_system+0xe042e48>
 154:	0c010000 	jal	40000 <reboot_system+0x3fe48>
 158:	00000730 	tge	zero,zero,0x1c
 15c:	060a0c02 	tlti	s0,3074
 160:	0c030000 	jal	c0000 <reboot_system+0xbfe48>
 164:	00000a7a 	0xa7a
 168:	09810c20 	j	6043080 <reboot_system+0x6042ec8>
 16c:	01800000 	0x1800000
 170:	0004b80c 	syscall	0x12e0
 174:	0c018100 	jal	60400 <reboot_system+0x60248>
 178:	0000025c 	0x25c
 17c:	bf0c0182 	cache	0xc,386(t8)
 180:	83000000 	lb	zero,0(t8)
 184:	03070c01 	0x3070c01
 188:	01840000 	0x1840000
 18c:	000cc80c 	syscall	0x3320
 190:	0c018500 	jal	61400 <reboot_system+0x61248>
 194:	00000df6 	tne	zero,zero,0x37
 198:	e50c01a1 	swc1	$f12,417(t0)
 19c:	ff000001 	sdc3	$0,1(t8)
 1a0:	04ef0c01 	0x4ef0c01
 1a4:	02800000 	0x2800000
 1a8:	0007670c 	syscall	0x1d9c
 1ac:	0c028100 	jal	a0400 <reboot_system+0xa0248>
 1b0:	00000a01 	0xa01
 1b4:	720c0282 	0x720c0282
 1b8:	83000005 	lb	zero,5(t8)
 1bc:	0e4f0c02 	jal	93c3008 <reboot_system+0x93c2e50>
 1c0:	02840000 	0x2840000
 1c4:	0000360c 	syscall	0xd8
 1c8:	0c028500 	jal	a1400 <reboot_system+0xa1248>
 1cc:	00000184 	0x184
 1d0:	140c0286 	bne	zero,t4,bec <.debug_info+0xbec>
 1d4:	87000005 	lh	zero,5(t8)
 1d8:	085d0c02 	j	1743008 <reboot_system+0x1742e50>
 1dc:	02880000 	0x2880000
 1e0:	0004860c 	syscall	0x1218
 1e4:	0c028900 	jal	a2400 <reboot_system+0xa2248>
 1e8:	0000098e 	0x98e
 1ec:	d40c028a 	ldc1	$f12,650(zero)
 1f0:	8b000001 	lwl	zero,1(t8)
 1f4:	00ae0c02 	0xae0c02
 1f8:	028c0000 	0x28c0000
 1fc:	0008cf0c 	syscall	0x233c
 200:	0c028d00 	jal	a3400 <reboot_system+0xa3248>
 204:	00000390 	0x390
 208:	f10c028e 	0xf10c028e
 20c:	8f000005 	lw	zero,5(t8)
 210:	0a260c02 	j	8983008 <reboot_system+0x8982e50>
 214:	02900000 	0x2900000
 218:	0000e10c 	syscall	0x384
 21c:	0c029100 	jal	a4400 <reboot_system+0xa4248>
 220:	0000061d 	0x61d
 224:	4a0c0292 	c2	0xc0292
 228:	9300000a 	lbu	zero,10(t8)
 22c:	01060c02 	0x1060c02
 230:	02940000 	0x2940000
 234:	000c000c 	syscall	0x3000
 238:	0c029500 	jal	a5400 <reboot_system+0xa5248>
 23c:	000009ec 	0x9ec
 240:	1b0c0296 	0x1b0c0296
 244:	97000007 	lhu	zero,7(t8)
 248:	02a20c02 	0x2a20c02
 24c:	02980000 	0x2980000
 250:	0009260c 	syscall	0x2498
 254:	0c029900 	jal	a6400 <reboot_system+0xa6248>
 258:	00000eb1 	tgeu	zero,zero,0x3a
 25c:	490c029a 	bc2f	$cc3,cc8 <.debug_info+0xcc8>
 260:	9b000001 	lwr	zero,1(t8)
 264:	021c0c02 	0x21c0c02
 268:	029c0000 	0x29c0000
 26c:	000fa90c 	syscall	0x3ea4
 270:	0c029d00 	jal	a7400 <reboot_system+0xa7248>
 274:	0000016c 	0x16c
 278:	050c029e 	teqi	t0,670
 27c:	9f00000f 	0x9f00000f
 280:	06d80c02 	0x6d80c02
 284:	02a00000 	0x2a00000
 288:	000c370c 	syscall	0x30dc
 28c:	0c02a100 	jal	a8400 <reboot_system+0xa8248>
 290:	00000824 	and	at,zero,zero
 294:	350c02a2 	ori	t4,t0,0x2a2
 298:	a300000e 	sb	zero,14(t8)
 29c:	0b9b0c02 	j	e6c3008 <reboot_system+0xe6c2e50>
 2a0:	02a40000 	0x2a40000
 2a4:	000f1f0c 	syscall	0x3c7c
 2a8:	0c02a500 	jal	a9400 <reboot_system+0xa9248>
 2ac:	000008f4 	teq	zero,zero,0x23
 2b0:	510c02a6 	beql	t0,t4,d4c <.debug_info+0xd4c>
 2b4:	a700000b 	sh	zero,11(t8)
 2b8:	0dd40c02 	jal	7503008 <reboot_system+0x7502e50>
 2bc:	02a80000 	0x2a80000
 2c0:	0007d00c 	syscall	0x1f40
 2c4:	0c02a900 	jal	aa400 <reboot_system+0xaa248>
 2c8:	00000ac7 	0xac7
 2cc:	270c02aa 	addiu	t4,t8,682
 2d0:	ab000003 	swl	zero,3(t8)
 2d4:	033d0c02 	0x33d0c02
 2d8:	02ac0000 	0x2ac0000
 2dc:	0003530c 	syscall	0xd4c
 2e0:	0c02ad00 	jal	ab400 <reboot_system+0xab248>
 2e4:	00000369 	0x369
 2e8:	a40c02ae 	sh	t4,686(zero)
 2ec:	af000003 	sw	zero,3(t8)
 2f0:	03ba0c02 	0x3ba0c02
 2f4:	02b00000 	0x2b00000
 2f8:	0007510c 	syscall	0x1d44
 2fc:	0c02b100 	jal	ac400 <reboot_system+0xac248>
 300:	000003d0 	0x3d0
 304:	e60c02b2 	swc1	$f12,690(s0)
 308:	b3000003 	0xb3000003
 30c:	03fc0c02 	0x3fc0c02
 310:	02b40000 	0x2b40000
 314:	000d180c 	syscall	0x3460
 318:	0c048000 	jal	120000 <reboot_system+0x11fe48>
 31c:	00000e71 	tgeu	zero,zero,0x39
 320:	b10c0481 	0xb10c0481
 324:	82000009 	lb	zero,9(s0)
 328:	054e0c04 	tnei	t2,3076
 32c:	04830000 	bgezl	a0,330 <.debug_info+0x330>
 330:	0009500c 	syscall	0x2540
 334:	0c048400 	jal	121000 <reboot_system+0x120e48>
 338:	0000099f 	0x99f
 33c:	b70c0485 	0xb70c0485
 340:	8600000c 	lh	zero,12(s0)
 344:	0e860c04 	jal	a183010 <reboot_system+0xa182e58>
 348:	04870000 	0x4870000
 34c:	0006540c 	syscall	0x1950
 350:	0c048800 	jal	122000 <reboot_system+0x121e48>
 354:	000006b0 	tge	zero,zero,0x1a
 358:	6c0c0489 	0x6c0c0489
 35c:	8a000004 	lwl	zero,4(s0)
 360:	7e0d0004 	0x7e0d0004
 364:	03000008 	jr	t8
 368:	0143017a 	0x143017a
 36c:	7e090000 	0x7e090000
 370:	7d000003 	0x7d000003
 374:	0a000000 	j	8000000 <reboot_system+0x7fffe48>
 378:	000000ac 	0xac
 37c:	9c0e0005 	0x9c0e0005
 380:	1c000004 	bgtz	zero,394 <.debug_info+0x394>
 384:	0f013d07 	jal	c04f41c <reboot_system+0xc04f264>
 388:	000001b9 	0x1b9
 38c:	7d011807 	0x7d011807
 390:	02000000 	0x2000000
 394:	190f0023 	0x190f0023
 398:	07000009 	bltz	t8,3c0 <.debug_info+0x3c0>
 39c:	007d011a 	0x7d011a
 3a0:	23020000 	addi	v0,t8,0
 3a4:	0f360f01 	jal	cd83c04 <reboot_system+0xcd83a4c>
 3a8:	1c070000 	0x1c070000
 3ac:	00007d01 	0x7d01
 3b0:	02230200 	0x2230200
 3b4:	0004a50f 	0x4a50f
 3b8:	011e0700 	0x11e0700
 3bc:	0000007d 	0x7d
 3c0:	0f032302 	jal	c0c8c08 <reboot_system+0xc0c8a50>
 3c4:	00000538 	0x538
 3c8:	7d012307 	0x7d012307
 3cc:	02000000 	0x2000000
 3d0:	120f0423 	beq	s0,t7,1460 <reboot_system+0x12a8>
 3d4:	07000004 	bltz	t8,3e8 <.debug_info+0x3e8>
 3d8:	007d0124 	0x7d0124
 3dc:	23020000 	addi	v0,t8,0
 3e0:	04d31005 	bgezall	a2,43f8 <reboot_system+0x4240>
 3e4:	25070000 	addiu	a3,t0,0
 3e8:	00007d01 	0x7d01
 3ec:	04040100 	0x4040100
 3f0:	10062302 	beq	zero,a2,8ffc <reboot_system+0x8e44>
 3f4:	00000bf1 	tgeu	zero,zero,0x2f
 3f8:	7d012607 	0x7d012607
 3fc:	01000000 	0x1000000
 400:	23020004 	addi	v0,t8,4
 404:	0be20f06 	j	f883c18 <reboot_system+0xf883a60>
 408:	28070000 	slti	a3,zero,0
 40c:	00007d01 	0x7d01
 410:	07230200 	bgezl	t9,c14 <.debug_info+0xc14>
 414:	0007e10f 	0x7e10f
 418:	012b0700 	0x12b0700
 41c:	0000007d 	0x7d
 420:	0f082302 	jal	c208c08 <reboot_system+0xc208a50>
 424:	00000965 	0x965
 428:	7d012d07 	0x7d012d07
 42c:	02000000 	0x2000000
 430:	1a0f0923 	0x1a0f0923
 434:	0700000c 	bltz	t8,468 <.debug_info+0x468>
 438:	007d0130 	tge	v1,sp,0x4
 43c:	23020000 	addi	v0,t8,0
 440:	0f580f0a 	jal	d603c28 <reboot_system+0xd603a70>
 444:	33070000 	andi	a3,t8,0x0
 448:	00002c01 	0x2c01
 44c:	0b230200 	j	c8c0800 <reboot_system+0xc8c0648>
 450:	0001c50f 	0x1c50f
 454:	01340700 	0x1340700
 458:	0000049c 	0x49c
 45c:	0f0c2302 	jal	c308c08 <reboot_system+0xc308a50>
 460:	00000d4d 	break	0x0,0x35
 464:	9c013707 	0x9c013707
 468:	02000004 	sllv	zero,zero,s0
 46c:	2b0f1023 	slti	t7,t8,4131
 470:	0700000b 	bltz	t8,4a0 <.debug_info+0x4a0>
 474:	049c0138 	0x49c0138
 478:	23020000 	addi	v0,t8,0
 47c:	0a670f14 	j	99c3c50 <reboot_system+0x99c3a98>
 480:	3b070000 	xori	a3,t8,0x0
 484:	00007d01 	0x7d01
 488:	18230200 	0x18230200
 48c:	0005bc0f 	0x5bc0f
 490:	013c0700 	0x13c0700
 494:	0000007d 	0x7d
 498:	00192302 	srl	a0,t9,0xc
 49c:	00450411 	0x450411
 4a0:	000d0000 	sll	zero,t5,0x0
 4a4:	07000007 	bltz	t8,4c4 <.debug_info+0x4c4>
 4a8:	037e013d 	0x37e013d
 4ac:	350e0000 	ori	t6,t0,0x0
 4b0:	18000006 	blez	zero,4cc <.debug_info+0x4cc>
 4b4:	0f017707 	jal	c05dc1c <reboot_system+0xc05da64>
 4b8:	00000021 	move	zero,zero
 4bc:	2c014607 	sltiu	at,zero,17927
 4c0:	02000000 	0x2000000
 4c4:	5f0f0023 	0x5f0f0023
 4c8:	0700000a 	bltz	t8,4f4 <.debug_info+0x4f4>
 4cc:	002c0148 	0x2c0148
 4d0:	23020000 	addi	v0,t8,0
 4d4:	0bd80f01 	j	f603c04 <reboot_system+0xf603a4c>
 4d8:	4a070000 	c2	0x70000
 4dc:	00007d01 	0x7d01
 4e0:	02230200 	0x2230200
 4e4:	00011c0f 	0x11c0f
 4e8:	014c0700 	0x14c0700
 4ec:	0000007d 	0x7d
 4f0:	0f032302 	jal	c0c8c08 <reboot_system+0xc0c8a50>
 4f4:	0000066c 	0x66c
 4f8:	7d014e07 	0x7d014e07
 4fc:	02000000 	0x2000000
 500:	6e0f0423 	0x6e0f0423
 504:	0700000f 	bltz	t8,544 <.debug_info+0x544>
 508:	007d0150 	0x7d0150
 50c:	23020000 	addi	v0,t8,0
 510:	08b60f05 	j	2d83c14 <reboot_system+0x2d83a5c>
 514:	52070000 	beql	s0,a3,518 <.debug_info+0x518>
 518:	00007d01 	0x7d01
 51c:	06230200 	bgezl	s1,d20 <.debug_info+0xd20>
 520:	000b180f 	0xb180f
 524:	01540700 	0x1540700
 528:	0000007d 	0x7d
 52c:	0f072302 	jal	c1c8c08 <reboot_system+0xc1c8a50>
 530:	000006ca 	0x6ca
 534:	2c015607 	sltiu	at,zero,22023
 538:	02000000 	0x2000000
 53c:	e40f0823 	swc1	$f15,2083(zero)
 540:	07000005 	bltz	t8,558 <.debug_info+0x558>
 544:	007d0158 	0x7d0158
 548:	23020000 	addi	v0,t8,0
 54c:	013f0f09 	0x13f0f09
 550:	5a070000 	0x5a070000
 554:	00007d01 	0x7d01
 558:	0a230200 	j	88c0800 <reboot_system+0x88c0648>
 55c:	0004540f 	0x4540f
 560:	015c0700 	0x15c0700
 564:	0000002c 	0x2c
 568:	100b2302 	beq	zero,t3,9174 <reboot_system+0x8fbc>
 56c:	00000562 	0x562
 570:	7d015e07 	0x7d015e07
 574:	01000000 	0x1000000
 578:	23020107 	addi	v0,t8,263
 57c:	05bc100c 	0x5bc100c
 580:	5f070000 	0x5f070000
 584:	00007d01 	0x7d01
 588:	00010100 	sll	zero,at,0x4
 58c:	0f0c2302 	jal	c308c08 <reboot_system+0xc308a50>
 590:	00000f9b 	0xf9b
 594:	7d016107 	0x7d016107
 598:	02000000 	0x2000000
 59c:	dc0f0d23 	ldc3	$15,3363(zero)
 5a0:	0700000e 	bltz	t8,5dc <.debug_info+0x5dc>
 5a4:	002c0164 	0x2c0164
 5a8:	23020000 	addi	v0,t8,0
 5ac:	089b0f0e 	j	26c3c38 <reboot_system+0x26c3a80>
 5b0:	66070000 	0x66070000
 5b4:	00002c01 	0x2c01
 5b8:	0f230200 	jal	c8c0800 <reboot_system+0xc8c0648>
 5bc:	000dbb0f 	0xdbb0f
 5c0:	01680700 	0x1680700
 5c4:	0000002c 	0x2c
 5c8:	0f102302 	jal	c408c08 <reboot_system+0xc408a50>
 5cc:	00000b8f 	0xb8f
 5d0:	2c016a07 	sltiu	at,zero,27143
 5d4:	02000000 	0x2000000
 5d8:	6e0f1123 	0x6e0f1123
 5dc:	07000002 	bltz	t8,5e8 <.debug_info+0x5e8>
 5e0:	007d016c 	0x7d016c
 5e4:	23020000 	addi	v0,t8,0
 5e8:	01ad0f12 	0x1ad0f12
 5ec:	6e070000 	0x6e070000
 5f0:	00007d01 	0x7d01
 5f4:	13230200 	beq	t9,v1,df8 <reboot_system+0xc40>
 5f8:	000b760f 	0xb760f
 5fc:	01700700 	0x1700700
 600:	0000007d 	0x7d
 604:	0f142302 	jal	c508c08 <reboot_system+0xc508a50>
 608:	00000000 	nop
 60c:	7d017207 	0x7d017207
 610:	02000000 	0x2000000
 614:	f00f1523 	0xf00f1523
 618:	0700000e 	bltz	t8,654 <.debug_info+0x654>
 61c:	007d0174 	teq	v1,sp,0x5
 620:	23020000 	addi	v0,t8,0
 624:	07ad0f16 	0x7ad0f16
 628:	76070000 	jalx	81c0000 <reboot_system+0x81bfe48>
 62c:	00007d01 	0x7d01
 630:	17230200 	bne	t9,v1,e34 <reboot_system+0xc7c>
 634:	0ea00d00 	jal	a803400 <reboot_system+0xa803248>
 638:	77070000 	jalx	c1c0000 <reboot_system+0xc1bfe48>
 63c:	0004ae01 	0x4ae01
 640:	06870e00 	0x6870e00
 644:	07040000 	0x7040000
 648:	850f0187 	lh	t7,391(t0)
 64c:	07000005 	bltz	t8,664 <.debug_info+0x664>
 650:	007d0180 	0x7d0180
 654:	23020000 	addi	v0,t8,0
 658:	0ab70f00 	j	adc3c00 <reboot_system+0xadc3a48>
 65c:	82070000 	lb	a3,0(s0)
 660:	00007d01 	0x7d01
 664:	01230200 	0x1230200
 668:	000f7a0f 	0xf7a0f
 66c:	01840700 	0x1840700
 670:	0000007d 	0x7d
 674:	0f022302 	jal	c088c08 <reboot_system+0xc088a50>
 678:	00000247 	0x247
 67c:	7d018607 	0x7d018607
 680:	02000000 	0x2000000
 684:	0d000323 	jal	4000c8c <reboot_system+0x4000ad4>
 688:	0000037f 	0x37f
 68c:	41018707 	bc0t	fffe22ac <reboot_system+0xfffe20f4>
 690:	0b000006 	j	c000018 <reboot_system+0xbfffe60>
 694:	000006ae 	0x6ae
 698:	0c490901 	jal	1242404 <reboot_system+0x124224c>
 69c:	00000bae 	0xbae
 6a0:	0fbc0c00 	jal	ef03000 <reboot_system+0xef02e48>
 6a4:	0c010000 	jal	40000 <reboot_system+0x3fe48>
 6a8:	0000007b 	0x7b
 6ac:	05030002 	bgezl	t0,6b8 <.debug_info+0x6b8>
 6b0:	09000005 	j	4000014 <reboot_system+0x3fffe5c>
 6b4:	0006934d 	break	0x6,0x24d
 6b8:	06d00600 	bltzal	s6,1ebc <reboot_system+0x1d04>
 6bc:	09060000 	j	4180000 <reboot_system+0x417fe48>
 6c0:	0cf00853 	jal	3c0214c <reboot_system+0x3c01f94>
 6c4:	52090000 	beql	s0,t1,6c8 <.debug_info+0x6c8>
 6c8:	0000036e 	0x36e
 6cc:	00002302 	srl	a0,zero,0xc
 6d0:	000e1e03 	sra	v1,t6,0x18
 6d4:	b9530900 	swr	s3,2304(t2)
 6d8:	0b000006 	j	c000018 <reboot_system+0xbfffe60>
 6dc:	00000708 	0x708
 6e0:	0c8e0901 	jal	2382404 <reboot_system+0x238224c>
 6e4:	00000d62 	0xd62
 6e8:	0c100c00 	jal	403000 <reboot_system+0x402e48>
 6ec:	0c010000 	jal	40000 <reboot_system+0x3fe48>
 6f0:	00000d39 	0xd39
 6f4:	02020c02 	0x2020c02
 6f8:	0c030000 	jal	c0000 <reboot_system+0xbfe48>
 6fc:	00000802 	srl	at,zero,0x0
 700:	0f400c04 	jal	d003010 <reboot_system+0xd002e58>
 704:	00050000 	sll	zero,a1,0x0
 708:	00094703 	sra	t0,t1,0x1c
 70c:	db950900 	ldc2	$21,2304(gp)
 710:	06000006 	bltz	s0,72c <.debug_info+0x72c>
 714:	0000075d 	0x75d
 718:	08d10902 	j	3442408 <reboot_system+0x3442250>
 71c:	00000fe5 	0xfe5
 720:	007dcd09 	0x7dcd09
 724:	23020000 	addi	v0,t8,0
 728:	0bc71200 	j	f1c4800 <reboot_system+0xf1c4648>
 72c:	ce090000 	pref	0x9,0(s0)
 730:	0000007d 	0x7d
 734:	02070101 	0x2070101
 738:	91120123 	lbu	s2,291(t0)
 73c:	09000002 	j	4000008 <reboot_system+0x3fffe50>
 740:	00007dcf 	0x7dcf
 744:	06010100 	bgez	s0,b48 <.debug_info+0xb48>
 748:	12012302 	beq	s0,at,9354 <reboot_system+0x919c>
 74c:	0000015c 	0x15c
 750:	007dd009 	0x7dd009
 754:	01010000 	0x1010000
 758:	01230205 	0x1230205
 75c:	07c90600 	tgeiu	s8,1536
 760:	09040000 	j	4100000 <reboot_system+0x40ffe48>
 764:	0ca112dc 	jal	2844b70 <reboot_system+0x28449b8>
 768:	d4090000 	ldc1	$f9,0(zero)
 76c:	0000007d 	0x7d
 770:	02070101 	0x2070101
 774:	3e120023 	0x3e120023
 778:	09000008 	j	4000020 <reboot_system+0x3fffe68>
 77c:	00007dd5 	0x7dd5
 780:	06010100 	bgez	s0,b84 <.debug_info+0xb84>
 784:	12002302 	beqz	s0,9390 <reboot_system+0x91d8>
 788:	0000002c 	0x2c
 78c:	007dd609 	0x7dd609
 790:	02010000 	0x2010000
 794:	00230204 	0x230204
 798:	00077912 	0x77912
 79c:	aed80900 	sw	t8,2304(s6)
 7a0:	01000006 	srlv	zero,zero,t0
 7a4:	23020202 	addi	v0,t8,514
 7a8:	0caa1200 	jal	2a84800 <reboot_system+0x2a84648>
 7ac:	da090000 	ldc2	$9,0(s0)
 7b0:	0000007d 	0x7d
 7b4:	02010101 	0x2010101
 7b8:	d7080023 	ldc1	$f8,35(t8)
 7bc:	09000009 	j	4000024 <reboot_system+0x3fffe6c>
 7c0:	000088db 	0x88db
 7c4:	02230200 	0x2230200
 7c8:	08420600 	j	1081800 <reboot_system+0x1081648>
 7cc:	09120000 	j	4480000 <reboot_system+0x447fe48>
 7d0:	05da08e6 	0x5da08e6
 7d4:	c9090000 	lwc2	$9,0(t0)
 7d8:	0000007d 	0x7d
 7dc:	08002302 	j	8c08 <reboot_system+0x8a50>
 7e0:	000006d3 	0x6d3
 7e4:	06d0ca09 	bltzal	s6,ffff300c <reboot_system+0xffff2e54>
 7e8:	23020000 	addi	v0,t8,0
 7ec:	0d860801 	jal	6182004 <reboot_system+0x6181e4c>
 7f0:	d1090000 	0xd1090000
 7f4:	00000713 	0x713
 7f8:	08072302 	j	1c8c08 <reboot_system+0x1c8a50>
 7fc:	00000a9f 	0xa9f
 800:	075ddc09 	0x75ddc09
 804:	23020000 	addi	v0,t8,0
 808:	069c080a 	0x69c080a
 80c:	dd090000 	ldc3	$9,0(t0)
 810:	0000007d 	0x7d
 814:	080e2302 	j	388c08 <reboot_system+0x388a50>
 818:	000000a3 	0xa3
 81c:	007dde09 	0x7dde09
 820:	23020000 	addi	v0,t8,0
 824:	0647080f 	0x647080f
 828:	df090000 	ldc3	$9,0(t8)
 82c:	0000007d 	0x7d
 830:	08102302 	j	408c08 <reboot_system+0x408a50>
 834:	00000dcb 	0xdcb
 838:	007de409 	0x7de409
 83c:	23020000 	addi	v0,t8,0
 840:	a7030011 	sh	v1,17(t8)
 844:	0900000d 	j	4000034 <reboot_system+0x3fffe7c>
 848:	0007c9e6 	0x7c9e6
 84c:	09aa0e00 	j	6a83800 <reboot_system+0x6a83648>
 850:	093c0000 	j	4f00000 <reboot_system+0x4effe48>
 854:	62080104 	0x62080104
 858:	09000000 	j	4000000 <reboot_system+0x3fffe48>
 85c:	00007dea 	0x7dea
 860:	00230200 	0x230200
 864:	00069108 	0x69108
 868:	08eb0900 	j	3ac2400 <reboot_system+0x3ac2248>
 86c:	02000007 	srav	zero,zero,s0
 870:	9b080123 	lwr	t0,291(t8)
 874:	09000001 	j	4000004 <reboot_system+0x3fffe4c>
 878:	00007dec 	0x7dec
 87c:	02230200 	0x2230200
 880:	0002b208 	0x2b208
 884:	7ded0900 	0x7ded0900
 888:	02000000 	0x2000000
 88c:	75080323 	jalx	4200c8c <reboot_system+0x4200ad4>
 890:	0900000c 	j	4000030 <reboot_system+0x3fffe78>
 894:	0009aaee 	0x9aaee
 898:	04230200 	bgezl	at,109c <reboot_system+0xee4>
 89c:	000de708 	0xde708
 8a0:	7def0900 	0x7def0900
 8a4:	02000000 	0x2000000
 8a8:	63082823 	0x63082823
 8ac:	0900000e 	j	4000038 <reboot_system+0x3fffe80>
 8b0:	00007df0 	tge	zero,zero,0x1f7
 8b4:	29230200 	slti	v1,t1,512
 8b8:	0005ca08 	0x5ca08
 8bc:	7df10900 	0x7df10900
 8c0:	02000000 	0x2000000
 8c4:	ed082a23 	swc3	$8,10787(t0)
 8c8:	09000007 	j	400001c <reboot_system+0x3fffe64>
 8cc:	00007df2 	tlt	zero,zero,0x1f7
 8d0:	2b230200 	slti	v1,t9,512
 8d4:	00006e08 	0x6e08
 8d8:	7df30900 	0x7df30900
 8dc:	02000000 	0x2000000
 8e0:	3a082c23 	xori	t0,s0,0x2c23
 8e4:	09000002 	j	4000008 <reboot_system+0x3fffe50>
 8e8:	00007df4 	teq	zero,zero,0x1f7
 8ec:	2d230200 	sltiu	v1,t1,512
 8f0:	000c4c08 	0xc4c08
 8f4:	7df60900 	0x7df60900
 8f8:	02000000 	0x2000000
 8fc:	fd082e23 	sdc3	$8,11811(t0)
 900:	09000007 	j	400001c <reboot_system+0x3fffe64>
 904:	00007df7 	0x7df7
 908:	2f230200 	sltiu	v1,t9,512
 90c:	000cf608 	0xcf608
 910:	7df80900 	0x7df80900
 914:	02000000 	0x2000000
 918:	07083023 	tgei	t8,12323
 91c:	0900000d 	j	4000034 <reboot_system+0x3fffe7c>
 920:	00007df9 	0x7df9
 924:	31230200 	andi	v1,t1,0x200
 928:	00063608 	0x63608
 92c:	7dfa0900 	0x7dfa0900
 930:	02000000 	0x2000000
 934:	15083223 	bne	t0,t0,d1c4 <reboot_system+0xd00c>
 938:	09000008 	j	4000020 <reboot_system+0x3fffe68>
 93c:	00007dfb 	0x7dfb
 940:	33230200 	andi	v1,t9,0x200
 944:	000aa808 	0xaa808
 948:	7dfc0900 	0x7dfc0900
 94c:	02000000 	0x2000000
 950:	7d083423 	0x7d083423
 954:	09000002 	j	4000008 <reboot_system+0x3fffe50>
 958:	00007dfd 	0x7dfd
 95c:	35230200 	ori	v1,t1,0x200
 960:	00079308 	0x79308
 964:	7dfe0900 	0x7dfe0900
 968:	02000000 	0x2000000
 96c:	af083623 	sw	t0,13859(t8)
 970:	09000004 	j	4000010 <reboot_system+0x3fffe58>
 974:	00007dff 	0x7dff
 978:	37230200 	ori	v1,t9,0x200
 97c:	000cde0f 	0xcde0f
 980:	01000900 	0x1000900
 984:	0000007d 	0x7d
 988:	0f382302 	jal	ce08c08 <reboot_system+0xce08a50>
 98c:	0000084d 	break	0x0,0x21
 990:	7d010109 	0x7d010109
 994:	02000000 	0x2000000
 998:	270f3923 	addiu	t7,t8,14627
 99c:	0900000e 	j	4000038 <reboot_system+0x3fffe80>
 9a0:	007d0103 	0x7d0103
 9a4:	23020000 	addi	v0,t8,0
 9a8:	ba09003a 	swr	t1,58(s0)
 9ac:	42000009 	c0	0x9
 9b0:	0a000008 	j	8000020 <reboot_system+0x7fffe68>
 9b4:	000000ac 	0xac
 9b8:	760d0001 	jalx	8340004 <reboot_system+0x833fe4c>
 9bc:	0900000d 	j	4000034 <reboot_system+0x3fffe7c>
 9c0:	084d0104 	j	1340410 <reboot_system+0x1340258>
 9c4:	d6090000 	ldc1	$f9,0(s0)
 9c8:	7d000009 	0x7d000009
 9cc:	0a000000 	j	8000000 <reboot_system+0x7fffe48>
 9d0:	000000ac 	0xac
 9d4:	e609001f 	swc1	$f9,31(s0)
 9d8:	7d000009 	0x7d000009
 9dc:	0a000000 	j	8000000 <reboot_system+0x7fffe48>
 9e0:	000000ac 	0xac
 9e4:	4306001d 	c0	0x106001d
 9e8:	0e00000a 	jal	8000028 <reboot_system+0x7fffe70>
 9ec:	57082604 	bnel	t8,t0,a200 <reboot_system+0xa048>
 9f0:	04000000 	bltz	zero,9f4 <.debug_info+0x9f4>
 9f4:	0000f81f 	0xf81f
 9f8:	00230200 	0x230200
 9fc:	0008a708 	0x8a708
 a00:	88200400 	lwl	zero,1024(at)
 a04:	02000000 	0x2000000
 a08:	a8080823 	swl	t0,2083(zero)
 a0c:	04000006 	bltz	zero,a28 <.debug_info+0xa28>
 a10:	00007d21 	0x7d21
 a14:	0a230200 	j	88c0800 <reboot_system+0x88c0648>
 a18:	000e0f08 	0xe0f08
 a1c:	7d220400 	0x7d220400
 a20:	02000000 	0x2000000
 a24:	29080b23 	slti	t0,t0,2851
 a28:	0400000d 	bltz	zero,a60 <.debug_info+0xa60>
 a2c:	00007d24 	0x7d24
 a30:	0c230200 	jal	8c0800 <reboot_system+0x8c0648>
 a34:	00078a08 	0x78a08
 a38:	7d250400 	0x7d250400
 a3c:	02000000 	0x2000000
 a40:	03000d23 	0x3000d23
 a44:	00000a14 	0xa14
 a48:	09e62604 	j	7989810 <reboot_system+0x7989658>
 a4c:	73060000 	madd	t8,a2
 a50:	1000000a 	b	a7c <.debug_info+0xa7c>
 a54:	97082c04 	lhu	t0,11268(t8)
 a58:	04000004 	bltz	zero,a6c <.debug_info+0xa6c>
 a5c:	00007d2a 	0x7d2a
 a60:	00230200 	0x230200
 a64:	00078a08 	0x78a08
 a68:	732b0400 	0x732b0400
 a6c:	0200000a 	movz	zero,s0,zero
 a70:	09000123 	j	400048c <reboot_system+0x40002d4>
 a74:	00000a83 	sra	at,zero,0xa
 a78:	0000007d 	0x7d
 a7c:	0000ac0a 	0xac0a
 a80:	03000e00 	0x3000e00
 a84:	00000b08 	0xb08
 a88:	0a4e2c04 	j	938b010 <reboot_system+0x938ae58>
 a8c:	f9060000 	sdc2	$6,0(t0)
 a90:	1000000a 	b	abc <.debug_info+0xabc>
 a94:	97083804 	lhu	t0,14340(t8)
 a98:	04000004 	bltz	zero,aac <.debug_info+0xaac>
 a9c:	00007d31 	tgeu	zero,zero,0x1f4
 aa0:	00230200 	0x230200
 aa4:	000a9008 	0xa9008
 aa8:	7d320400 	0x7d320400
 aac:	02000000 	0x2000000
 ab0:	a7080123 	sh	t0,291(t8)
 ab4:	04000008 	bltz	zero,ad8 <.debug_info+0xad8>
 ab8:	00008833 	tltu	zero,zero,0x220
 abc:	02230200 	0x2230200
 ac0:	00090a08 	0x90a08
 ac4:	93340400 	lbu	s4,1024(t9)
 ac8:	02000000 	0x2000000
 acc:	a8080423 	swl	t0,1059(zero)
 ad0:	04000006 	bltz	zero,aec <.debug_info+0xaec>
 ad4:	00007d35 	0x7d35
 ad8:	08230200 	j	8c0800 <reboot_system+0x8c0648>
 adc:	000e0f08 	0xe0f08
 ae0:	7d360400 	0x7d360400
 ae4:	02000000 	0x2000000
 ae8:	dc080923 	ldc3	$8,2339(zero)
 aec:	0400000f 	bltz	zero,b2c <.debug_info+0xb2c>
 af0:	00036e37 	0x36e37
 af4:	0a230200 	j	88c0800 <reboot_system+0x88c0648>
 af8:	045f0300 	0x45f0300
 afc:	38040000 	xori	a0,zero,0x0
 b00:	00000a8e 	0xa8e
 b04:	000b6106 	0xb6106
 b08:	61043400 	0x61043400
 b0c:	00074208 	0x74208
 b10:	835b0400 	lb	k1,1024(k0)
 b14:	0200000a 	movz	zero,s0,zero
 b18:	3b080023 	xori	t0,t8,0x23
 b1c:	0400000a 	bltz	zero,b48 <.debug_info+0xb48>
 b20:	000af95c 	0xaf95c
 b24:	10230200 	beq	at,v1,1328 <reboot_system+0x1170>
 b28:	00079d08 	0x79d08
 b2c:	435d0400 	c0	0x15d0400
 b30:	0200000a 	movz	zero,s0,zero
 b34:	8e082023 	lw	t0,8227(s0)
 b38:	0400000c 	bltz	zero,b6c <.debug_info+0xb6c>
 b3c:	0000885e 	0x885e
 b40:	2e230200 	sltiu	v1,s1,512
 b44:	00068008 	0x68008
 b48:	885f0400 	lwl	ra,1024(v0)
 b4c:	02000000 	0x2000000
 b50:	c5083023 	lwc1	$f8,12323(t0)
 b54:	04000009 	bltz	zero,b7c <.debug_info+0xb7c>
 b58:	00007d60 	0x7d60
 b5c:	32230200 	andi	v1,s1,0x200
 b60:	00900300 	0x900300
 b64:	61040000 	0x61040000
 b68:	00000b04 	0xb04
 b6c:	000ba213 	0xba213
 b70:	0ae70100 	j	b9c0400 <reboot_system+0xb9c0248>
 b74:	50010000 	beql	zero,at,b78 <.debug_info+0xb78>
 b78:	00009301 	0x9301
 b7c:	00000000 	nop
 b80:	00004000 	sll	t0,zero,0x0
 b84:	146d0100 	bne	v1,t5,f88 <reboot_system+0xdd0>
 b88:	00000c89 	0xc89
 b8c:	00b34f01 	0xb34f01
 b90:	54010000 	bnel	zero,at,b94 <.debug_info+0xb94>
 b94:	000b6914 	0xb6914
 b98:	7d4f0100 	0x7d4f0100
 b9c:	01000000 	0x1000000
 ba0:	f1130055 	0xf1130055
 ba4:	0100000b 	movn	zero,t0,zero
 ba8:	00000af4 	teq	zero,zero,0x2b
 bac:	62013b01 	0x62013b01
 bb0:	00000003 	sra	zero,zero,0x0
 bb4:	88000000 	lwl	zero,0(zero)
 bb8:	01000000 	0x1000000
 bbc:	0c7d146d 	jal	1f451b4 <reboot_system+0x1f44ffc>
 bc0:	3a010000 	xori	at,s0,0x0
 bc4:	00000093 	0x93
 bc8:	83145401 	lb	s4,21505(t8)
 bcc:	0100000c 	syscall	0x40000
 bd0:	0000933a 	0x933a
 bd4:	15550100 	bne	t2,s5,fd8 <reboot_system+0xe20>
 bd8:	00000b40 	sll	at,zero,0xd
 bdc:	09d63c01 	j	758f004 <reboot_system+0x758ee4c>
 be0:	91020000 	lbu	v0,0(t0)
 be4:	00f71618 	0xf71618
 be8:	3e010000 	0x3e010000
 bec:	00000bf1 	tgeu	zero,zero,0x2f
 bf0:	43041100 	c0	0x1041100
 bf4:	1300000a 	beqz	t8,c20 <.debug_info+0xc20>
 bf8:	00000c53 	0xc53
 bfc:	00004301 	0x4301
 c00:	011e0100 	0x11e0100
 c04:	00000362 	0x362
 c08:	00000000 	nop
 c0c:	00000104 	0x104
 c10:	7d146d01 	0x7d146d01
 c14:	0100000c 	syscall	0x40000
 c18:	0000931d 	0x931d
 c1c:	14540100 	bne	v0,s4,1020 <reboot_system+0xe68>
 c20:	00000c83 	sra	at,zero,0x12
 c24:	00931d01 	0x931d01
 c28:	55010000 	bnel	t0,at,c2c <.debug_info+0xc2c>
 c2c:	000b4015 	0xb4015
 c30:	c61f0100 	lwc1	$f31,256(s0)
 c34:	02000009 	jalr	zero,s0
 c38:	f7151891 	sdc1	$f21,6289(t8)
 c3c:	01000000 	0x1000000
 c40:	000c5320 	0xc5320
 c44:	16600100 	bnez	s3,1048 <reboot_system+0xe90>
 c48:	00000f8a 	0xf8a
 c4c:	0c592101 	jal	1648404 <reboot_system+0x164824c>
 c50:	11000000 	beqz	t0,c54 <.debug_info+0xc54>
 c54:	000a8304 	0xa8304
 c58:	f9041100 	sdc2	$4,4352(t0)
 c5c:	1300000a 	beqz	t8,c88 <.debug_info+0xc88>
 c60:	00000c88 	0xc88
 c64:	000ecc01 	0xecc01
 c68:	01670100 	0x1670100
 c6c:	00000093 	0x93
 c70:	00000000 	nop
 c74:	00000174 	teq	zero,zero,0x5
 c78:	6e146d01 	0x6e146d01
 c7c:	0100000d 	break	0x100
 c80:	000c8866 	0xc8866
 c84:	00600100 	0x600100
 c88:	01380411 	0x1380411
 c8c:	dd130000 	ldc3	$19,0(t0)
 c90:	0100000c 	syscall	0x40000
 c94:	00000432 	tlt	zero,zero,0x10
 c98:	62010e01 	0x62010e01
 c9c:	00000003 	sra	zero,zero,0x0
 ca0:	a4000000 	sh	zero,0(zero)
 ca4:	01000001 	movf	zero,t0,$fcc0
 ca8:	0c7d146d 	jal	1f451b4 <reboot_system+0x1f44ffc>
 cac:	0d010000 	jal	4040000 <reboot_system+0x403fe48>
 cb0:	00000093 	0x93
 cb4:	83145401 	lb	s4,21505(t8)
 cb8:	0100000c 	syscall	0x40000
 cbc:	0000930d 	break	0x0,0x24c
 cc0:	15550100 	bne	t2,s5,10c4 <reboot_system+0xf0c>
 cc4:	00000b40 	sll	at,zero,0xd
 cc8:	09c61001 	j	7184004 <reboot_system+0x7183e4c>
 ccc:	91020000 	lbu	v0,0(t0)
 cd0:	00f71618 	0xf71618
 cd4:	11010000 	beq	t0,at,cd8 <.debug_info+0xcd8>
 cd8:	00000c88 	0xc88
 cdc:	0d021700 	jal	4085c00 <reboot_system+0x4085a48>
 ce0:	39010000 	xori	at,t0,0x0
 ce4:	01000009 	jalr	zero,t0
 ce8:	00000178 	0x178
 cec:	01cc0000 	0x1cc0000
 cf0:	6d010000 	0x6d010000
 cf4:	000c5515 	0xc5515
 cf8:	93790100 	lbu	t9,256(k1)
 cfc:	01000000 	0x1000000
 d00:	eb180052 	swc2	$24,82(t8)
 d04:	06000006 	bltz	s0,d20 <.debug_info+0xd20>
 d08:	00007d8a 	0x7d8a
 d0c:	19010100 	0x19010100
 d10:	000007bb 	0x7bb
 d14:	a2019b07 	sb	at,-25849(s0)
 d18:	01000004 	sllv	zero,zero,t0
 d1c:	10041901 	beq	zero,a0,7124 <reboot_system+0x6f6c>
 d20:	a1070000 	sb	a3,0(t0)
 d24:	00068701 	0x68701
 d28:	19010100 	0x19010100
 d2c:	000008e3 	0x8e3
 d30:	3501a707 	ori	at,t0,0xa707
 d34:	01000006 	srlv	zero,zero,t0
 d38:	0ff01901 	jal	fc06404 <reboot_system+0xfc0624c>
 d3c:	12090000 	beq	s0,t1,d40 <.debug_info+0xd40>
 d40:	0009ba01 	0x9ba01
 d44:	18010100 	0x18010100
 d48:	000001f8 	0x1f8
 d4c:	0d546504 	jal	5519410 <reboot_system+0x5519258>
 d50:	01010000 	0x1010000
 d54:	0b610411 	j	d841044 <reboot_system+0xd840e8c>
 d58:	Address 0xd58 is out of bounds.

Disassembly of section .debug_line:

00000000 <.debug_line>:
   0:	00000154 	0x154
   4:	00fa0002 	0xfa0002
   8:	01010000 	0x1010000
   c:	000a0efb 	0xa0efb
  10:	01010101 	0x1010101
  14:	01000000 	0x1000000
  18:	2e2e2f2e 	sltiu	t6,s1,12078
  1c:	2f2e2e2f 	sltiu	t6,t9,11823
  20:	2e2f2e2e 	sltiu	t7,s1,11822
  24:	73702f2e 	0x73702f2e
  28:	65725f70 	0x65725f70
  2c:	6e692f6c 	0x6e692f6c
  30:	64756c63 	0x64756c63
  34:	2f2e0065 	sltiu	t6,t9,101
  38:	2e2f2e2e 	sltiu	t7,s1,11822
  3c:	2e2e2f2e 	sltiu	t6,s1,12078
  40:	636e692f 	0x636e692f
  44:	2e2f2e00 	sltiu	t7,s1,11776
  48:	2e2e2f2e 	sltiu	t6,s1,12078
  4c:	2f2e2e2f 	sltiu	t6,t9,11823
  50:	702f2e2e 	0x702f2e2e
  54:	725f7073 	0x725f7073
  58:	692f6c65 	0x692f6c65
  5c:	756c636e 	jalx	5b18db8 <reboot_system+0x5b18c00>
  60:	752f6564 	jalx	4bd9590 <reboot_system+0x4bd93d8>
  64:	00736f63 	0x736f63
  68:	61744f00 	0x61744f00
  6c:	7063725f 	udi15	v1,v1,t6,0x9
  70:	635f715f 	0x635f715f
  74:	645f646d 	0x645f646d
  78:	2e6c6165 	sltiu	t4,s3,24933
  7c:	00000063 	0x63
  80:	70797400 	0x70797400
  84:	74786565 	jalx	1e19594 <reboot_system+0x1e193dc>
  88:	0100682e 	0x100682e
  8c:	61630000 	0x61630000
  90:	745f6573 	jalx	17d95cc <reboot_system+0x17d9414>
  94:	2e657079 	sltiu	a1,s3,28793
  98:	00020068 	0x20068
  9c:	6d6f4300 	0x6d6f4300
  a0:	5f6e6f6d 	0x5f6e6f6d
  a4:	2e61746f 	sltiu	at,s3,29807
  a8:	00020068 	0x20068
  ac:	73797300 	0x73797300
  b0:	61746f5f 	0x61746f5f
  b4:	746e695f 	jalx	1b9a57c <reboot_system+0x1b9a3c4>
  b8:	61667265 	0x61667265
  bc:	682e6563 	0x682e6563
  c0:	00000100 	sll	zero,zero,0x4
  c4:	5f707061 	0x5f707061
  c8:	656d6974 	0x656d6974
  cc:	00682e72 	tlt	v1,t0,0xb9
  d0:	61000002 	0x61000002
  d4:	696c7070 	0x696c7070
  d8:	00682e62 	0x682e62
  dc:	75000002 	jalx	4000008 <reboot_system+0x3fffe50>
  e0:	5f736f63 	0x5f736f63
  e4:	65707974 	0x65707974
  e8:	00682e73 	tltu	v1,t0,0xb9
  ec:	62000003 	0x62000003
  f0:	61747374 	0x61747374
  f4:	635f6b63 	0x635f6b63
  f8:	6f6d6d6f 	0x6f6d6d6f
  fc:	00682e6e 	0x682e6e
 100:	00000002 	srl	zero,zero,0x0
 104:	01020500 	0x1020500
 108:	03000000 	0x3000000
 10c:	2b0100cf 	slti	at,t8,207
 110:	81d6492c 	lb	s6,18732(t6)
 114:	039dbd84 	0x39dbd84
 118:	8030ef56 	lb	s0,-4266(at)
 11c:	48462c9d 	0x48462c9d
 120:	03ba3080 	0x3ba3080
 124:	01340251 	0x1340251
 128:	3026b930 	andi	a2,at,0xb930
 12c:	bc648081 	cache	0x4,-32639(v1)
 130:	3303d880 	andi	v1,t8,0xd880
 134:	2d014202 	sltiu	at,t0,16898
 138:	4a642d29 	c2	0x642d29
 13c:	d6802e44 	ldc1	$f0,11844(s4)
 140:	ef7f9d03 	swc3	$31,-25341(k1)
 144:	d665b930 	ldc1	$f5,-18128(s3)
 148:	0800e203 	j	3880c <reboot_system+0x38654>
 14c:	2c2a2c8d 	sltiu	t2,at,11405
 150:	022c4848 	0x22c4848
 154:	01010007 	srav	zero,at,t0
Disassembly of section .debug_frame:

00000000 <.debug_frame>:
   0:	0000000c 	syscall
   4:	ffffffff 	sdc3	$31,-1(ra)
   8:	04010001 	b	10 <.debug_frame+0x10>
   c:	001d0c1f 	0x1d0c1f
  10:	0000001c 	0x1c
	...
  1c:	0000003f 	0x3f
  20:	0e040e42 	jal	8103908 <reboot_system+0x8103750>
  24:	11180e08 	beq	t0,t8,3848 <reboot_system+0x3690>
  28:	1f117e10 	0x1f117e10
  2c:	0000007f 	0x7f
  30:	00000014 	0x14
	...
  3c:	0000003b 	0x3b
  40:	0e040e42 	jal	8103908 <reboot_system+0x8103750>
  44:	7f1f1140 	0x7f1f1140
  48:	00000020 	add	zero,zero,zero
	...
  54:	0000004f 	0x4f
  58:	0e040e42 	jal	8103908 <reboot_system+0x8103750>
  5c:	0e0c0e08 	jal	8303820 <reboot_system+0x8303668>
  60:	7d101148 	0x7d101148
  64:	117e1111 	beq	t3,s8,44ac <reboot_system+0x42f4>
  68:	00007f1f 	0x7f1f
  6c:	00000020 	add	zero,zero,zero
	...
  78:	00000033 	tltu	zero,zero
  7c:	0e040e42 	jal	8103908 <reboot_system+0x8103750>
  80:	0e0c0e08 	jal	8303820 <reboot_system+0x8303668>
  84:	7d101120 	0x7d101120
  88:	117e1111 	beq	t3,s8,44d0 <reboot_system+0x4318>
  8c:	00007f1f 	0x7f1f
  90:	00000014 	0x14
	...
  9c:	00000027 	nor	zero,zero,zero
  a0:	0e040e42 	jal	8103908 <reboot_system+0x8103750>
  a4:	7f1f1140 	0x7f1f1140
  a8:	0000000c 	syscall
	...
  b4:	00000013 	mtlo	zero
Disassembly of section .debug_pubnames:

00000000 <.debug_pubnames>:
   0:	00000089 	0x89
   4:	00000002 	srl	zero,zero,0x0
   8:	0d5b0000 	jal	56c0000 <reboot_system+0x56bfe48>
   c:	0b6c0000 	j	db00000 <reboot_system+0xdaffe48>
  10:	656d0000 	0x656d0000
  14:	67617373 	0x67617373
  18:	6f635f65 	0x6f635f65
  1c:	a2007970 	sb	zero,31088(s0)
  20:	6f00000b 	0x6f00000b
  24:	655f6174 	0x655f6174
  28:	6975716e 	0x6975716e
  2c:	6d5f7972 	0x6d5f7972
  30:	61737365 	0x61737365
  34:	f7006567 	sdc1	$f0,25959(t8)
  38:	6f00000b 	0x6f00000b
  3c:	655f6174 	0x655f6174
  40:	6975716e 	0x6975716e
  44:	635f7972 	0x635f7972
  48:	656e6e6f 	0x656e6e6f
  4c:	5f007463 	bgtzl	t8,1d1dc <reboot_system+0x1d024>
  50:	6700000c 	0x6700000c
  54:	765f7465 	jalx	97dd194 <reboot_system+0x97dcfdc>
  58:	6d5f7265 	0x6d5f7265
  5c:	61737365 	0x61737365
  60:	8e006567 	lw	zero,25959(s0)
  64:	6f00000c 	0x6f00000c
  68:	675f6174 	0x675f6174
  6c:	765f7465 	jalx	97dd194 <reboot_system+0x97dcfdc>
  70:	6e5f7265 	0x6e5f7265
  74:	dd006d75 	ldc3	$0,28021(t0)
  78:	7200000c 	0x7200000c
  7c:	6f6f6265 	0x6f6f6265
  80:	79735f74 	0x79735f74
  84:	6d657473 	0x6d657473
  88:	00000000 	nop
	...
Disassembly of section .debug_aranges:

00000000 <.debug_aranges>:
   0:	0000001c 	0x1c
   4:	00000002 	srl	zero,zero,0x0
   8:	00040000 	sll	zero,a0,0x0
	...
  14:	000001d0 	0x1d0
	...
Disassembly of section .debug_str:

00000000 <.debug_str>:
       0:	69726576 	0x69726576
       4:	61636966 	0x61636966
       8:	6e6f6974 	0x6e6f6974
       c:	6174735f 	0x6174735f
      10:	00737574 	teq	v1,s3,0x1d5
      14:	69736e75 	0x69736e75
      18:	64656e67 	0x64656e67
      1c:	746e6920 	jalx	1b9a480 <reboot_system+0x1b9a2c8>
      20:	74756d00 	jalx	1d5b400 <reboot_system+0x1d5b248>
      24:	74735f65 	jalx	1cd7d94 <reboot_system+0x1cd7bdc>
      28:	00657461 	0x657461
      2c:	725f6270 	0x725f6270
      30:	6c757365 	0x6c757365
      34:	45520074 	0x45520074
      38:	544c5553 	bnel	v0,t4,15588 <reboot_system+0x153d0>
      3c:	4441525f 	0x4441525f
      40:	6f004f49 	0x6f004f49
      44:	655f6174 	0x655f6174
      48:	6975716e 	0x6975716e
      4c:	635f7972 	0x635f7972
      50:	656e6e6f 	0x656e6e6f
      54:	63007463 	0x63007463
      58:	755f7572 	jalx	57dd5c8 <reboot_system+0x57dd410>
      5c:	74616470 	jalx	18591c0 <reboot_system+0x1859008>
      60:	6f630061 	0x6f630061
      64:	735f6e6e 	0x735f6e6e
      68:	75746174 	jalx	5d185d0 <reboot_system+0x5d18418>
      6c:	70730073 	0x70730073
      70:	6f635f70 	0x6f635f70
      74:	6c665f6e 	0x6c665f6e
      78:	54006761 	bnezl	zero,19e00 <reboot_system+0x19c48>
      7c:	45455248 	0x45455248
      80:	5941575f 	0x5941575f
      84:	4c4f485f 	0x4c4f485f
      88:	58455f44 	0x58455f44
      8c:	00545349 	0x545349
      90:	5f41544f 	0x5f41544f
      94:	6c6c616d 	0x6c6c616d
      98:	705f636f 	0x705f636f
      9c:	6d617261 	0x6d617261
      a0:	6800745f 	0x6800745f
      a4:	735f7066 	0x735f7066
      a8:	75746174 	jalx	5d185d0 <reboot_system+0x5d18418>
      ac:	45520073 	0x45520073
      b0:	544c5553 	bnel	v0,t4,15600 <reboot_system+0x15448>
      b4:	4253555f 	c0	0x53555f
      b8:	4152545f 	0x4152545f
      bc:	5200534e 	beqzl	s0,14df8 <reboot_system+0x14c40>
      c0:	4c555345 	0x4c555345
      c4:	454b5f54 	0x454b5f54
      c8:	56455f59 	bnel	s2,a1,17e30 <reboot_system+0x17c78>
      cc:	5f544e45 	0x5f544e45
      d0:	45444552 	0x45444552
      d4:	425f4c41 	c0	0x5f4c41
      d8:	4f435f59 	c3	0x1435f59
      dc:	4e4f4d4d 	c3	0x4f4d4d
      e0:	53455200 	beql	k0,a1,148e4 <reboot_system+0x1472c>
      e4:	5f544c55 	0x5f544c55
      e8:	4f434552 	c3	0x1434552
      ec:	4d5f4452 	0x4d5f4452
      f0:	545f4349 	bnel	v0,ra,10e18 <reboot_system+0x10c60>
      f4:	7000434f 	0x7000434f
      f8:	6d6f635f 	0x6d6f635f
      fc:	7063725f 	udi15	v1,v1,t6,0x9
     100:	666e695f 	0x666e695f
     104:	4552006f 	0x4552006f
     108:	544c5553 	bnel	v0,t4,15658 <reboot_system+0x154a0>
     10c:	4345525f 	c0	0x145525f
     110:	5f44524f 	0x5f44524f
     114:	5f43494d 	0x5f43494d
     118:	00554f54 	0x554f54
     11c:	6b636162 	0x6b636162
     120:	6867696c 	0x6867696c
     124:	74735f74 	jalx	1cd7dd0 <reboot_system+0x1cd7c18>
     128:	00657461 	0x657461
     12c:	726f6873 	0x726f6873
     130:	6e752074 	0x6e752074
     134:	6e676973 	0x6e676973
     138:	69206465 	0x69206465
     13c:	6200746e 	0x6200746e
     140:	765f7461 	jalx	97dd184 <reboot_system+0x97dcfcc>
     144:	65756c61 	0x65756c61
     148:	53455200 	beql	k0,a1,1494c <reboot_system+0x14794>
     14c:	5f544c55 	0x5f544c55
     150:	52414c41 	beql	s2,at,13258 <reboot_system+0x130a0>
     154:	4c435f4d 	0x4c435f4d
     158:	0045534f 	0x45534f
     15c:	74647661 	jalx	191d984 <reboot_system+0x191d7cc>
     160:	61645f70 	0x61645f70
     164:	665f6174 	0x665f6174
     168:	0067616c 	0x67616c
     16c:	55534552 	bnel	t2,s3,116b8 <reboot_system+0x11500>
     170:	4d5f544c 	0x4d5f544c
     174:	41554e41 	0x41554e41
     178:	45535f4c 	0x45535f4c
     17c:	48435241 	0x48435241
     180:	0050555f 	0x50555f
     184:	55534552 	bnel	t2,s3,116d0 <reboot_system+0x11518>
     188:	425f544c 	c0	0x5f544c
     18c:	5445554c 	bnel	v0,a1,156c0 <reboot_system+0x15508>
     190:	48544545 	0x48544545
     194:	554f535f 	bnel	t2,t7,14f14 <reboot_system+0x14d5c>
     198:	6300444e 	0x6300444e
     19c:	72746e6f 	0x72746e6f
     1a0:	656c6c6f 	0x656c6c6f
     1a4:	74735f72 	jalx	1cd7dc8 <reboot_system+0x1cd7c10>
     1a8:	73757461 	0x73757461
     1ac:	72756300 	0x72756300
     1b0:	6e75665f 	0x6e75665f
     1b4:	64695f63 	0x64695f63
     1b8:	676e6500 	0x676e6500
     1bc:	5f656e69 	0x5f656e69
     1c0:	65707974 	0x65707974
     1c4:	655f7000 	0x655f7000
     1c8:	6772656e 	0x6772656e
     1cc:	61765f79 	0x61765f79
     1d0:	0065756c 	0x65756c
     1d4:	55534552 	bnel	t2,s3,11720 <reboot_system+0x11568>
     1d8:	4c5f544c 	0x4c5f544c
     1dc:	505f574f 	beql	v0,ra,15f1c <reboot_system+0x15d64>
     1e0:	5245574f 	beql	s2,a1,15f20 <reboot_system+0x15d68>
     1e4:	53455200 	beql	k0,a1,149e8 <reboot_system+0x14830>
     1e8:	5f544c55 	0x5f544c55
     1ec:	54534554 	bnel	v0,s3,11740 <reboot_system+0x11588>
     1f0:	515f5041 	beql	t2,ra,142f8 <reboot_system+0x14140>
     1f4:	00544955 	0x544955
     1f8:	544f5f67 	bnel	v0,t7,17f98 <reboot_system+0x17de0>
     1fc:	61765f41 	0x61765f41
     200:	54420072 	bnel	v0,v0,3cc <.debug_str+0x3cc>
     204:	5252455f 	beql	s2,s2,11784 <reboot_system+0x115cc>
     208:	4e4f435f 	c3	0x4f435f
     20c:	5443454e 	bnel	v0,v1,11748 <reboot_system+0x11590>
     210:	5f4e4f49 	0x5f4e4f49
     214:	454d4954 	0x454d4954
     218:	0054554f 	0x54554f
     21c:	55534552 	bnel	t2,s3,11768 <reboot_system+0x115b0>
     220:	415f544c 	0x415f544c
     224:	4d52414c 	0x4d52414c
     228:	4e49525f 	c3	0x49525f
     22c:	4f465f47 	c3	0x1465f47
     230:	5245444c 	beql	s2,a1,11364 <reboot_system+0x111ac>
     234:	4143535f 	0x4143535f
     238:	6c62004e 	0x6c62004e
     23c:	6f635f65 	0x6f635f65
     240:	6c665f6e 	0x6c665f6e
     244:	6c006761 	0x6c006761
     248:	5f747361 	0x5f747361
     24c:	735f6975 	0x735f6975
     250:	75746174 	jalx	5d185d0 <reboot_system+0x5d18418>
     254:	69750073 	0x69750073
     258:	0038746e 	0x38746e
     25c:	55534552 	bnel	t2,s3,117a8 <reboot_system+0x115f0>
     260:	535f544c 	beql	k0,ra,15394 <reboot_system+0x151dc>
     264:	454e4543 	0x454e4543
     268:	4958455f 	0x4958455f
     26c:	75630054 	jalx	58c0150 <reboot_system+0x58bff98>
     270:	75665f72 	jalx	5997dc8 <reboot_system+0x5997c10>
     274:	695f636e 	0x695f636e
     278:	7865646e 	0x7865646e
     27c:	73777400 	0x73777400
     280:	73616d5f 	udi15	k1,at,t5,0x15
     284:	5f726574 	0x5f726574
     288:	6e6f6870 	0x6e6f6870
     28c:	6e6f6365 	0x6e6f6365
     290:	72766100 	0x72766100
     294:	705f7063 	0x705f7063
     298:	65737561 	0x65737561
     29c:	616c665f 	0x616c665f
     2a0:	45520067 	0x45520067
     2a4:	544c5553 	bnel	v0,t4,157f4 <reboot_system+0x1563c>
     2a8:	49414d5f 	0x49414d5f
     2ac:	50415f4e 	beql	v0,at,17fe8 <reboot_system+0x17e30>
     2b0:	756e0050 	jalx	5b80140 <reboot_system+0x5b7ff88>
     2b4:	6f635f6d 	0x6f635f6d
     2b8:	63656e6e 	0x63656e6e
     2bc:	00646574 	teq	v1,a0,0x195
     2c0:	6779632f 	0x6779632f
     2c4:	76697264 	jalx	9a5c990 <reboot_system+0x9a5c7d8>
     2c8:	2f642f65 	sltiu	a0,k1,12133
     2cc:	69746361 	0x69746361
     2d0:	2f736e6f 	sltiu	s3,k1,28271
     2d4:	73647473 	0x73647473
     2d8:	632f6b64 	0x632f6b64
     2dc:	2f65646f 	sltiu	a1,k1,25711
     2e0:	38327375 	xori	s2,at,0x7375
     2e4:	765f6132 	jalx	97d84c8 <reboot_system+0x97d8310>
     2e8:	706d3731 	0x706d3731
     2ec:	7361632f 	0x7361632f
     2f0:	70612f65 	0x70612f65
     2f4:	6d6f632f 	0x6d6f632f
     2f8:	2f6e6f6d 	sltiu	t6,k1,28525
     2fc:	6d6d6f63 	0x6d6d6f63
     300:	6f5f6e6f 	0x6f5f6e6f
     304:	52006174 	beqzl	s0,188d8 <reboot_system+0x18720>
     308:	4c555345 	0x4c555345
     30c:	59535f54 	0x59535f54
     310:	534d5f53 	beql	k0,t5,18060 <reboot_system+0x17ea8>
     314:	45525f47 	0x45525f47
     318:	4c414544 	0x4c414544
     31c:	5f59425f 	0x5f59425f
     320:	4d4d4f43 	0x4d4d4f43
     324:	52004e4f 	beqzl	s0,13c64 <reboot_system+0x13aac>
     328:	4c555345 	0x4c555345
     32c:	4c505f54 	0x4c505f54
     330:	535f5941 	beql	k0,ra,16838 <reboot_system+0x16680>
     334:	465f4444 	c1	0x5f4444
     338:	36314449 	ori	s1,s1,0x4449
     33c:	53455200 	beql	k0,a1,14b40 <reboot_system+0x14988>
     340:	5f544c55 	0x5f544c55
     344:	59414c50 	0x59414c50
     348:	4444535f 	0x4444535f
     34c:	4449465f 	0x4449465f
     350:	52003731 	beqzl	s0,e018 <reboot_system+0xde60>
     354:	4c555345 	0x4c555345
     358:	4c505f54 	0x4c505f54
     35c:	535f5941 	beql	k0,ra,16864 <reboot_system+0x166ac>
     360:	465f4444 	c1	0x5f4444
     364:	38314449 	xori	s1,at,0x4449
     368:	53455200 	beql	k0,a1,14b6c <reboot_system+0x149b4>
     36c:	5f544c55 	0x5f544c55
     370:	59414c50 	0x59414c50
     374:	4444535f 	0x4444535f
     378:	4449465f 	0x4449465f
     37c:	61003931 	0x61003931
     380:	6c5f7070 	0x6c5f7070
     384:	5f747361 	0x5f747361
     388:	74617473 	jalx	185d1cc <reboot_system+0x185d014>
     38c:	00745f65 	0x745f65
     390:	55534552 	bnel	t2,s3,118dc <reboot_system+0x11724>
     394:	525f544c 	beql	s2,ra,154c8 <reboot_system+0x15310>
     398:	524f4345 	beql	s2,t7,110b0 <reboot_system+0x10ef8>
     39c:	50555f44 	beql	v0,s5,180b0 <reboot_system+0x17ef8>
     3a0:	0059414c 	syscall	0x16505
     3a4:	55534552 	bnel	t2,s3,118f0 <reboot_system+0x11738>
     3a8:	505f544c 	beql	v0,ra,154dc <reboot_system+0x15324>
     3ac:	5f59414c 	0x5f59414c
     3b0:	5f444453 	0x5f444453
     3b4:	32444946 	andi	a0,s2,0x4946
     3b8:	45520030 	0x45520030
     3bc:	544c5553 	bnel	v0,t4,1590c <reboot_system+0x15754>
     3c0:	414c505f 	0x414c505f
     3c4:	44535f59 	0x44535f59
     3c8:	49465f44 	0x49465f44
     3cc:	00313244 	0x313244
     3d0:	55534552 	bnel	t2,s3,1191c <reboot_system+0x11764>
     3d4:	505f544c 	beql	v0,ra,15508 <reboot_system+0x15350>
     3d8:	5f59414c 	0x5f59414c
     3dc:	5f444453 	0x5f444453
     3e0:	32444946 	andi	a0,s2,0x4946
     3e4:	45520033 	0x45520033
     3e8:	544c5553 	bnel	v0,t4,15938 <reboot_system+0x15780>
     3ec:	414c505f 	0x414c505f
     3f0:	44535f59 	0x44535f59
     3f4:	49465f44 	0x49465f44
     3f8:	00343244 	0x343244
     3fc:	55534552 	bnel	t2,s3,11948 <reboot_system+0x11790>
     400:	505f544c 	beql	v0,ra,15534 <reboot_system+0x1537c>
     404:	5f59414c 	0x5f59414c
     408:	5f444453 	0x5f444453
     40c:	32444946 	andi	a0,s2,0x4946
     410:	5f670035 	0x5f670035
     414:	646e6573 	0x646e6573
     418:	6978655f 	0x6978655f
     41c:	6d6d5f74 	0x6d6d5f74
     420:	74745f6d 	jalx	1d17db4 <reboot_system+0x1d17bfc>
     424:	45520073 	0x45520073
     428:	544c5553 	bnel	v0,t4,15978 <reboot_system+0x157c0>
     42c:	4c554e5f 	0x4c554e5f
     430:	746f004c 	jalx	1bc0130 <reboot_system+0x1bbff78>
     434:	65675f61 	0x65675f61
     438:	65765f74 	0x65765f74
     43c:	756e5f72 	jalx	5b97dc8 <reboot_system+0x5b97c10>
     440:	6f6c006d 	0x6f6c006d
     444:	7520676e 	jalx	4819db8 <reboot_system+0x4819c00>
     448:	6769736e 	0x6769736e
     44c:	2064656e 	addi	a0,v1,25966
     450:	00746e69 	0x746e69
     454:	676e6972 	0x676e6972
     458:	616c615f 	0x616c615f
     45c:	6f006d72 	0x6f006d72
     460:	625f6174 	0x625f6174
     464:	666e696b 	0x666e696b
     468:	00745f6f 	0x745f6f
     46c:	55534552 	bnel	t2,s3,119b8 <reboot_system+0x11800>
     470:	485f544c 	0x485f544c
     474:	535f4449 	beql	k0,ra,1159c <reboot_system+0x113e4>
     478:	5f444e45 	0x5f444e45
     47c:	5f59454b 	0x5f59454b
     480:	4e455645 	c3	0x455645
     484:	45520054 	0x45520054
     488:	544c5553 	bnel	v0,t4,159d8 <reboot_system+0x15820>
     48c:	4253555f 	c0	0x53555f
     490:	554f535f 	bnel	t2,t7,15210 <reboot_system+0x15058>
     494:	6300444e 	0x6300444e
     498:	656e6e6f 	0x656e6e6f
     49c:	735f7463 	0x735f7463
     4a0:	65746174 	0x65746174
     4a4:	5f697500 	0x5f697500
     4a8:	74617473 	jalx	185d1cc <reboot_system+0x185d014>
     4ac:	73007375 	0x73007375
     4b0:	615f6d69 	0x615f6d69
     4b4:	006e655f 	0x6e655f
     4b8:	55534552 	bnel	t2,s3,11a04 <reboot_system+0x1184c>
     4bc:	425f544c 	c0	0x5f544c
     4c0:	5f4b4341 	0x5f4b4341
     4c4:	4e454353 	c3	0x454353
     4c8:	49445f45 	0x49445f45
     4cc:	54415053 	bnel	v0,at,1461c <reboot_system+0x14464>
     4d0:	70004843 	0x70004843
     4d4:	7265776f 	0x7265776f
     4d8:	5f6e6f5f 	0x5f6e6f5f
     4dc:	67616c66 	0x67616c66
     4e0:	736e7500 	0x736e7500
     4e4:	656e6769 	0x656e6769
     4e8:	68632064 	0x68632064
     4ec:	52007261 	beqzl	s0,1ce74 <reboot_system+0x1ccbc>
     4f0:	4c555345 	0x4c555345
     4f4:	50415f54 	beql	v0,at,18248 <reboot_system+0x18090>
     4f8:	55515f50 	bnel	t2,s1,1823c <reboot_system+0x18084>
     4fc:	66005449 	0x66005449
     500:	74616f6c 	jalx	185bdb0 <reboot_system+0x185bbf8>
     504:	5f746200 	0x5f746200
     508:	79617733 	0x79617733
     50c:	6174735f 	0x6174735f
     510:	00737574 	teq	v1,s3,0x1d5
     514:	55534552 	bnel	t2,s3,11a60 <reboot_system+0x118a8>
     518:	425f544c 	c0	0x5f544c
     51c:	5445554c 	bnel	v0,a1,15a50 <reboot_system+0x15898>
     520:	48544545 	0x48544545
     524:	4c41435f 	0x4c41435f
     528:	6f6c004c 	0x6f6c004c
     52c:	6c20676e 	0x6c20676e
     530:	20676e6f 	addi	a3,v1,28271
     534:	00746e69 	0x746e69
     538:	6f6e5f67 	0x6f6e5f67
     53c:	7075735f 	udi15	v1,s5,t6,0xd
     540:	74726f70 	jalx	1c9bdc0 <reboot_system+0x1c9bc08>
     544:	7374745f 	udi15	k1,s4,t6,0x11
     548:	616c665f 	0x616c665f
     54c:	45520067 	0x45520067
     550:	544c5553 	bnel	v0,t4,15aa0 <reboot_system+0x158e8>
     554:	4149445f 	0x4149445f
     558:	5f474f4c 	0x5f474f4c
     55c:	52544552 	beql	s2,s4,11aa8 <reboot_system+0x118f0>
     560:	74730059 	jalx	1cc0164 <reboot_system+0x1cbffac>
     564:	745f6275 	jalx	17d89d4 <reboot_system+0x17d881c>
     568:	736c6f6f 	0x736c6f6f
     56c:	7079745f 	udi15	v1,t9,t6,0x11
     570:	45520065 	0x45520065
     574:	544c5553 	bnel	v0,t4,15ac4 <reboot_system+0x1590c>
     578:	53554d5f 	beql	k0,s5,13af8 <reboot_system+0x13940>
     57c:	555f4349 	bnel	t2,ra,112a4 <reboot_system+0x110ec>
     580:	59414c50 	0x59414c50
     584:	73616c00 	0x73616c00
     588:	69645f74 	0x69645f74
     58c:	56006b73 	bnezl	s0,1b35c <reboot_system+0x1b1a4>
     590:	69737265 	0x69737265
     594:	47006e6f 	c1	0x1006e6f
     598:	4320554e 	c0	0x120554e
     59c:	342e3320 	ori	t6,at,0x3320
     5a0:	6d20342e 	0x6d20342e
     5a4:	73737069 	0x73737069
     5a8:	362d6564 	ori	t5,s1,0x6564
     5ac:	2e36302e 	sltiu	s6,s1,12334
     5b0:	322d3130 	andi	t5,s1,0x3130
     5b4:	30373030 	andi	s7,at,0x3030
     5b8:	00303234 	teq	at,s0,0xc8
     5bc:	62757473 	0x62757473
     5c0:	7968705f 	0x7968705f
     5c4:	7079745f 	udi15	v1,t9,t6,0x11
     5c8:	66680065 	0x66680065
     5cc:	73655f70 	0x73655f70
     5d0:	6c626174 	0x6c626174
     5d4:	65687369 	0x65687369
     5d8:	65730064 	0x65730064
     5dc:	635f7672 	0x635f7672
     5e0:	006e6e6f 	0x6e6e6f
     5e4:	72616863 	0x72616863
     5e8:	735f6567 	0x735f6567
     5ec:	65746174 	0x65746174
     5f0:	53455200 	beql	k0,a1,14df4 <reboot_system+0x14c3c>
     5f4:	5f544c55 	0x5f544c55
     5f8:	4f434552 	c3	0x1434552
     5fc:	4c5f4452 	0x4c5f4452
     600:	49454e49 	0x49454e49
     604:	4f545f4e 	c3	0x1545f4e
     608:	45520043 	0x45520043
     60c:	544c5553 	bnel	v0,t4,15b5c <reboot_system+0x159a4>
     610:	5043525f 	beql	v0,v1,14f90 <reboot_system+0x14dd8>
     614:	5f434c5f 	0x5f434c5f
     618:	54494157 	bnel	v0,t1,10b78 <reboot_system+0x109c0>
     61c:	53455200 	beql	k0,a1,14e20 <reboot_system+0x14c68>
     620:	5f544c55 	0x5f544c55
     624:	4f434552 	c3	0x1434552
     628:	4c5f4452 	0x4c5f4452
     62c:	49454e49 	0x49454e49
     630:	4f545f4e 	c3	0x1545f4e
     634:	77740055 	jalx	dd00154 <reboot_system+0xdcfff9c>
     638:	66685f73 	0x66685f73
     63c:	6f635f70 	0x6f635f70
     640:	6c665f6e 	0x6c665f6e
     644:	73006761 	0x73006761
     648:	6666696e 	0x6666696e
     64c:	6174735f 	0x6174735f
     650:	00737574 	teq	v1,s3,0x1d5
     654:	55534552 	bnel	t2,s3,11ba0 <reboot_system+0x119e8>
     658:	445f544c 	0x445f544c
     65c:	4f4c4149 	c3	0x14c4149
     660:	53555f47 	beql	k0,s5,18380 <reboot_system+0x181c8>
     664:	4f535f42 	c3	0x1535f42
     668:	00444e55 	0x444e55
     66c:	64726163 	0x64726163
     670:	6174735f 	0x6174735f
     674:	46006574 	c1	0x6574
     678:	65565f77 	0x65565f77
     67c:	00745f72 	tlt	v1,s4,0x17d
     680:	72635f67 	0x72635f67
     684:	61705f75 	0x61705f75
     688:	635f6b63 	0x635f6b63
     68c:	746e756f 	jalx	1b9d5bc <reboot_system+0x1b9d404>
     690:	72726500 	0x72726500
     694:	6174735f 	0x6174735f
     698:	00737574 	teq	v1,s3,0x1d5
     69c:	70643261 	0x70643261
     6a0:	6174735f 	0x6174735f
     6a4:	00737574 	teq	v1,s3,0x1d5
     6a8:	74726170 	jalx	1c985c0 <reboot_system+0x1c98408>
     6ac:	0064695f 	0x64695f
     6b0:	55534552 	bnel	t2,s3,11bfc <reboot_system+0x11a44>
     6b4:	445f544c 	0x445f544c
     6b8:	4f4c4149 	c3	0x14c4149
     6bc:	4e4f5f47 	c3	0x4f5f47
     6c0:	435f594c 	c0	0x15f594c
     6c4:	47524148 	c1	0x1524148
     6c8:	70680045 	0x70680045
     6cc:	6174735f 	0x6174735f
     6d0:	61006574 	0x61006574
     6d4:	00726464 	0x726464
     6d8:	55534552 	bnel	t2,s3,11c24 <reboot_system+0x11a6c>
     6dc:	535f544c 	beql	k0,ra,15810 <reboot_system+0x15658>
     6e0:	5f504f54 	0x5f504f54
     6e4:	52414553 	beql	s2,at,11c34 <reboot_system+0x11a7c>
     6e8:	67004843 	0x67004843
     6ec:	6968745f 	0x6968745f
     6f0:	70615f73 	0x70615f73
     6f4:	69745f70 	0x69745f70
     6f8:	5f72656d 	0x5f72656d
     6fc:	00676174 	teq	v1,a3,0x185
     700:	5f707061 	0x5f707061
     704:	6f666e69 	0x6f666e69
     708:	6174735f 	0x6174735f
     70c:	615f6574 	0x615f6574
     710:	745f6c6c 	jalx	17db1b0 <reboot_system+0x17daff8>
     714:	544e4900 	bnel	v0,t6,12b18 <reboot_system+0x12960>
     718:	52005538 	beqzl	s0,15bfc <reboot_system+0x15a44>
     71c:	4c555345 	0x4c555345
     720:	4e455f54 	c3	0x455f54
     724:	5f524554 	0x5f524554
     728:	52475055 	beql	s2,a3,14880 <reboot_system+0x146c8>
     72c:	00454441 	0x454441
     730:	55534552 	bnel	t2,s3,11c7c <reboot_system+0x11ac4>
     734:	4e5f544c 	c3	0x5f544c
     738:	5f454e4f 	0x5f454e4f
     73c:	4e455645 	c3	0x455645
     740:	5f670054 	0x5f670054
     744:	6e6e6f63 	0x6e6e6f63
     748:	5f746365 	0x5f746365
     74c:	79706572 	0x79706572
     750:	53455200 	beql	k0,a1,14f54 <reboot_system+0x14d9c>
     754:	5f544c55 	0x5f544c55
     758:	59414c50 	0x59414c50
     75c:	4444535f 	0x4444535f
     760:	4449465f 	0x4449465f
     764:	52003232 	beqzl	s0,d030 <reboot_system+0xce78>
     768:	4c555345 	0x4c555345
     76c:	554d5f54 	bnel	t2,t5,184c0 <reboot_system+0x18308>
     770:	5f434953 	0x5f434953
     774:	59414c50 	0x59414c50
     778:	72687400 	0x72687400
     77c:	775f6565 	jalx	d7d9594 <reboot_system+0xd7d93dc>
     780:	735f7961 	0x735f7961
     784:	75746174 	jalx	5d185d0 <reboot_system+0x5d18418>
     788:	65720073 	0x65720073
     78c:	76726573 	jalx	9c995cc <reboot_system+0x9c99414>
     790:	73006465 	0x73006465
     794:	696c5f64 	0x696c5f64
     798:	766f5f73 	jalx	9bd7dcc <reboot_system+0x9bd7c14>
     79c:	635f6700 	0x635f6700
     7a0:	725f7275 	0x725f7275
     7a4:	735f6365 	0x735f6365
     7a8:	65746174 	0x65746174
     7ac:	74786500 	jalx	1e19400 <reboot_system+0x1e19248>
     7b0:	5f6e7265 	0x5f6e7265
     7b4:	5f746162 	0x5f746162
     7b8:	67006e69 	0x67006e69
     7bc:	7070615f 	udi15	v1,s0,t4,0x5
     7c0:	666e695f 	0x666e695f
     7c4:	74735f6f 	jalx	1cd7dbc <reboot_system+0x1cd7c04>
     7c8:	5f657461 	0x5f657461
     7cc:	006c6c61 	0x6c6c61
     7d0:	55534552 	bnel	t2,s3,11d1c <reboot_system+0x11b64>
     7d4:	495f544c 	0x495f544c
     7d8:	5f454c44 	0x5f454c44
     7dc:	45444f4d 	0x45444f4d
     7e0:	756f7300 	jalx	5bdcc00 <reboot_system+0x5bdca48>
     7e4:	735f646e 	0x735f646e
     7e8:	65746174 	0x65746174
     7ec:	76656400 	jalx	9959000 <reboot_system+0x9958e48>
     7f0:	7369645f 	udi15	k1,t1,t4,0x11
     7f4:	5f6e6f63 	0x5f6e6f63
     7f8:	6b636f6c 	0x6b636f6c
     7fc:	69617000 	0x69617000
     800:	54420072 	bnel	v0,v0,9cc <.debug_str+0x9cc>
     804:	5252455f 	beql	s2,s2,11d84 <reboot_system+0x11bcc>
     808:	4e494c5f 	c3	0x494c5f
     80c:	5f59454b 	0x5f59454b
     810:	5353494d 	beql	k0,s3,12d48 <reboot_system+0x12b90>
     814:	73777400 	0x73777400
     818:	7665645f 	jalx	995917c <reboot_system+0x9958fc4>
     81c:	7369645f 	udi15	k1,t1,t4,0x11
     820:	006e6f63 	0x6e6f63
     824:	55534552 	bnel	t2,s3,11d70 <reboot_system+0x11bb8>
     828:	435f544c 	c0	0x15f544c
     82c:	49464e4f 	0x49464e4f
     830:	48435f47 	0x48435f47
     834:	45475241 	0x45475241
     838:	4955515f 	0x4955515f
     83c:	61620054 	0x61620054
     840:	735f7474 	0x735f7474
     844:	6f707075 	0x6f707075
     848:	64657472 	0x64657472
     84c:	73777400 	0x73777400
     850:	6961705f 	0x6961705f
     854:	74735f72 	jalx	1cd7dc8 <reboot_system+0x1cd7c10>
     858:	73757461 	0x73757461
     85c:	53455200 	beql	k0,a1,15060 <reboot_system+0x14ea8>
     860:	5f544c55 	0x5f544c55
     864:	45554c42 	0x45554c42
     868:	54454554 	bnel	v0,a1,11dbc <reboot_system+0x11c04>
     86c:	41435f48 	0x41435f48
     870:	425f4c4c 	c0	0x5f4c4c
     874:	474b4341 	c1	0x14b4341
     878:	4e554f52 	c3	0x554f52
     87c:	70610044 	0x70610044
     880:	65725f70 	0x65725f70
     884:	746c7573 	jalx	1b1d5cc <reboot_system+0x1b1d414>
     888:	4600655f 	c1	0x655f
     88c:	65565f77 	0x65565f77
     890:	6f4d5f72 	0x6f4d5f72
     894:	656c7564 	0x656c7564
     898:	6200745f 	0x6200745f
     89c:	6f705f74 	0x6f705f74
     8a0:	5f726577 	0x5f726577
     8a4:	63006e6f 	0x63006e6f
     8a8:	705f7572 	0x705f7572
     8ac:	5f6b6361 	0x5f6b6361
     8b0:	6e756f63 	0x6e756f63
     8b4:	696c0074 	0x696c0074
     8b8:	6e69656e 	0x6e69656e
     8bc:	6174735f 	0x6174735f
     8c0:	73006574 	0x73006574
     8c4:	656e6769 	0x656e6769
     8c8:	68632064 	0x68632064
     8cc:	52007261 	beqzl	s0,1d254 <reboot_system+0x1d09c>
     8d0:	4c555345 	0x4c555345
     8d4:	45525f54 	0x45525f54
     8d8:	44524f43 	0x44524f43
     8dc:	4c50435f 	0x4c50435f
     8e0:	67005941 	0x67005941
     8e4:	7070615f 	udi15	v1,s0,t4,0x5
     8e8:	666e695f 	0x666e695f
     8ec:	74735f6f 	jalx	1cd7dbc <reboot_system+0x1cd7c04>
     8f0:	00657461 	0x657461
     8f4:	55534552 	bnel	t2,s3,11e40 <reboot_system+0x11c88>
     8f8:	535f544c 	beql	k0,ra,15a2c <reboot_system+0x15874>
     8fc:	45545359 	0x45545359
     900:	58455f4d 	0x58455f4d
     904:	535f5449 	beql	k0,ra,15a2c <reboot_system+0x15874>
     908:	61720033 	0x61720033
     90c:	6d6f646e 	0x6d6f646e
     910:	6770755f 	0x6770755f
     914:	79656b5f 	0x79656b5f
     918:	676e6500 	0x676e6500
     91c:	5f656e69 	0x5f656e69
     920:	74617473 	jalx	185d1cc <reboot_system+0x185d014>
     924:	45520065 	0x45520065
     928:	544c5553 	bnel	v0,t4,15e78 <reboot_system+0x15cc0>
     92c:	544e455f 	bnel	v0,t6,11eac <reboot_system+0x11cf4>
     930:	415f5245 	0x415f5245
     934:	4d52414c 	0x4d52414c
     938:	62657200 	0x62657200
     93c:	5f746f6f 	0x5f746f6f
     940:	74737973 	jalx	1cde5cc <reboot_system+0x1cde414>
     944:	62006d65 	0x62006d65
     948:	72655f74 	0x72655f74
     94c:	00655f72 	tlt	v1,a1,0x17d
     950:	55534552 	bnel	t2,s3,11e9c <reboot_system+0x11ce4>
     954:	445f544c 	0x445f544c
     958:	4f4c4149 	c3	0x14c4149
     95c:	47495f47 	c1	0x1495f47
     960:	45524f4e 	0x45524f4e
     964:	78696600 	0x78696600
     968:	6d61735f 	0x6d61735f
     96c:	5f656c70 	0x5f656c70
     970:	65746172 	0x65746172
     974:	616c665f 	0x616c665f
     978:	6f6d0067 	0x6f6d0067
     97c:	656c7564 	0x656c7564
     980:	53455200 	beql	k0,a1,15184 <reboot_system+0x14fcc>
     984:	5f544c55 	0x5f544c55
     988:	4f525245 	c3	0x1525245
     98c:	45520052 	0x45520052
     990:	544c5553 	bnel	v0,t4,15ee0 <reboot_system+0x15d28>
     994:	574f505f 	bnel	k0,t7,14b14 <reboot_system+0x1495c>
     998:	4f5f5245 	c3	0x15f5245
     99c:	52004646 	beqzl	s0,122b8 <reboot_system+0x12100>
     9a0:	4c555345 	0x4c555345
     9a4:	49445f54 	0x49445f54
     9a8:	474f4c41 	c1	0x14f4c41
     9ac:	5345595f 	beql	k0,a1,16f2c <reboot_system+0x16d74>
     9b0:	53455200 	beql	k0,a1,151b4 <reboot_system+0x14ffc>
     9b4:	5f544c55 	0x5f544c55
     9b8:	4c414944 	0x4c414944
     9bc:	415f474f 	0x415f474f
     9c0:	54524f42 	bnel	v0,s2,146cc <reboot_system+0x14514>
     9c4:	735f6700 	0x735f6700
     9c8:	5f646e65 	0x5f646e65
     9cc:	6f727265 	0x6f727265
     9d0:	756f635f 	jalx	5bd8d7c <reboot_system+0x5bd8bc4>
     9d4:	6100746e 	0x6100746e
     9d8:	705f7269 	0x705f7269
     9dc:	6c5f746b 	0x6c5f746b
     9e0:	6c006e65 	0x6c006e65
     9e4:	20676e6f 	addi	a3,v1,28271
     9e8:	00746e69 	0x746e69
     9ec:	55534552 	bnel	t2,s3,11f38 <reboot_system+0x11d80>
     9f0:	4e5f544c 	c3	0x5f544c
     9f4:	5f545845 	0x5f545845
     9f8:	434e5546 	c0	0x14e5546
     9fc:	4e4f4954 	c3	0x4f4954
     a00:	53455200 	beql	k0,a1,15204 <reboot_system+0x1504c>
     a04:	5f544c55 	0x5f544c55
     a08:	4953554d 	0x4953554d
     a0c:	50435f43 	beql	v0,v1,1871c <reboot_system+0x18564>
     a10:	0059414c 	syscall	0x16505
     a14:	75716e65 	jalx	5c5b994 <reboot_system+0x5c5b7dc>
     a18:	5f797269 	0x5f797269
     a1c:	7373656d 	0x7373656d
     a20:	5f656761 	0x5f656761
     a24:	45520074 	0x45520074
     a28:	544c5553 	bnel	v0,t4,15f78 <reboot_system+0x15dc0>
     a2c:	4345525f 	c0	0x145525f
     a30:	5f44524f 	0x5f44524f
     a34:	545f4d46 	bnel	v0,ra,13f50 <reboot_system+0x13d98>
     a38:	6700434f 	0x6700434f
     a3c:	7065725f 	udi15	v1,a1,t6,0x9
     a40:	625f796c 	0x625f796c
     a44:	666e696b 	0x666e696b
     a48:	4552006f 	0x4552006f
     a4c:	544c5553 	bnel	v0,t4,15f9c <reboot_system+0x15de4>
     a50:	4345525f 	c0	0x145525f
     a54:	5f44524f 	0x5f44524f
     a58:	545f4d46 	bnel	v0,ra,13f74 <reboot_system+0x13dbc>
     a5c:	7000554f 	0x7000554f
     a60:	6f6d5f61 	0x6f6d5f61
     a64:	73006564 	0x73006564
     a68:	5f627574 	0x5f627574
     a6c:	745f6370 	jalx	17d8dc0 <reboot_system+0x17d8c08>
     a70:	736c6f6f 	0x736c6f6f
     a74:	7079745f 	udi15	v1,t9,t6,0x11
     a78:	45520065 	0x45520065
     a7c:	544c5553 	bnel	v0,t4,15fcc <reboot_system+0x15e14>
     a80:	4d4f435f 	0x4d4f435f
     a84:	5f4e4f4d 	0x5f4e4f4d
     a88:	45534552 	0x45534552
     a8c:	00455652 	0x455652
     a90:	65736572 	0x65736572
     a94:	00647672 	tlt	v1,a0,0x1d9
     a98:	746e6975 	jalx	1b9a5d4 <reboot_system+0x1b9a41c>
     a9c:	68003631 	0x68003631
     aa0:	615f7066 	0x615f7066
     aa4:	00727474 	teq	v1,s2,0x1d1
     aa8:	79616c70 	0x79616c70
     aac:	646e615f 	0x646e615f
     ab0:	7561705f 	jalx	585c17c <reboot_system+0x585bfc4>
     ab4:	6c006573 	0x6c006573
     ab8:	5f747361 	0x5f747361
     abc:	636e7566 	0x636e7566
     ac0:	646e695f 	0x646e695f
     ac4:	52007865 	beqzl	s0,1ec5c <reboot_system+0x1eaa4>
     ac8:	4c555345 	0x4c555345
     acc:	4e455f54 	c3	0x455f54
     ad0:	5f524554 	0x5f524554
     ad4:	5f41544f 	0x5f41544f
     ad8:	474e4f53 	c1	0x14e4f53
     adc:	5345545f 	beql	k0,a1,15c5c <reboot_system+0x15aa4>
     ae0:	68630054 	0x68630054
     ae4:	6d007261 	0x6d007261
     ae8:	61737365 	0x61737365
     aec:	635f6567 	0x635f6567
     af0:	0079706f 	0x79706f
     af4:	5f61746f 	0x5f61746f
     af8:	75716e65 	jalx	5c5b994 <reboot_system+0x5c5b7dc>
     afc:	5f797269 	0x5f797269
     b00:	7373656d 	0x7373656d
     b04:	00656761 	0x656761
     b08:	6e6e6f63 	0x6e6e6f63
     b0c:	5f746365 	0x5f746365
     b10:	6c706572 	0x6c706572
     b14:	00745f79 	0x745f79
     b18:	6c626163 	0x6c626163
     b1c:	74735f65 	jalx	1cd7d94 <reboot_system+0x1cd7bdc>
     b20:	00657461 	0x657461
     b24:	746e6975 	jalx	1b9a5d4 <reboot_system+0x1b9a41c>
     b28:	70003233 	0x70003233
     b2c:	656e655f 	0x656e655f
     b30:	5f796772 	0x5f796772
     b34:	756c6176 	jalx	5b185d8 <reboot_system+0x5b18420>
     b38:	72665f65 	0x72665f65
     b3c:	00737165 	0x737165
     b40:	5f706d74 	0x5f706d74
     b44:	5f6d6f63 	0x5f6d6f63
     b48:	5f706372 	0x5f706372
     b4c:	6f666e69 	0x6f666e69
     b50:	53455200 	beql	k0,a1,15354 <reboot_system+0x1519c>
     b54:	5f544c55 	0x5f544c55
     b58:	45544e45 	0x45544e45
     b5c:	54535f52 	bnel	v0,s3,188a8 <reboot_system+0x186f0>
     b60:	445f4255 	0x445f4255
     b64:	47554245 	c1	0x1554245
     b68:	73656d00 	0x73656d00
     b6c:	65676173 	0x65676173
     b70:	7079745f 	udi15	v1,t9,t6,0x11
     b74:	70610065 	0x70610065
     b78:	74735f6b 	jalx	1cd7dac <reboot_system+0x1cd7bf4>
     b7c:	73757461 	0x73757461
     b80:	53455200 	beql	k0,a1,15384 <reboot_system+0x151cc>
     b84:	5f544c55 	0x5f544c55
     b88:	4f4e4749 	c3	0x14e4749
     b8c:	6f004552 	0x6f004552
     b90:	72657475 	0x72657475
     b94:	5f61705f 	0x5f61705f
     b98:	52006e6f 	beqzl	s0,1c558 <reboot_system+0x1c3a0>
     b9c:	4c555345 	0x4c555345
     ba0:	4e455f54 	c3	0x455f54
     ba4:	5f524554 	0x5f524554
     ba8:	52455355 	beql	s2,a1,15900 <reboot_system+0x15748>
     bac:	48540031 	0x48540031
     bb0:	5f454552 	0x5f454552
     bb4:	5f594157 	0x5f594157
     bb8:	444c4f48 	0x444c4f48
     bbc:	544f4e5f 	bnel	v0,t7,1453c <reboot_system+0x14384>
     bc0:	4958455f 	0x4958455f
     bc4:	70005453 	udi3	zero,zero,t2,0x11
     bc8:	5f79616c 	0x5f79616c
     bcc:	74617473 	jalx	185d1cc <reboot_system+0x185d014>
     bd0:	665f7375 	0x665f7375
     bd4:	0067616c 	0x67616c
     bd8:	74756f61 	jalx	1d5bd84 <reboot_system+0x1d5bbcc>
     bdc:	646f6d5f 	0x646f6d5f
     be0:	5f670065 	0x5f670065
     be4:	6c5f7068 	0x6c5f7068
     be8:	735f6465 	0x735f6465
     bec:	65746174 	0x65746174
     bf0:	75747300 	jalx	5d1cc00 <reboot_system+0x5d1ca48>
     bf4:	6f6d5f62 	0x6f6d5f62
     bf8:	665f6564 	0x665f6564
     bfc:	0067616c 	0x67616c
     c00:	55534552 	bnel	t2,s3,1214c <reboot_system+0x11f94>
     c04:	4c5f544c 	0x4c5f544c
     c08:	50545341 	beql	v0,s4,15910 <reboot_system+0x15758>
     c0c:	0059414c 	syscall	0x16505
     c10:	455f5442 	0x455f5442
     c14:	485f5252 	0x485f5252
     c18:	61620057 	0x61620057
     c1c:	72657474 	0x72657474
     c20:	65725f79 	0x65725f79
     c24:	74726f70 	jalx	1c9bdc0 <reboot_system+0x1c9bc08>
     c28:	616e655f 	0x616e655f
     c2c:	00656c62 	0x656c62
     c30:	62756f64 	0x62756f64
     c34:	5200656c 	beqzl	s0,1a1e8 <reboot_system+0x1a030>
     c38:	4c555345 	0x4c555345
     c3c:	4f435f54 	c3	0x1435f54
     c40:	4749464e 	c1	0x149464e
     c44:	4148435f 	0x4148435f
     c48:	00454752 	0x454752
     c4c:	5f766564 	0x5f766564
     c50:	656c6f72 	0x656c6f72
     c54:	5f647700 	0x5f647700
     c58:	5f6c7463 	0x5f6c7463
     c5c:	00706d74 	teq	v1,s0,0x1b5
     c60:	5f61744f 	0x5f61744f
     c64:	5f706372 	0x5f706372
     c68:	6d635f71 	0x6d635f71
     c6c:	65645f64 	0x65645f64
     c70:	632e6c61 	0x632e6c61
     c74:	746d7200 	jalx	1b5c800 <reboot_system+0x1b5c648>
     c78:	7665645f 	jalx	995917c <reboot_system+0x9958fc4>
     c7c:	74616400 	jalx	1859000 <reboot_system+0x1858e48>
     c80:	64003161 	0x64003161
     c84:	32617461 	andi	at,s3,0x7461
     c88:	74616400 	jalx	1859000 <reboot_system+0x1858e48>
     c8c:	5f670061 	0x5f670061
     c90:	6b636162 	0x6b636162
     c94:	705f7075 	0x705f7075
     c98:	5f747261 	0x5f747261
     c9c:	72646461 	0x72646461
     ca0:	6f637300 	0x6f637300
     ca4:	6e696c5f 	0x6e696c5f
     ca8:	6c6f006b 	0x6c6f006b
     cac:	63735f64 	0x63735f64
     cb0:	696c5f6f 	0x696c5f6f
     cb4:	52006b6e 	beqzl	s0,1ba70 <reboot_system+0x1b8b8>
     cb8:	4c555345 	0x4c555345
     cbc:	49445f54 	0x49445f54
     cc0:	474f4c41 	c1	0x14f4c41
     cc4:	004f4e5f 	0x4f4e5f
     cc8:	55534552 	bnel	t2,s3,12214 <reboot_system+0x1205c>
     ccc:	465f544c 	c1	0x5f544c
     cd0:	4543524f 	0x4543524f
     cd4:	5354545f 	beql	k0,s4,15e54 <reboot_system+0x15c9c>
     cd8:	4f54535f 	c3	0x154535f
     cdc:	65640050 	0x65640050
     ce0:	69645f76 	0x69645f76
     ce4:	6e6f6373 	0x6e6f6373
     ce8:	7463656e 	jalx	18d95b8 <reboot_system+0x18d9400>
     cec:	00676e69 	0x676e69
     cf0:	65747962 	0x65747962
     cf4:	68700073 	0x68700073
     cf8:	74656e6f 	jalx	195b9bc <reboot_system+0x195b804>
     cfc:	73616d6f 	0x73616d6f
     d00:	63726574 	0x63726574
     d04:	70006e6f 	0x70006e6f
     d08:	656e6f68 	0x656e6f68
     d0c:	616d6f74 	0x616d6f74
     d10:	72657473 	0x72657473
     d14:	00736964 	0x736964
     d18:	55534552 	bnel	t2,s3,12264 <reboot_system+0x120ac>
     d1c:	445f544c 	0x445f544c
     d20:	4f4c4149 	c3	0x14c4149
     d24:	4b4f5f47 	c2	0x14f5f47
     d28:	73777400 	0x73777400
     d2c:	6e6f635f 	0x6e6f635f
     d30:	7463656e 	jalx	18d95b8 <reboot_system+0x18d9400>
     d34:	6174735f 	0x6174735f
     d38:	5f544200 	0x5f544200
     d3c:	5f525245 	0x5f525245
     d40:	45474150 	0x45474150
     d44:	4d49545f 	0x4d49545f
     d48:	54554f45 	bnel	v0,s5,14a60 <reboot_system+0x148a8>
     d4c:	655f7000 	0x655f7000
     d50:	6772656e 	0x6772656e
     d54:	61765f79 	0x61765f79
     d58:	5f65756c 	0x5f65756c
     d5c:	646e6162 	0x646e6162
     d60:	54420073 	bnel	v0,v0,f30 <.debug_str+0xf30>
     d64:	5252455f 	beql	s2,s2,122e4 <reboot_system+0x1212c>
     d68:	4e4f4e5f 	c3	0x4f4e5f
     d6c:	65760045 	0x65760045
     d70:	75625f72 	jalx	5897dc8 <reboot_system+0x5897c10>
     d74:	74620066 	jalx	1880198 <reboot_system+0x187ffe0>
     d78:	6174735f 	0x6174735f
     d7c:	695f6b63 	0x695f6b63
     d80:	5f6f666e 	0x5f6f666e
     d84:	32610074 	andi	at,s3,0x74
     d88:	615f7064 	0x615f7064
     d8c:	00727474 	teq	v1,s2,0x1d1
     d90:	676e6f6c 	0x676e6f6c
     d94:	6e6f6c20 	0x6e6f6c20
     d98:	6e752067 	0x6e752067
     d9c:	6e676973 	0x6e676973
     da0:	69206465 	0x69206465
     da4:	6200746e 	0x6200746e
     da8:	74735f74 	jalx	1cd7dd0 <reboot_system+0x1cd7c18>
     dac:	5f6b6361 	0x5f6b6361
     db0:	5f627573 	0x5f627573
     db4:	6f666e69 	0x6f666e69
     db8:	6900745f 	0x6900745f
     dbc:	72656e6e 	0x72656e6e
     dc0:	5f61705f 	0x5f61705f
     dc4:	74696e69 	jalx	1a5b9a4 <reboot_system+0x1a5b7ec>
     dc8:	64006465 	0x64006465
     dcc:	745f7665 	jalx	17dd994 <reboot_system+0x17dd7dc>
     dd0:	00657079 	0x657079
     dd4:	55534552 	bnel	t2,s3,12320 <reboot_system+0x12168>
     dd8:	455f544c 	0x455f544c
     ddc:	525f4453 	beql	s2,ra,11f2c <reboot_system+0x11d74>
     de0:	41545345 	0x41545345
     de4:	61005452 	0x61005452
     de8:	5f706432 	0x5f706432
     dec:	69746361 	0x69746361
     df0:	695f6576 	0x695f6576
     df4:	45520064 	0x45520064
     df8:	544c5553 	bnel	v0,t4,16348 <reboot_system+0x16190>
     dfc:	544e455f 	bnel	v0,t6,1237c <reboot_system+0x121c4>
     e00:	4f5f5245 	c3	0x15f5245
     e04:	555f4154 	bnel	t2,ra,11358 <reboot_system+0x111a0>
     e08:	41524750 	0x41524750
     e0c:	72004544 	0x72004544
     e10:	645f6365 	0x645f6365
     e14:	5f617461 	0x5f617461
     e18:	74617473 	jalx	185d1cc <reboot_system+0x185d014>
     e1c:	5f740065 	0x5f740065
     e20:	64616462 	0x64616462
     e24:	65007264 	0x65007264
     e28:	725f6473 	0x725f6473
     e2c:	74657365 	jalx	195cd94 <reboot_system+0x195cbdc>
     e30:	616c665f 	0x616c665f
     e34:	53455200 	beql	k0,a1,15638 <reboot_system+0x15480>
     e38:	5f544c55 	0x5f544c55
     e3c:	45544e45 	0x45544e45
     e40:	53415f52 	beql	k0,at,18b8c <reboot_system+0x189d4>
     e44:	485f5451 	0x485f5451
     e48:	45545f46 	0x45545f46
     e4c:	52005453 	beqzl	s0,15f9c <reboot_system+0x15de4>
     e50:	4c555345 	0x4c555345
     e54:	4e455f54 	c3	0x455f54
     e58:	5f524554 	0x5f524554
     e5c:	454e494c 	0x454e494c
     e60:	68004e49 	0x68004e49
     e64:	615f7066 	0x615f7066
     e68:	76697463 	jalx	9a5d18c <reboot_system+0x9a5cfd4>
     e6c:	64695f65 	0x64695f65
     e70:	53455200 	beql	k0,a1,15674 <reboot_system+0x154bc>
     e74:	5f544c55 	0x5f544c55
     e78:	4c414944 	0x4c414944
     e7c:	435f474f 	c0	0x15f474f
     e80:	45434e41 	0x45434e41
     e84:	4552004c 	0x4552004c
     e88:	544c5553 	bnel	v0,t4,163d8 <reboot_system+0x16220>
     e8c:	4149445f 	0x4149445f
     e90:	5f474f4c 	0x5f474f4c
     e94:	434e4143 	c0	0x14e4143
     e98:	415f4c45 	0x415f4c45
     e9c:	004f5455 	0x4f5455
     ea0:	5f707061 	0x5f707061
     ea4:	6f666e69 	0x6f666e69
     ea8:	6174735f 	0x6174735f
     eac:	745f6574 	jalx	17d95d0 <reboot_system+0x17d9418>
     eb0:	53455200 	beql	k0,a1,156b4 <reboot_system+0x154fc>
     eb4:	5f544c55 	0x5f544c55
     eb8:	52414c41 	beql	s2,at,13fc0 <reboot_system+0x13e08>
     ebc:	4e535f4d 	c3	0x535f4d
     ec0:	455a4f4f 	0x455a4f4f
     ec4:	5f776600 	0x5f776600
     ec8:	00726576 	tne	v1,s2,0x195
     ecc:	5f746567 	0x5f746567
     ed0:	5f726576 	0x5f726576
     ed4:	7373656d 	0x7373656d
     ed8:	00656761 	0x656761
     edc:	63746170 	0x63746170
     ee0:	6f645f68 	0x6f645f68
     ee4:	6f6c6e77 	0x6f6c6e77
     ee8:	665f6461 	0x665f6461
     eec:	0067616c 	0x67616c
     ef0:	6465656e 	0x6465656e
     ef4:	6470755f 	0x6470755f
     ef8:	5f657461 	0x5f657461
     efc:	79616c70 	0x79616c70
     f00:	7473696c 	jalx	1cda5b0 <reboot_system+0x1cda3f8>
     f04:	53455200 	beql	k0,a1,15708 <reboot_system+0x15550>
     f08:	5f544c55 	0x5f544c55
     f0c:	554e414d 	bnel	t2,t6,11444 <reboot_system+0x1128c>
     f10:	535f4c41 	beql	k0,ra,14018 <reboot_system+0x13e60>
     f14:	43524145 	c0	0x1524145
     f18:	4f445f48 	c3	0x1445f48
     f1c:	52004e57 	beqzl	s0,1487c <reboot_system+0x146c4>
     f20:	4c555345 	0x4c555345
     f24:	59535f54 	0x59535f54
     f28:	4d455453 	0x4d455453
     f2c:	544e455f 	bnel	v0,t6,124ac <reboot_system+0x122f4>
     f30:	535f5245 	beql	k0,ra,15848 <reboot_system+0x15690>
     f34:	70610033 	0x70610033
     f38:	74735f70 	jalx	1cd7dc0 <reboot_system+0x1cd7c08>
     f3c:	00657461 	0x657461
     f40:	455f5442 	0x455f5442
     f44:	4e5f5252 	c3	0x5f5252
     f48:	505f544f 	beql	v0,ra,16088 <reboot_system+0x15ed0>
     f4c:	5055504f 	beql	v0,s5,1508c <reboot_system+0x14ed4>
     f50:	4e49575f 	c3	0x49575f
     f54:	00574f44 	0x574f44
     f58:	72656e65 	0x72656e65
     f5c:	615f7967 	0x615f7967
     f60:	6c696176 	0x6c696176
     f64:	656c6261 	0x656c6261
     f68:	616c665f 	0x616c665f
     f6c:	68750067 	0x68750067
     f70:	5f74736f 	0x5f74736f
     f74:	74617473 	jalx	185d1cc <reboot_system+0x185d014>
     f78:	616c0065 	0x616c0065
     f7c:	735f7473 	0x735f7473
     f80:	735f7379 	0x735f7379
     f84:	75746174 	jalx	5d185d0 <reboot_system+0x5d18418>
     f88:	5f700073 	0x5f700073
     f8c:	5f6d6f63 	0x5f6d6f63
     f90:	5f706372 	0x5f706372
     f94:	6e696b62 	0x6e696b62
     f98:	61006f66 	0x61006f66
     f9c:	746f7475 	jalx	1bdd1d4 <reboot_system+0x1bdd01c>
     fa0:	5f747365 	0x5f747365
     fa4:	65646f6d 	0x65646f6d
     fa8:	53455200 	beql	k0,a1,157ac <reboot_system+0x155f4>
     fac:	5f544c55 	0x5f544c55
     fb0:	4f545541 	c3	0x1545541
     fb4:	4145535f 	0x4145535f
     fb8:	00484352 	0x484352
     fbc:	45524854 	0x45524854
     fc0:	41575f45 	0x41575f45
     fc4:	454e5f59 	0x454e5f59
     fc8:	41435f57 	0x41435f57
     fcc:	495f4c4c 	0x495f4c4c
     fd0:	6873004e 	0x6873004e
     fd4:	2074726f 	addi	s4,v1,29295
     fd8:	00746e69 	0x746e69
     fdc:	65736572 	0x65736572
     fe0:	32647672 	andi	a0,s3,0x7672
     fe4:	64656d00 	0x64656d00
     fe8:	745f6169 	jalx	17d85a4 <reboot_system+0x17d83ec>
     fec:	00657079 	0x657079
     ff0:	74625f67 	jalx	1897d9c <reboot_system+0x1897be4>
     ff4:	6174735f 	0x6174735f
     ff8:	635f6b63 	0x635f6b63
     ffc:	695f7275 	0x695f7275
    1000:	006f666e 	0x6f666e
    1004:	70615f67 	0x70615f67
    1008:	616c5f70 	0x616c5f70
    100c:	735f7473 	0x735f7473
    1010:	65746174 	0x65746174
	...
Disassembly of section .comment:

00000000 <.comment>:
   0:	43434700 	c0	0x1434700
   4:	4728203a 	c1	0x128203a
   8:	2029554e 	addi	t1,at,21838
   c:	2e342e33 	sltiu	s4,s1,11827
  10:	696d2034 	0x696d2034
  14:	64737370 	0x64737370
  18:	2e362d65 	sltiu	s6,s1,11621
  1c:	302e3630 	andi	t6,at,0x3630
  20:	30322d31 	andi	s2,at,0x2d31
  24:	34303730 	ori	s0,at,0x3730
  28:	Address 0x28 is out of bounds.


Ota_rcp_reboot_cmd.o:     file format elf32-tradlittlemips

Disassembly of section .text:

00000000 <ota_restart_to_upgrade>:
   0:	64f4      	save	32,ra,s0-s1
   2:	b00b      	lw	s0,2c <ota_restart_to_upgrade+0x2c>
   4:	b10c      	lw	s1,34 <ota_restart_to_upgrade+0x34>
   6:	b50b      	lw	a1,30 <ota_restart_to_upgrade+0x30>
   8:	6790      	move	a0,s0
   a:	6e14      	li	a2,20
   c:	e940      	jalr	s1
   e:	6f12      	li	a3,18
  10:	b508      	lw	a1,30 <ota_restart_to_upgrade+0x30>
  12:	6a01      	li	v0,1
  14:	6790      	move	a0,s0
  16:	6e14      	li	a2,20
  18:	6f13      	li	a3,19
  1a:	e940      	jalr	s1
  1c:	c04a      	sb	v0,10(s0)
  1e:	1800 0000 	jal	0 <ota_restart_to_upgrade>
  22:	6500      	nop
  24:	6a00      	li	v0,0
  26:	6474      	restore	32,ra,s0-s1
  28:	e8a0      	jrc	ra
	...
  32:	0015      	addiu	s0,sp,84
  34:	0000      	addiu	s0,sp,0
	...

00000038 <ota_restart_to_clean_data>:
  38:	64f4      	save	32,ra,s0-s1
  3a:	6d00      	li	a1,0
  3c:	b120      	lw	s1,bc <ota_restart_to_clean_data+0x84>
  3e:	67c5      	move	a2,a1
  40:	0c11      	la	a0,84 <ota_restart_to_clean_data+0x4c>
  42:	e940      	jalr	s1
  44:	6f4b      	li	a3,75
  46:	b01f      	lw	s0,c0 <ota_restart_to_clean_data+0x88>
  48:	b51f      	lw	a1,c4 <ota_restart_to_clean_data+0x8c>
  4a:	6790      	move	a0,s0
  4c:	6e14      	li	a2,20
  4e:	e940      	jalr	s1
  50:	6f12      	li	a3,18
  52:	6b00      	li	v1,0
  54:	6d00      	li	a1,0
  56:	b21d      	lw	v0,c8 <ota_restart_to_clean_data+0x90>
  58:	c063      	sb	v1,3(s0)
  5a:	c062      	sb	v1,2(s0)
  5c:	c069      	sb	v1,9(s0)
  5e:	6c11      	li	a0,17
  60:	67c5      	move	a2,a1
  62:	ea40      	jalr	v0
  64:	6f06      	li	a3,6
  66:	2a05      	bnez	v0,72 <ota_restart_to_clean_data+0x3a>
  68:	0c0f      	la	a0,a4 <ota_restart_to_clean_data+0x6c>
  6a:	67a2      	move	a1,v0
  6c:	67c2      	move	a2,v0
  6e:	e940      	jalr	s1
  70:	6f4b      	li	a3,75
  72:	b515      	lw	a1,c4 <ota_restart_to_clean_data+0x8c>
  74:	6790      	move	a0,s0
  76:	6e14      	li	a2,20
  78:	e940      	jalr	s1
  7a:	6f13      	li	a3,19
  7c:	6a00      	li	v0,0
  7e:	6474      	restore	32,ra,s0-s1
  80:	e8a0      	jrc	ra
  82:	0000      	addiu	s0,sp,0
  84:	6572      	move	s3,v0
  86:	6563      	move	v1,v1
  88:	7669      	cmpi	a2,105
  8a:	2065      	beqz	s0,156 <ota_send_complete+0x8a>
  8c:	6572      	move	s3,v0
  8e:	7473      	cmpi	a0,115
  90:	7461      	cmpi	a0,97
  92:	6320      	addiu	sp,256
  94:	656c      	move	t3,a0
  96:	6e61      	li	a2,97
  98:	645f      	restore	120,ra,s1
  9a:	7461      	cmpi	a0,97
  9c:	2061      	beqz	s0,160 <ota_send_complete+0x94>
  9e:	4d43      	addiu	a1,67
  a0:	2144      	beqz	s1,12a <ota_send_complete+0x5e>
  a2:	0000      	addiu	s0,sp,0
  a4:	6c63      	li	a0,99
  a6:	6165      	btnez	172 <ota_send_complete+0xa6>
  a8:	2072      	beqz	s0,18e <ota_send_complete+0xc2>
  aa:	544f      	slti	a0,79
  ac:	2041      	beqz	s0,130 <ota_send_complete+0x64>
  ae:	6164      	btnez	178 <ota_send_complete+0xac>
  b0:	6174      	btnez	19a <ota_send_complete+0xce>
  b2:	6620      	0x6620
  b4:	6961      	li	s1,97
  b6:	216c      	beqz	s1,190 <ota_send_complete+0xc4>
  b8:	0021      	addiu	s0,sp,132
	...
  c6:	0015      	addiu	s0,sp,84
  c8:	0000      	addiu	s0,sp,0
	...

000000cc <ota_send_complete>:
  cc:	64f4      	save	32,ra,s0-s1
  ce:	b112      	lw	s1,114 <ota_send_complete+0x48>
  d0:	6d00      	li	a1,0
  d2:	67c5      	move	a2,a1
  d4:	0c0c      	la	a0,104 <ota_send_complete+0x38>
  d6:	e940      	jalr	s1
  d8:	6f4b      	li	a3,75
  da:	b010      	lw	s0,118 <ota_send_complete+0x4c>
  dc:	b510      	lw	a1,11c <ota_send_complete+0x50>
  de:	6790      	move	a0,s0
  e0:	6e14      	li	a2,20
  e2:	e940      	jalr	s1
  e4:	6f12      	li	a3,18
  e6:	b40f      	lw	a0,120 <ota_send_complete+0x54>
  e8:	6b02      	li	v1,2
  ea:	9c40      	lw	v0,0(a0)
  ec:	b50c      	lw	a1,11c <ota_send_complete+0x50>
  ee:	c062      	sb	v1,2(s0)
  f0:	6790      	move	a0,s0
  f2:	f020 c26b 	sb	v1,43(v0)
  f6:	6e14      	li	a2,20
  f8:	e940      	jalr	s1
  fa:	6f13      	li	a3,19
  fc:	6a00      	li	v0,0
  fe:	6474      	restore	32,ra,s0-s1
 100:	e8a0      	jrc	ra
 102:	0000      	addiu	s0,sp,0
 104:	6573      	move	s3,v1
 106:	646e      	restore	112,ra,s0
 108:	6320      	addiu	sp,256
 10a:	6d6f      	li	a1,111
 10c:	6c70      	li	a0,112
 10e:	7465      	cmpi	a0,101
 110:	0065      	addiu	s0,sp,404
	...
 11e:	0015      	addiu	s0,sp,84
 120:	0000      	addiu	s0,sp,0
	...
Disassembly of section .reginfo:

00000000 <.reginfo>:
   0:	800100ff 	lb	at,255(zero)
	...
Disassembly of section .pdr:

00000000 <.pdr>:
   0:	00000000 	nop
   4:	80030000 	lb	v1,0(zero)
   8:	fffffffc 	sdc3	$31,-4(ra)
	...
  14:	00000020 	add	zero,zero,zero
  18:	0000001d 	0x1d
  1c:	0000001f 	0x1f
  20:	00000000 	nop
  24:	80030000 	lb	v1,0(zero)
  28:	fffffffc 	sdc3	$31,-4(ra)
	...
  34:	00000020 	add	zero,zero,zero
  38:	0000001d 	0x1d
  3c:	0000001f 	0x1f
  40:	00000000 	nop
  44:	80030000 	lb	v1,0(zero)
  48:	fffffffc 	sdc3	$31,-4(ra)
	...
  54:	00000020 	add	zero,zero,zero
  58:	0000001d 	0x1d
  5c:	0000001f 	0x1f
Disassembly of section .debug_abbrev:

00000000 <.debug_abbrev>:
   0:	10011101 	beq	zero,at,4408 <ota_send_complete+0x433c>
   4:	11011206 	beq	t0,at,4820 <ota_send_complete+0x4754>
   8:	130e2501 	beq	t8,t6,9410 <ota_send_complete+0x9344>
   c:	1b0e030b 	0x1b0e030b
  10:	0200000e 	0x200000e
  14:	0e030024 	jal	80c0090 <ota_send_complete+0x80bffc4>
  18:	0b3e0b0b 	j	cf82c2c <ota_send_complete+0xcf82b60>
  1c:	16030000 	bne	s0,v1,20 <.debug_abbrev+0x20>
  20:	3a0e0300 	xori	t6,s0,0x300
  24:	490b3b0b 	bc2tl	$cc2,ec54 <ota_send_complete+0xeb88>
  28:	04000013 	bltz	zero,78 <.debug_abbrev+0x78>
  2c:	08030024 	j	c0090 <ota_send_complete+0xbffc4>
  30:	0b3e0b0b 	j	cf82c2c <ota_send_complete+0xcf82b60>
  34:	0f050000 	jal	c140000 <ota_send_complete+0xc13ff34>
  38:	000b0b00 	sll	at,t3,0xc
  3c:	01130600 	0x1130600
  40:	0b0b1301 	j	c2c4c04 <ota_send_complete+0xc2c4b38>
  44:	0b3b0b3a 	j	cec2ce8 <ota_send_complete+0xcec2c1c>
  48:	0d070000 	jal	41c0000 <ota_send_complete+0x41bff34>
  4c:	3a080300 	xori	t0,s0,0x300
  50:	490b3b0b 	bc2tl	$cc2,ec80 <ota_send_complete+0xebb4>
  54:	000a3813 	0xa3813
  58:	000d0800 	sll	at,t5,0x0
  5c:	0b3a0e03 	j	ce8380c <ota_send_complete+0xce83740>
  60:	13490b3b 	beq	k0,t1,2d50 <ota_send_complete+0x2c84>
  64:	00000a38 	0xa38
  68:	01010109 	0x1010109
  6c:	00134913 	0x134913
  70:	00210a00 	0x210a00
  74:	0b2f1349 	j	cbc4d24 <ota_send_complete+0xcbc4c58>
  78:	040b0000 	tltiu	zero,0
  7c:	0b130101 	j	c4c0404 <ota_send_complete+0xc4c0338>
  80:	3b0b3a0b 	xori	t3,t8,0x3a0b
  84:	0c00000b 	jal	2c <.debug_abbrev+0x2c>
  88:	0e030028 	jal	80c00a0 <ota_send_complete+0x80bffd4>
  8c:	00000d1c 	0xd1c
  90:	0300160d 	break	0x300,0x58
  94:	3b0b3a0e 	xori	t3,t8,0x3a0e
  98:	00134905 	0x134905
  9c:	01130e00 	0x1130e00
  a0:	0b0b1301 	j	c2c4c04 <ota_send_complete+0xc2c4b38>
  a4:	053b0b3a 	0x53b0b3a
  a8:	0d0f0000 	jal	43c0000 <ota_send_complete+0x43bff34>
  ac:	3a0e0300 	xori	t6,s0,0x300
  b0:	49053b0b 	bc2t	$cc1,ece0 <ota_send_complete+0xec14>
  b4:	000a3813 	0xa3813
  b8:	000d1000 	sll	v0,t5,0x0
  bc:	0b3a0e03 	j	ce8380c <ota_send_complete+0xce83740>
  c0:	1349053b 	beq	k0,t1,15b0 <ota_send_complete+0x14e4>
  c4:	0b0d0b0b 	j	c342c2c <ota_send_complete+0xc342b60>
  c8:	0a380b0c 	j	8e02c30 <ota_send_complete+0x8e02b64>
  cc:	0f110000 	jal	c440000 <ota_send_complete+0xc43ff34>
  d0:	490b0b00 	bc2tl	$cc2,2cd4 <ota_send_complete+0x2c08>
  d4:	12000013 	beqz	s0,124 <.debug_abbrev+0x124>
  d8:	1301012e 	beq	t8,at,594 <ota_send_complete+0x4c8>
  dc:	0e030c3f 	jal	80c30fc <ota_send_complete+0x80c3030>
  e0:	0b3b0b3a 	j	cec2ce8 <ota_send_complete+0xcec2c1c>
  e4:	13490c27 	beq	k0,t1,3184 <ota_send_complete+0x30b8>
  e8:	01120111 	0x1120111
  ec:	00000a40 	sll	at,zero,0x9
  f0:	03000513 	0x3000513
  f4:	3b0b3a0e 	xori	t3,t8,0x3a0e
  f8:	0213490b 	0x213490b
  fc:	1400000a 	bnez	zero,128 <.debug_abbrev+0x128>
 100:	08030034 	j	c00d0 <ota_send_complete+0xc0004>
 104:	0b3b0b3a 	j	cec2ce8 <ota_send_complete+0xcec2c1c>
 108:	0a021349 	j	8084d24 <ota_send_complete+0x8084c58>
 10c:	34150000 	li	s5,0x0
 110:	3a0e0300 	xori	t6,s0,0x300
 114:	490b3b0b 	bc2tl	$cc2,ed44 <ota_send_complete+0xec78>
 118:	3c0c3f13 	lui	t4,0x3f13
 11c:	1600000c 	bnez	s0,150 <ota_send_complete+0x84>
 120:	0e030034 	jal	80c00d0 <ota_send_complete+0x80c0004>
 124:	053b0b3a 	0x53b0b3a
 128:	0c3f1349 	jal	fc4d24 <ota_send_complete+0xfc4c58>
 12c:	00000c3c 	0xc3c
	...
Disassembly of section .debug_info:

00000000 <.debug_info>:
   0:	000009da 	0x9da
   4:	00000002 	srl	zero,zero,0x0
   8:	01040000 	0x1040000
   c:	00000000 	nop
  10:	00000124 	0x124
  14:	00000000 	nop
  18:	000004f5 	0x4f5
  1c:	00059201 	0x59201
  20:	00022900 	sll	a1,v0,0x4
  24:	043c0200 	0x43c0200
  28:	08010000 	j	40000 <ota_send_complete+0x3ff34>
  2c:	00066403 	sra	t4,a2,0x10
  30:	250f0600 	addiu	t7,t0,1536
  34:	02000000 	0x2000000
  38:	00000797 	0x797
  3c:	f3020601 	0xf3020601
  40:	02000000 	0x2000000
  44:	0cb00207 	jal	2c0081c <ota_send_complete+0x2c00750>
  48:	05020000 	bltzl	t0,4c <.debug_info+0x4c>
  4c:	00039b02 	srl	s3,v1,0xc
  50:	02070400 	0x2070400
  54:	0000088d 	break	0x0,0x22
  58:	5a020504 	0x5a020504
  5c:	04000004 	bltz	zero,70 <.debug_info+0x70>
  60:	0a5a0204 	j	9680810 <ota_send_complete+0x9680744>
  64:	04080000 	tgei	zero,0
  68:	000b0002 	srl	zero,t3,0x0
  6c:	02070800 	0x2070800
  70:	00000476 	tne	zero,zero,0x11
  74:	14020508 	bne	zero,v0,1498 <ota_send_complete+0x13cc>
  78:	04000000 	bltz	zero,7c <.debug_info+0x7c>
  7c:	01db0307 	0x1db0307
  80:	15030000 	bne	t0,v1,84 <.debug_info+0x84>
  84:	00000025 	move	zero,zero
  88:	00094203 	sra	t0,t1,0x8
  8c:	3e1d0300 	0x3e1d0300
  90:	03000000 	0x3000000
  94:	00000995 	0x995
  98:	00762503 	0x762503
  9c:	69040000 	0x69040000
  a0:	0400746e 	bltz	zero,1d25c <ota_send_complete+0x1d190>
  a4:	09740205 	j	5d00814 <ota_send_complete+0x5d00748>
  a8:	06010000 	bgez	s0,ac <.debug_info+0xac>
  ac:	00039b02 	srl	s3,v1,0xc
  b0:	05070400 	0x5070400
  b4:	00e80604 	0xe80604
  b8:	08080000 	j	200000 <ota_send_complete+0x1fff34>
  bc:	49500778 	0x49500778
  c0:	75080044 	jalx	4200110 <ota_send_complete+0x4200044>
  c4:	0000003e 	0x3e
  c8:	07002302 	bltz	t8,8cd4 <ota_send_complete+0x8c08>
  cc:	00444956 	0x444956
  d0:	003e7608 	0x3e7608
  d4:	23020000 	addi	v0,t8,0
  d8:	04db0802 	0x4db0802
  dc:	77080000 	jalx	c200000 <ota_send_complete+0xc1fff34>
  e0:	000000e8 	0xe8
  e4:	00042302 	srl	a0,a0,0xc
  e8:	0000f809 	jalr	zero
  ec:	0000a500 	sll	s4,zero,0x14
  f0:	00ac0a00 	0xac0a00
  f4:	00030000 	sll	zero,v1,0x0
  f8:	0005b203 	sra	s6,a1,0x8
  fc:	b5780800 	0xb5780800
 100:	06000000 	bltz	s0,104 <.debug_info+0x104>
 104:	00000198 	0x198
 108:	088f0814 	j	23c2050 <ota_send_complete+0x23c1f84>
 10c:	0000073b 	0x73b
 110:	00888408 	0x888408
 114:	23020000 	addi	v0,t8,0
 118:	05f70800 	0x5f70800
 11c:	85080000 	lh	t0,0(t0)
 120:	0000007d 	0x7d
 124:	08022302 	j	88c08 <ota_send_complete+0x88b3c>
 128:	00000607 	0x607
 12c:	007d8608 	0x7d8608
 130:	23020000 	addi	v0,t8,0
 134:	09c90803 	j	724200c <ota_send_complete+0x7241f40>
 138:	87080000 	lh	t0,0(t8)
 13c:	00000088 	0x88
 140:	08042302 	j	108c08 <ota_send_complete+0x108b3c>
 144:	00000652 	0x652
 148:	00888808 	0x888808
 14c:	23020000 	addi	v0,t8,0
 150:	05cc0806 	teqi	t6,2054
 154:	89080000 	lwl	t0,0(t0)
 158:	0000007d 	0x7d
 15c:	08082302 	j	208c08 <ota_send_complete+0x208b3c>
 160:	0000019d 	0x19d
 164:	007d8a08 	0x7d8a08
 168:	23020000 	addi	v0,t8,0
 16c:	03df0809 	0x3df0809
 170:	8b080000 	lwl	t0,0(t8)
 174:	0000007d 	0x7d
 178:	080a2302 	j	288c08 <ota_send_complete+0x288b3c>
 17c:	000006c8 	0x6c8
 180:	01988c08 	0x1988c08
 184:	23020000 	addi	v0,t8,0
 188:	004c080b 	movn	at,v0,t4
 18c:	8d080000 	lw	t0,0(t0)
 190:	000000f8 	0xf8
 194:	000c2302 	srl	a0,t4,0xc
 198:	0001a809 	0x1a809
 19c:	00007d00 	sll	t7,zero,0x14
 1a0:	00ac0a00 	0xac0a00
 1a4:	00000000 	nop
 1a8:	000b6203 	sra	t4,t3,0x8
 1ac:	038f0800 	0x38f0800
 1b0:	0b000001 	j	c000004 <ota_send_complete+0xbffff38>
 1b4:	000003d2 	0x3d2
 1b8:	0ce00202 	jal	3800808 <ota_send_complete+0x380073c>
 1bc:	0000038f 	0x38f
 1c0:	09df0c00 	j	77c3000 <ota_send_complete+0x77c2f34>
 1c4:	0c010000 	jal	40000 <ota_send_complete+0x3ff34>
 1c8:	0000067f 	0x67f
 1cc:	054e0c02 	tnei	t2,3074
 1d0:	0c030000 	jal	c0000 <ota_send_complete+0xbff34>
 1d4:	00000924 	0x924
 1d8:	08370c20 	j	dc3080 <ota_send_complete+0xdc2fb4>
 1dc:	01800000 	0x1800000
 1e0:	0004130c 	syscall	0x104c
 1e4:	0c018100 	jal	60400 <ota_send_complete+0x60334>
 1e8:	000001e1 	0x1e1
 1ec:	950c0182 	lhu	t4,386(t0)
 1f0:	83000000 	lb	zero,0(t8)
 1f4:	02700c01 	0x2700c01
 1f8:	01840000 	0x1840000
 1fc:	000aab0c 	syscall	0x2aac
 200:	0c018500 	jal	61400 <ota_send_complete+0x61334>
 204:	00000b3a 	0xb3a
 208:	8a0c01a1 	lwl	t4,417(s0)
 20c:	ff000001 	sdc3	$0,1(t8)
 210:	044a0c01 	tlti	v0,3073
 214:	02800000 	0x2800000
 218:	0006b60c 	syscall	0x1ad8
 21c:	0c028100 	jal	a0400 <ota_send_complete+0xa0334>
 220:	000008ab 	0x8ab
 224:	be0c0282 	cache	0xc,642(s0)
 228:	83000004 	lb	zero,4(t8)
 22c:	0b910c02 	j	e443008 <ota_send_complete+0xe442f3c>
 230:	02840000 	0x2840000
 234:	00002c0c 	syscall	0xb0
 238:	0c028500 	jal	a1400 <ota_send_complete+0xa1334>
 23c:	0000013b 	0x13b
 240:	600c0286 	0x600c0286
 244:	87000004 	lh	zero,4(t8)
 248:	07410c02 	bgez	k0,3254 <ota_send_complete+0x3188>
 24c:	02880000 	0x2880000
 250:	0003ea0c 	syscall	0xfa8
 254:	0c028900 	jal	a2400 <ota_send_complete+0xa2334>
 258:	00000844 	0x844
 25c:	790c028a 	0x790c028a
 260:	8b000001 	lwl	zero,1(t8)
 264:	00840c02 	0x840c02
 268:	028c0000 	0x28c0000
 26c:	0007a30c 	syscall	0x1e8c
 270:	0c028d00 	jal	a3400 <ota_send_complete+0xa3334>
 274:	000002f9 	0x2f9
 278:	350c028e 	ori	t4,t0,0x28e
 27c:	8f000005 	lw	zero,5(t8)
 280:	08d00c02 	j	3403008 <ota_send_complete+0x3402f3c>
 284:	02900000 	0x2900000
 288:	0000b70c 	syscall	0x2dc
 28c:	0c029100 	jal	a4400 <ota_send_complete+0xa4334>
 290:	00000561 	0x561
 294:	f40c0292 	sdc1	$f12,658(zero)
 298:	93000008 	lbu	zero,8(t8)
 29c:	00cd0c02 	0xcd0c02
 2a0:	02940000 	0x2940000
 2a4:	000a340c 	syscall	0x28d0
 2a8:	0c029500 	jal	a5400 <ota_send_complete+0xa5334>
 2ac:	00000896 	0x896
 2b0:	6a0c0296 	0x6a0c0296
 2b4:	97000006 	lhu	zero,6(t8)
 2b8:	02190c02 	0x2190c02
 2bc:	02980000 	0x2980000
 2c0:	0007fa0c 	syscall	0x1fe8
 2c4:	0c029900 	jal	a6400 <ota_send_complete+0xa6334>
 2c8:	00000be5 	0xbe5
 2cc:	100c029a 	beq	zero,t4,d38 <ota_send_complete+0xc6c>
 2d0:	9b000001 	lwr	zero,1(t8)
 2d4:	01ae0c02 	0x1ae0c02
 2d8:	029c0000 	0x29c0000
 2dc:	000c9d0c 	syscall	0x3274
 2e0:	0c029d00 	jal	a7400 <ota_send_complete+0xa7334>
 2e4:	00000123 	0x123
 2e8:	220c029e 	addi	t4,s0,670
 2ec:	9f00000c 	0x9f00000c
 2f0:	06150c02 	0x6150c02
 2f4:	02a00000 	0x2a00000
 2f8:	000a610c 	syscall	0x2984
 2fc:	0c02a100 	jal	a8400 <ota_send_complete+0xa8334>
 300:	00000721 	0x721
 304:	770c02a2 	jalx	c300a88 <ota_send_complete+0xc3009bc>
 308:	a300000b 	sb	zero,11(t8)
 30c:	09f90c02 	j	7e43008 <ota_send_complete+0x7e42f3c>
 310:	02a40000 	0x2a40000
 314:	000c3c0c 	syscall	0x30f0
 318:	0c02a500 	jal	a9400 <ota_send_complete+0xa9334>
 31c:	000007c8 	0x7c8
 320:	b10c02a6 	0xb10c02a6
 324:	a7000009 	sh	zero,9(t8)
 328:	0b270c02 	j	c9c3008 <ota_send_complete+0xc9c2f3c>
 32c:	02a80000 	0x2a80000
 330:	0007040c 	syscall	0x1c10
 334:	0c02a900 	jal	aa400 <ota_send_complete+0xaa334>
 338:	00000959 	0x959
 33c:	900c02aa 	lbu	t4,682(zero)
 340:	ab000002 	swl	zero,2(t8)
 344:	02a60c02 	0x2a60c02
 348:	02ac0000 	0x2ac0000
 34c:	0002bc0c 	syscall	0xaf0
 350:	0c02ad00 	jal	ab400 <ota_send_complete+0xab334>
 354:	000002d2 	0x2d2
 358:	0d0c02ae 	jal	4300ab8 <ota_send_complete+0x43009ec>
 35c:	af000003 	sw	zero,3(t8)
 360:	03230c02 	0x3230c02
 364:	02b00000 	0x2b00000
 368:	0006a00c 	syscall	0x1a80
 36c:	0c02b100 	jal	ac400 <ota_send_complete+0xac334>
 370:	00000339 	0x339
 374:	4f0c02b2 	c3	0x10c02b2
 378:	b3000003 	0xb3000003
 37c:	03650c02 	0x3650c02
 380:	02b40000 	0x2b40000
 384:	000aca0c 	syscall	0x2b28
 388:	0c048000 	jal	120000 <ota_send_complete+0x11ff34>
 38c:	00000ba5 	0xba5
 390:	670c0481 	0x670c0481
 394:	82000008 	lb	zero,8(s0)
 398:	049a0c04 	0x49a0c04
 39c:	04830000 	bgezl	a0,3a0 <.debug_info+0x3a0>
 3a0:	00080d0c 	syscall	0x2034
 3a4:	0c048400 	jal	121000 <ota_send_complete+0x120f34>
 3a8:	00000855 	0x855
 3ac:	9a0c0485 	lwr	t4,1157(s0)
 3b0:	8600000a 	lh	zero,10(s0)
 3b4:	0bba0c04 	j	ee83010 <ota_send_complete+0xee82f44>
 3b8:	04870000 	0x4870000
 3bc:	00057a0c 	syscall	0x15e8
 3c0:	0c048800 	jal	122000 <ota_send_complete+0x121f34>
 3c4:	000005d4 	0x5d4
 3c8:	c50c0489 	lwc1	$f12,1161(t0)
 3cc:	8a000003 	lwl	zero,3(s0)
 3d0:	620d0004 	0x620d0004
 3d4:	02000007 	srav	zero,zero,s0
 3d8:	01b3017a 	0x1b3017a
 3dc:	ee090000 	swc3	$9,0(s0)
 3e0:	7d000003 	0x7d000003
 3e4:	0a000000 	j	8000000 <ota_send_complete+0x7ffff34>
 3e8:	000000ac 	0xac
 3ec:	0c0e0005 	jal	380014 <ota_send_complete+0x37ff48>
 3f0:	1c000005 	bgtz	zero,408 <.debug_info+0x408>
 3f4:	0f013d05 	jal	c04f414 <ota_send_complete+0xc04f348>
 3f8:	0000015e 	0x15e
 3fc:	7d011805 	0x7d011805
 400:	02000000 	0x2000000
 404:	ed0f0023 	swc3	$15,35(t0)
 408:	05000007 	bltz	t0,428 <.debug_info+0x428>
 40c:	007d011a 	0x7d011a
 410:	23020000 	addi	v0,t8,0
 414:	0c530f01 	jal	14c3c04 <ota_send_complete+0x14c3b38>
 418:	1c050000 	0x1c050000
 41c:	00007d01 	0x7d01
 420:	02230200 	0x2230200
 424:	0004090f 	0x4090f
 428:	011e0500 	0x11e0500
 42c:	0000007d 	0x7d
 430:	0f032302 	jal	c0c8c08 <ota_send_complete+0xc0c8b3c>
 434:	00000484 	0x484
 438:	7d012305 	0x7d012305
 43c:	02000000 	0x2000000
 440:	7b0f0423 	0x7b0f0423
 444:	05000003 	bltz	t0,454 <.debug_info+0x454>
 448:	007d0124 	0x7d0124
 44c:	23020000 	addi	v0,t8,0
 450:	042e1005 	tnei	at,4101
 454:	25050000 	addiu	a1,t0,0
 458:	00007d01 	0x7d01
 45c:	04040100 	0x4040100
 460:	10062302 	beq	zero,a2,906c <ota_send_complete+0x8fa0>
 464:	00000a25 	0xa25
 468:	7d012605 	0x7d012605
 46c:	01000000 	0x1000000
 470:	23020004 	addi	v0,t8,4
 474:	0a160f06 	j	8583c18 <ota_send_complete+0x8583b4c>
 478:	28050000 	slti	a1,zero,0
 47c:	00007d01 	0x7d01
 480:	07230200 	bgezl	t9,c84 <ota_send_complete+0xbb8>
 484:	0007150f 	0x7150f
 488:	012b0500 	0x12b0500
 48c:	0000007d 	0x7d
 490:	0f082302 	jal	c208c08 <ota_send_complete+0xc208b3c>
 494:	00000822 	neg	at,zero
 498:	7d012d05 	0x7d012d05
 49c:	02000000 	0x2000000
 4a0:	440f0923 	0x440f0923
 4a4:	0500000a 	bltz	t0,4d0 <.debug_info+0x4d0>
 4a8:	007d0130 	tge	v1,sp,0x4
 4ac:	23020000 	addi	v0,t8,0
 4b0:	0c5d0f0a 	jal	1743c28 <ota_send_complete+0x1743b5c>
 4b4:	33050000 	andi	a1,t8,0x0
 4b8:	00002c01 	0x2c01
 4bc:	0b230200 	j	c8c0800 <ota_send_complete+0xc8c0734>
 4c0:	00016a0f 	0x16a0f
 4c4:	01340500 	0x1340500
 4c8:	0000050c 	syscall	0x14
 4cc:	0f0c2302 	jal	c308c08 <ota_send_complete+0xc308b3c>
 4d0:	00000aeb 	0xaeb
 4d4:	0c013705 	jal	4dc14 <ota_send_complete+0x4db48>
 4d8:	02000005 	0x2000005
 4dc:	9c0f1023 	0x9c0f1023
 4e0:	05000009 	bltz	t0,508 <.debug_info+0x508>
 4e4:	050c0138 	teqi	t0,312
 4e8:	23020000 	addi	v0,t8,0
 4ec:	09110f14 	j	4443c50 <ota_send_complete+0x4443b84>
 4f0:	3b050000 	xori	a1,t8,0x0
 4f4:	00007d01 	0x7d01
 4f8:	18230200 	0x18230200
 4fc:	00051a0f 	0x51a0f
 500:	013c0500 	0x13c0500
 504:	0000007d 	0x7d
 508:	00192302 	srl	a0,t9,0xc
 50c:	00450411 	0x450411
 510:	3d0d0000 	0x3d0d0000
 514:	05000006 	bltz	t0,530 <.debug_info+0x530>
 518:	03ee013d 	0x3ee013d
 51c:	a50e0000 	sh	t6,0(t0)
 520:	18000006 	blez	zero,53c <.debug_info+0x53c>
 524:	0f017705 	jal	c05dc14 <ota_send_complete+0xc05db48>
 528:	00000021 	move	zero,zero
 52c:	2c014605 	sltiu	at,zero,17925
 530:	02000000 	0x2000000
 534:	090f0023 	j	43c008c <ota_send_complete+0x43bffc0>
 538:	05000009 	bltz	t0,560 <.debug_info+0x560>
 53c:	002c0148 	0x2c0148
 540:	23020000 	addi	v0,t8,0
 544:	0a0c0f01 	j	8303c04 <ota_send_complete+0x8303b38>
 548:	4a050000 	c2	0x50000
 54c:	00007d01 	0x7d01
 550:	02230200 	0x2230200
 554:	0000e30f 	0xe30f
 558:	014c0500 	0x14c0500
 55c:	0000007d 	0x7d
 560:	0f032302 	jal	c0c8c08 <ota_send_complete+0xc0c8b3c>
 564:	000005a7 	0x5a7
 568:	7d014e05 	0x7d014e05
 56c:	02000000 	0x2000000
 570:	730f0423 	0x730f0423
 574:	0500000c 	bltz	t0,5a8 <.debug_info+0x5a8>
 578:	007d0150 	0x7d0150
 57c:	23020000 	addi	v0,t8,0
 580:	078a0f05 	tlti	gp,3845
 584:	52050000 	beql	s0,a1,588 <.debug_info+0x588>
 588:	00007d01 	0x7d01
 58c:	06230200 	bgezl	s1,d90 <ota_send_complete+0xcc4>
 590:	0009890f 	0x9890f
 594:	01540500 	0x1540500
 598:	0000007d 	0x7d
 59c:	0f072302 	jal	c1c8c08 <ota_send_complete+0xc1c8b3c>
 5a0:	000005ee 	0x5ee
 5a4:	2c015605 	sltiu	at,zero,22021
 5a8:	02000000 	0x2000000
 5ac:	280f0823 	slti	t7,zero,2083
 5b0:	05000005 	bltz	t0,5c8 <.debug_info+0x5c8>
 5b4:	007d0158 	0x7d0158
 5b8:	23020000 	addi	v0,t8,0
 5bc:	01060f09 	0x1060f09
 5c0:	5a050000 	0x5a050000
 5c4:	00007d01 	0x7d01
 5c8:	0a230200 	j	88c0800 <ota_send_complete+0x88c0734>
 5cc:	0003ad0f 	0x3ad0f
 5d0:	015c0500 	0x15c0500
 5d4:	0000002c 	0x2c
 5d8:	100b2302 	beq	zero,t3,91e4 <ota_send_complete+0x9118>
 5dc:	000004ae 	0x4ae
 5e0:	7d015e05 	0x7d015e05
 5e4:	01000000 	0x1000000
 5e8:	23020107 	addi	v0,t8,263
 5ec:	051a100c 	0x51a100c
 5f0:	5f050000 	0x5f050000
 5f4:	00007d01 	0x7d01
 5f8:	00010100 	sll	zero,at,0x4
 5fc:	0f0c2302 	jal	c308c08 <ota_send_complete+0xc308b3c>
 600:	00000c8f 	0xc8f
 604:	7d016105 	0x7d016105
 608:	02000000 	0x2000000
 60c:	f90f0d23 	sdc2	$15,3363(t0)
 610:	0500000b 	bltz	t0,640 <.debug_info+0x640>
 614:	002c0164 	0x2c0164
 618:	23020000 	addi	v0,t8,0
 61c:	076f0f0e 	0x76f0f0e
 620:	66050000 	0x66050000
 624:	00002c01 	0x2c01
 628:	0f230200 	jal	c8c0800 <ota_send_complete+0xc8c0734>
 62c:	000b170f 	0xb170f
 630:	01680500 	0x1680500
 634:	0000002c 	0x2c
 638:	0f102302 	jal	c408c08 <ota_send_complete+0xc408b3c>
 63c:	000009ed 	0x9ed
 640:	2c016a05 	sltiu	at,zero,27141
 644:	02000000 	0x2000000
 648:	f30f1123 	0xf30f1123
 64c:	05000001 	bltz	t0,654 <.debug_info+0x654>
 650:	007d016c 	0x7d016c
 654:	23020000 	addi	v0,t8,0
 658:	01520f12 	0x1520f12
 65c:	6e050000 	0x6e050000
 660:	00007d01 	0x7d01
 664:	13230200 	beq	t9,v1,e68 <ota_send_complete+0xd9c>
 668:	0009d40f 	0x9d40f
 66c:	01700500 	0x1700500
 670:	0000007d 	0x7d
 674:	0f142302 	jal	c508c08 <ota_send_complete+0xc508b3c>
 678:	00000000 	nop
 67c:	7d017205 	0x7d017205
 680:	02000000 	0x2000000
 684:	0d0f1523 	jal	43c548c <ota_send_complete+0x43c53c0>
 688:	0500000c 	bltz	t0,6bc <.debug_info+0x6bc>
 68c:	007d0174 	teq	v1,sp,0x5
 690:	23020000 	addi	v0,t8,0
 694:	06e10f16 	bgez	s7,42f0 <ota_send_complete+0x4224>
 698:	76050000 	jalx	8140000 <ota_send_complete+0x813ff34>
 69c:	00007d01 	0x7d01
 6a0:	17230200 	bne	t9,v1,ea4 <ota_send_complete+0xdd8>
 6a4:	0bd40d00 	j	f503400 <ota_send_complete+0xf503334>
 6a8:	77050000 	jalx	c140000 <ota_send_complete+0xc13ff34>
 6ac:	00051e01 	0x51e01
 6b0:	06f70e00 	0x6f70e00
 6b4:	05040000 	0x5040000
 6b8:	d10f0187 	0xd10f0187
 6bc:	05000004 	bltz	t0,6d0 <.debug_info+0x6d0>
 6c0:	007d0180 	0x7d0180
 6c4:	23020000 	addi	v0,t8,0
 6c8:	09490f00 	j	5243c00 <ota_send_complete+0x5243b34>
 6cc:	82050000 	lb	a1,0(s0)
 6d0:	00007d01 	0x7d01
 6d4:	01230200 	0x1230200
 6d8:	000c7f0f 	0xc7f0f
 6dc:	01840500 	0x1840500
 6e0:	0000007d 	0x7d
 6e4:	0f022302 	jal	c088c08 <ota_send_complete+0xc088b3c>
 6e8:	000001cc 	syscall	0x7
 6ec:	7d018605 	0x7d018605
 6f0:	02000000 	0x2000000
 6f4:	0d000323 	jal	4000c8c <ota_send_complete+0x4000bc0>
 6f8:	000002e8 	0x2e8
 6fc:	b1018705 	0xb1018705
 700:	06000006 	bltz	s0,71c <.debug_info+0x71c>
 704:	00000760 	0x760
 708:	0826070e 	j	981c38 <ota_send_complete+0x981b6c>
 70c:	0000004c 	syscall	0x1
 710:	00f81f07 	0xf81f07
 714:	23020000 	addi	v0,t8,0
 718:	077b0800 	0x77b0800
 71c:	20070000 	addi	a3,zero,0
 720:	00000088 	0x88
 724:	08082302 	j	208c08 <ota_send_complete+0x208b3c>
 728:	000005cc 	syscall	0x17
 72c:	007d2107 	0x7d2107
 730:	23020000 	addi	v0,t8,0
 734:	0b53080a 	j	d4c2028 <ota_send_complete+0xd4c1f5c>
 738:	22070000 	addi	a3,s0,0
 73c:	0000007d 	0x7d
 740:	080b2302 	j	2c8c08 <ota_send_complete+0x2c8b3c>
 744:	00000adb 	0xadb
 748:	007d2407 	0x7d2407
 74c:	23020000 	addi	v0,t8,0
 750:	06c8080c 	tgei	s6,2060
 754:	25070000 	addiu	a3,t0,0
 758:	0000007d 	0x7d
 75c:	000d2302 	srl	a0,t5,0xc
 760:	0008be03 	sra	s7,t0,0x18
 764:	03260700 	0x3260700
 768:	06000007 	bltz	s0,788 <.debug_info+0x788>
 76c:	00000790 	0x790
 770:	082c0710 	j	b01c40 <ota_send_complete+0xb01b74>
 774:	000003fb 	0x3fb
 778:	007d2a07 	0x7d2a07
 77c:	23020000 	addi	v0,t8,0
 780:	06c80800 	tgei	s6,2048
 784:	2b070000 	slti	a3,t8,0
 788:	00000790 	0x790
 78c:	00012302 	srl	a0,at,0xc
 790:	0007a009 	0x7a009
 794:	00007d00 	sll	t7,zero,0x14
 798:	00ac0a00 	0xac0a00
 79c:	000e0000 	sll	zero,t6,0x0
 7a0:	00097903 	sra	t7,t1,0x4
 7a4:	6b2c0700 	0x6b2c0700
 7a8:	06000007 	bltz	s0,7c8 <.debug_info+0x7c8>
 7ac:	00000816 	0x816
 7b0:	08380710 	j	e01c40 <ota_send_complete+0xe01b74>
 7b4:	000003fb 	0x3fb
 7b8:	007d3107 	0x7d3107
 7bc:	23020000 	addi	v0,t8,0
 7c0:	093a0800 	j	4e82000 <ota_send_complete+0x4e81f34>
 7c4:	32070000 	andi	a3,s0,0x0
 7c8:	0000007d 	0x7d
 7cc:	08012302 	j	48c08 <ota_send_complete+0x48b3c>
 7d0:	0000077b 	0x77b
 7d4:	00883307 	0x883307
 7d8:	23020000 	addi	v0,t8,0
 7dc:	07de0802 	0x7de0802
 7e0:	34070000 	li	a3,0x0
 7e4:	00000093 	0x93
 7e8:	08042302 	j	108c08 <ota_send_complete+0x108b3c>
 7ec:	000005cc 	syscall	0x17
 7f0:	007d3507 	0x7d3507
 7f4:	23020000 	addi	v0,t8,0
 7f8:	0b530808 	j	d4c2020 <ota_send_complete+0xd4c1f54>
 7fc:	36070000 	ori	a3,s0,0x0
 800:	0000007d 	0x7d
 804:	08092302 	j	248c08 <ota_send_complete+0x248b3c>
 808:	00000cba 	0xcba
 80c:	03de3707 	0x3de3707
 810:	23020000 	addi	v0,t8,0
 814:	b803000a 	swr	v1,10(zero)
 818:	07000003 	bltz	t8,828 <.debug_info+0x828>
 81c:	0007ab38 	0x7ab38
 820:	087e0600 	j	1f81800 <ota_send_complete+0x1f81734>
 824:	07340000 	0x7340000
 828:	06910861 	bgezal	s4,29b0 <ota_send_complete+0x28e4>
 82c:	5b070000 	0x5b070000
 830:	000007a0 	0x7a0
 834:	08002302 	j	8c08 <ota_send_complete+0x8b3c>
 838:	000008e5 	0x8e5
 83c:	08165c07 	j	59701c <ota_send_complete+0x596f50>
 840:	23020000 	addi	v0,t8,0
 844:	06d10810 	bgezal	s6,2888 <ota_send_complete+0x27bc>
 848:	5d070000 	0x5d070000
 84c:	00000760 	0x760
 850:	08202302 	j	808c08 <ota_send_complete+0x808b3c>
 854:	00000a87 	0xa87
 858:	00885e07 	0x885e07
 85c:	23020000 	addi	v0,t8,0
 860:	05bb082e 	0x5bb082e
 864:	5f070000 	0x5f070000
 868:	00000088 	0x88
 86c:	08302302 	j	c08c08 <ota_send_complete+0xc08b3c>
 870:	0000087b 	0x87b
 874:	007d6007 	srav	t4,sp,v1
 878:	23020000 	addi	v0,t8,0
 87c:	57030032 	bnel	t8,v1,948 <.debug_info+0x948>
 880:	07000000 	bltz	t8,884 <.debug_info+0x884>
 884:	00082161 	0x82161
 888:	08d91200 	j	3644800 <ota_send_complete+0x3644734>
 88c:	02010000 	0x2010000
 890:	01000002 	0x1000002
 894:	03d2010f 	0x3d2010f
 898:	00000000 	nop
 89c:	002c0000 	0x2c0000
 8a0:	6d010000 	0x6d010000
 8a4:	000a7613 	0xa7613
 8a8:	930e0100 	lbu	t6,256(t8)
 8ac:	01000000 	0x1000000
 8b0:	0a7c1354 	j	9f04d50 <ota_send_complete+0x9f04c84>
 8b4:	0e010000 	jal	8040000 <ota_send_complete+0x803ff34>
 8b8:	00000093 	0x93
 8bc:	82135501 	lb	s3,21761(s0)
 8c0:	0100000a 	movz	zero,t0,zero
 8c4:	0000b30e 	0xb30e
 8c8:	13560100 	beq	k0,s6,ccc <ota_send_complete+0xc00>
 8cc:	00000ac1 	0xac1
 8d0:	00880e01 	0x880e01
 8d4:	57010000 	bnel	t8,at,8d8 <.debug_info+0x8d8>
 8d8:	09361200 	j	4d84800 <ota_send_complete+0x4d84734>
 8dc:	6a010000 	0x6a010000
 8e0:	01000000 	0x1000000
 8e4:	03d20124 	0x3d20124
 8e8:	00000000 	nop
 8ec:	00840000 	0x840000
 8f0:	6d010000 	0x6d010000
 8f4:	000a7613 	0xa7613
 8f8:	93230100 	lbu	v1,256(t9)
 8fc:	01000000 	0x1000000
 900:	0a7c1354 	j	9f04d50 <ota_send_complete+0x9f04c84>
 904:	23010000 	addi	at,t8,0
 908:	00000093 	0x93
 90c:	82135501 	lb	s3,21761(s0)
 910:	0100000a 	movz	zero,t0,zero
 914:	0000b323 	0xb323
 918:	13560100 	beq	k0,s6,d1c <ota_send_complete+0xc50>
 91c:	00000ac1 	0xac1
 920:	00882301 	0x882301
 924:	57010000 	bnel	t8,at,928 <.debug_info+0x928>
 928:	74657214 	jalx	195c850 <ota_send_complete+0x195c784>
 92c:	93260100 	lbu	a2,256(t9)
 930:	01000000 	0x1000000
 934:	86120052 	lh	s2,82(s0)
 938:	01000009 	jalr	zero,t0
 93c:	000004e3 	0x4e3
 940:	d2013901 	0xd2013901
 944:	00000003 	sra	zero,zero,0x0
 948:	04000000 	bltz	zero,94c <.debug_info+0x94c>
 94c:	01000001 	movf	zero,t0,$fcc0
 950:	0a76136d 	j	9d84db4 <ota_send_complete+0x9d84ce8>
 954:	38010000 	xori	at,zero,0x0
 958:	00000093 	0x93
 95c:	7c135401 	0x7c135401
 960:	0100000a 	movz	zero,t0,zero
 964:	00009338 	0x9338
 968:	13550100 	beq	k0,s5,d6c <ota_send_complete+0xca0>
 96c:	00000a82 	srl	at,zero,0xa
 970:	00b33801 	0xb33801
 974:	56010000 	bnel	s0,at,978 <.debug_info+0x978>
 978:	000ac113 	0xac113
 97c:	88380100 	lwl	t8,256(at)
 980:	01000000 	0x1000000
 984:	28150057 	slti	s5,zero,87
 988:	04000006 	bltz	zero,9a4 <.debug_info+0x9a4>
 98c:	00007d8a 	0x7d8a
 990:	16010100 	bne	s0,at,d94 <ota_send_complete+0xcc8>
 994:	000006ef 	0x6ef
 998:	12019b05 	beq	s0,at,fffe75b0 <ota_send_complete+0xfffe74e4>
 99c:	01000005 	0x1000005
 9a0:	0cc31601 	jal	30c5804 <ota_send_complete+0x30c5738>
 9a4:	a1050000 	sb	a1,0(t0)
 9a8:	0006f701 	0x6f701
 9ac:	16010100 	bne	s0,at,db0 <ota_send_complete+0xce4>
 9b0:	000007b7 	0x7b7
 9b4:	a501a705 	sh	at,-22779(t0)
 9b8:	01000006 	srlv	zero,zero,t0
 9bc:	00391501 	0x391501
 9c0:	64070000 	0x64070000
 9c4:	000001a8 	0x1a8
 9c8:	a4150101 	sh	s5,257(zero)
 9cc:	07000001 	bltz	t8,9d4 <.debug_info+0x9d4>
 9d0:	0009d765 	0x9d765
 9d4:	11010100 	beq	t0,at,dd8 <ota_send_complete+0xd0c>
 9d8:	00087e04 	0x87e04
	...
Disassembly of section .debug_line:

00000000 <.debug_line>:
   0:	00000120 	0x120
   4:	00e60002 	0xe60002
   8:	01010000 	0x1010000
   c:	000a0efb 	0xa0efb
  10:	01010101 	0x1010101
  14:	01000000 	0x1000000
  18:	2e2e2f2e 	sltiu	t6,s1,12078
  1c:	2f2e2e2f 	sltiu	t6,t9,11823
  20:	692f2e2e 	0x692f2e2e
  24:	2e00636e 	sltiu	zero,s0,25454
  28:	2f2e2e2f 	sltiu	t6,t9,11823
  2c:	2e2f2e2e 	sltiu	t7,s1,11822
  30:	2e2e2f2e 	sltiu	t6,s1,12078
  34:	7073702f 	0x7073702f
  38:	6c65725f 	0x6c65725f
  3c:	636e692f 	0x636e692f
  40:	6564756c 	0x6564756c
  44:	2e2f2e00 	sltiu	t7,s1,11776
  48:	2e2e2f2e 	sltiu	t6,s1,12078
  4c:	2f2e2e2f 	sltiu	t6,t9,11823
  50:	702f2e2e 	0x702f2e2e
  54:	725f7073 	0x725f7073
  58:	692f6c65 	0x692f6c65
  5c:	756c636e 	jalx	5b18db8 <ota_send_complete+0x5b18cec>
  60:	752f6564 	jalx	4bd9590 <ota_send_complete+0x4bd94c4>
  64:	00736f63 	0x736f63
  68:	61744f00 	0x61744f00
  6c:	7063725f 	udi15	v1,v1,t6,0x9
  70:	6265725f 	0x6265725f
  74:	5f746f6f 	0x5f746f6f
  78:	2e646d63 	sltiu	a0,s3,28003
  7c:	00000063 	0x63
  80:	73616300 	0x73616300
  84:	79745f65 	0x79745f65
  88:	682e6570 	0x682e6570
  8c:	00000100 	sll	zero,zero,0x4
  90:	65707974 	0x65707974
  94:	2e747865 	sltiu	s4,s3,30821
  98:	00020068 	0x20068
  9c:	70706100 	0x70706100
  a0:	6d69745f 	0x6d69745f
  a4:	682e7265 	0x682e7265
  a8:	00000100 	sll	zero,zero,0x4
  ac:	6c707061 	0x6c707061
  b0:	682e6269 	0x682e6269
  b4:	00000100 	sll	zero,zero,0x4
  b8:	736f6375 	0x736f6375
  bc:	7079745f 	udi15	v1,t9,t6,0x11
  c0:	682e7365 	0x682e7365
  c4:	00000300 	sll	zero,zero,0xc
  c8:	6d6d6f43 	0x6d6d6f43
  cc:	6f5f6e6f 	0x6f5f6e6f
  d0:	682e6174 	0x682e6174
  d4:	00000100 	sll	zero,zero,0x4
  d8:	5f737973 	0x5f737973
  dc:	5f61746f 	0x5f61746f
  e0:	65746e69 	0x65746e69
  e4:	63616672 	0x63616672
  e8:	00682e65 	0x682e65
  ec:	00000002 	srl	zero,zero,0x0
  f0:	01020500 	0x1020500
  f4:	03000000 	0x3000000
  f8:	d52d010e 	ldc1	$f13,270(t1)
  fc:	03632c2a 	0x3632c2a
 100:	0865470a 	j	1951c28 <ota_send_complete+0x1951b5c>
 104:	b8b82e3e 	swr	t8,11838(a1)
 108:	2c2c442e 	sltiu	t4,at,17454
 10c:	9d2d802c 	0x9d2d802c
 110:	1350029f 	beq	k0,s0,b90 <ota_send_complete+0xac4>
 114:	2ab9b82c 	slti	t9,s5,-18388
 118:	2d292c2c 	sltiu	t1,t1,11308
 11c:	0266482a 	slt	t1,s3,a2
 120:	01010027 	nor	zero,t0,at
Disassembly of section .debug_frame:

00000000 <.debug_frame>:
   0:	0000000c 	syscall
   4:	ffffffff 	sdc3	$31,-1(ra)
   8:	04010001 	b	10 <.debug_frame+0x10>
   c:	001d0c1f 	0x1d0c1f
  10:	00000020 	add	zero,zero,zero
	...
  1c:	0000002b 	sltu	zero,zero,zero
  20:	0e040e42 	jal	8103908 <ota_send_complete+0x810383c>
  24:	0e0c0e08 	jal	8303820 <ota_send_complete+0x8303754>
  28:	7d101120 	0x7d101120
  2c:	117e1111 	beq	t3,s8,4474 <ota_send_complete+0x43a8>
  30:	00007f1f 	0x7f1f
  34:	00000020 	add	zero,zero,zero
	...
  40:	0000004b 	0x4b
  44:	0e040e42 	jal	8103908 <ota_send_complete+0x810383c>
  48:	0e0c0e08 	jal	8303820 <ota_send_complete+0x8303754>
  4c:	7d101120 	0x7d101120
  50:	117e1111 	beq	t3,s8,4498 <ota_send_complete+0x43cc>
  54:	00007f1f 	0x7f1f
  58:	00000020 	add	zero,zero,zero
	...
  64:	00000037 	0x37
  68:	0e040e42 	jal	8103908 <ota_send_complete+0x810383c>
  6c:	0e0c0e08 	jal	8303820 <ota_send_complete+0x8303754>
  70:	7d101120 	0x7d101120
  74:	117e1111 	beq	t3,s8,44bc <ota_send_complete+0x43f0>
  78:	00007f1f 	0x7f1f
Disassembly of section .debug_pubnames:

00000000 <.debug_pubnames>:
   0:	0000005d 	0x5d
   4:	00000002 	srl	zero,zero,0x0
   8:	09de0000 	j	7780000 <ota_send_complete+0x777ff34>
   c:	08890000 	j	2240000 <ota_send_complete+0x223ff34>
  10:	746f0000 	jalx	1bc0000 <ota_send_complete+0x1bbff34>
  14:	65725f61 	0x65725f61
  18:	72617473 	0x72617473
  1c:	6f745f74 	0x6f745f74
  20:	6770755f 	0x6770755f
  24:	65646172 	0x65646172
  28:	0008d900 	sll	k1,t0,0x4
  2c:	61746f00 	0x61746f00
  30:	7365725f 	udi15	k1,a1,t6,0x9
  34:	74726174 	jalx	1c985d0 <ota_send_complete+0x1c98504>
  38:	5f6f745f 	0x5f6f745f
  3c:	61656c63 	0x61656c63
  40:	61645f6e 	0x61645f6e
  44:	36006174 	ori	zero,s0,0x6174
  48:	6f000009 	0x6f000009
  4c:	735f6174 	0x735f6174
  50:	5f646e65 	0x5f646e65
  54:	706d6f63 	0x706d6f63
  58:	6574656c 	0x6574656c
  5c:	00000000 	nop
	...
Disassembly of section .debug_aranges:

00000000 <.debug_aranges>:
   0:	0000001c 	0x1c
   4:	00000002 	srl	zero,zero,0x0
   8:	00040000 	sll	zero,a0,0x0
	...
  14:	00000124 	0x124
	...
Disassembly of section .debug_str:

00000000 <.debug_str>:
   0:	69726576 	0x69726576
   4:	61636966 	0x61636966
   8:	6e6f6974 	0x6e6f6974
   c:	6174735f 	0x6174735f
  10:	00737574 	teq	v1,s3,0x1d5
  14:	69736e75 	0x69736e75
  18:	64656e67 	0x64656e67
  1c:	746e6920 	jalx	1b9a480 <ota_send_complete+0x1b9a3b4>
  20:	74756d00 	jalx	1d5b400 <ota_send_complete+0x1d5b334>
  24:	74735f65 	jalx	1cd7d94 <ota_send_complete+0x1cd7cc8>
  28:	00657461 	0x657461
  2c:	55534552 	bnel	t2,s3,11578 <ota_send_complete+0x114ac>
  30:	525f544c 	beql	s2,ra,15164 <ota_send_complete+0x15098>
  34:	4f494441 	c3	0x1494441
  38:	6f5f6700 	0x6f5f6700
  3c:	725f6174 	0x725f6174
  40:	6f747365 	0x6f747365
  44:	645f6572 	0x645f6572
  48:	00617461 	0x617461
  4c:	5f757263 	0x5f757263
  50:	61647075 	0x61647075
  54:	4f006174 	c3	0x1006174
  58:	6d5f4154 	0x6d5f4154
  5c:	6f6c6c61 	0x6f6c6c61
  60:	61705f63 	0x61705f63
  64:	5f6d6172 	0x5f6d6172
  68:	746f0074 	jalx	1bc01d0 <ota_send_complete+0x1bc0104>
  6c:	65725f61 	0x65725f61
  70:	72617473 	0x72617473
  74:	6f745f74 	0x6f745f74
  78:	656c635f 	0x656c635f
  7c:	645f6e61 	0x645f6e61
  80:	00617461 	0x617461
  84:	55534552 	bnel	t2,s3,115d0 <ota_send_complete+0x11504>
  88:	555f544c 	bnel	t2,ra,151bc <ota_send_complete+0x150f0>
  8c:	545f4253 	bnel	v0,ra,109dc <ota_send_complete+0x10910>
  90:	534e4152 	beql	k0,t6,105dc <ota_send_complete+0x10510>
  94:	53455200 	beql	k0,a1,14898 <ota_send_complete+0x147cc>
  98:	5f544c55 	0x5f544c55
  9c:	5f59454b 	0x5f59454b
  a0:	4e455645 	c3	0x455645
  a4:	45525f54 	0x45525f54
  a8:	4c414544 	0x4c414544
  ac:	5f59425f 	0x5f59425f
  b0:	4d4d4f43 	0x4d4d4f43
  b4:	52004e4f 	beqzl	s0,139f4 <ota_send_complete+0x13928>
  b8:	4c555345 	0x4c555345
  bc:	45525f54 	0x45525f54
  c0:	44524f43 	0x44524f43
  c4:	43494d5f 	c0	0x1494d5f
  c8:	434f545f 	c0	0x14f545f
  cc:	53455200 	beql	k0,a1,148d0 <ota_send_complete+0x14804>
  d0:	5f544c55 	0x5f544c55
  d4:	4f434552 	c3	0x1434552
  d8:	4d5f4452 	0x4d5f4452
  dc:	545f4349 	bnel	v0,ra,10e04 <ota_send_complete+0x10d38>
  e0:	6200554f 	0x6200554f
  e4:	6c6b6361 	0x6c6b6361
  e8:	74686769 	jalx	1a19da4 <ota_send_complete+0x1a19cd8>
  ec:	6174735f 	0x6174735f
  f0:	73006574 	0x73006574
  f4:	74726f68 	jalx	1c9bda0 <ota_send_complete+0x1c9bcd4>
  f8:	736e7520 	0x736e7520
  fc:	656e6769 	0x656e6769
 100:	6e692064 	0x6e692064
 104:	61620074 	0x61620074
 108:	61765f74 	0x61765f74
 10c:	0065756c 	0x65756c
 110:	55534552 	bnel	t2,s3,1165c <ota_send_complete+0x11590>
 114:	415f544c 	0x415f544c
 118:	4d52414c 	0x4d52414c
 11c:	4f4c435f 	c3	0x14c435f
 120:	52004553 	beqzl	s0,11670 <ota_send_complete+0x115a4>
 124:	4c555345 	0x4c555345
 128:	414d5f54 	0x414d5f54
 12c:	4c41554e 	0x4c41554e
 130:	4145535f 	0x4145535f
 134:	5f484352 	0x5f484352
 138:	52005055 	beqzl	s0,14290 <ota_send_complete+0x141c4>
 13c:	4c555345 	0x4c555345
 140:	4c425f54 	0x4c425f54
 144:	45544555 	0x45544555
 148:	5f485445 	0x5f485445
 14c:	4e554f53 	c3	0x554f53
 150:	75630044 	jalx	58c0110 <ota_send_complete+0x58c0044>
 154:	75665f72 	jalx	5997dc8 <ota_send_complete+0x5997cfc>
 158:	695f636e 	0x695f636e
 15c:	6e650064 	0x6e650064
 160:	656e6967 	0x656e6967
 164:	7079745f 	udi15	v1,t9,t6,0x11
 168:	5f700065 	0x5f700065
 16c:	72656e65 	0x72656e65
 170:	765f7967 	jalx	97de59c <ota_send_complete+0x97de4d0>
 174:	65756c61 	0x65756c61
 178:	53455200 	beql	k0,a1,1497c <ota_send_complete+0x148b0>
 17c:	5f544c55 	0x5f544c55
 180:	5f574f4c 	0x5f574f4c
 184:	45574f50 	0x45574f50
 188:	45520052 	0x45520052
 18c:	544c5553 	bnel	v0,t4,156dc <ota_send_complete+0x15610>
 190:	5345545f 	beql	k0,a1,15310 <ota_send_complete+0x15244>
 194:	5f504154 	0x5f504154
 198:	54495551 	bnel	v0,t1,156e0 <ota_send_complete+0x15614>
 19c:	5f647500 	0x5f647500
 1a0:	00747461 	0x747461
 1a4:	544f5f67 	bnel	v0,t7,17f44 <ota_send_complete+0x17e78>
 1a8:	61765f41 	0x61765f41
 1ac:	45520072 	0x45520072
 1b0:	544c5553 	bnel	v0,t4,15700 <ota_send_complete+0x15634>
 1b4:	414c415f 	0x414c415f
 1b8:	525f4d52 	beql	s2,ra,13704 <ota_send_complete+0x13638>
 1bc:	5f474e49 	0x5f474e49
 1c0:	444c4f46 	0x444c4f46
 1c4:	535f5245 	beql	k0,ra,14adc <ota_send_complete+0x14a10>
 1c8:	004e4143 	0x4e4143
 1cc:	7473616c 	jalx	1cd85b0 <ota_send_complete+0x1cd84e4>
 1d0:	5f69755f 	0x5f69755f
 1d4:	74617473 	jalx	185d1cc <ota_send_complete+0x185d100>
 1d8:	75007375 	jalx	401cdd4 <ota_send_complete+0x401cd08>
 1dc:	38746e69 	xori	s4,v1,0x6e69
 1e0:	53455200 	beql	k0,a1,149e4 <ota_send_complete+0x14918>
 1e4:	5f544c55 	0x5f544c55
 1e8:	4e454353 	c3	0x454353
 1ec:	58455f45 	0x58455f45
 1f0:	63005449 	0x63005449
 1f4:	665f7275 	0x665f7275
 1f8:	5f636e75 	0x5f636e75
 1fc:	65646e69 	0x65646e69
 200:	746f0078 	jalx	1bc01e0 <ota_send_complete+0x1bc0114>
 204:	65725f61 	0x65725f61
 208:	72617473 	0x72617473
 20c:	6f745f74 	0x6f745f74
 210:	6770755f 	0x6770755f
 214:	65646172 	0x65646172
 218:	53455200 	beql	k0,a1,14a1c <ota_send_complete+0x14950>
 21c:	5f544c55 	0x5f544c55
 220:	4e49414d 	c3	0x49414d
 224:	5050415f 	beql	v0,s0,107a4 <ota_send_complete+0x106d8>
 228:	79632f00 	0x79632f00
 22c:	69726467 	0x69726467
 230:	642f6576 	0x642f6576
 234:	7463612f 	jalx	18d84bc <ota_send_complete+0x18d83f0>
 238:	736e6f69 	0x736e6f69
 23c:	6474732f 	0x6474732f
 240:	2f6b6473 	sltiu	t3,k1,25715
 244:	65646f63 	0x65646f63
 248:	3273752f 	andi	s3,s3,0x752f
 24c:	5f613238 	0x5f613238
 250:	6d373176 	0x6d373176
 254:	61632f70 	0x61632f70
 258:	612f6573 	0x612f6573
 25c:	6f632f70 	0x6f632f70
 260:	6e6f6d6d 	0x6e6f6d6d
 264:	6d6f632f 	0x6d6f632f
 268:	5f6e6f6d 	0x5f6e6f6d
 26c:	0061746f 	0x61746f
 270:	55534552 	bnel	t2,s3,117bc <ota_send_complete+0x116f0>
 274:	535f544c 	beql	k0,ra,153a8 <ota_send_complete+0x152dc>
 278:	4d5f5359 	0x4d5f5359
 27c:	525f4753 	beql	s2,ra,11fcc <ota_send_complete+0x11f00>
 280:	41454445 	0x41454445
 284:	59425f4c 	0x59425f4c
 288:	4d4f435f 	0x4d4f435f
 28c:	004e4f4d 	break	0x4e,0x13d
 290:	55534552 	bnel	t2,s3,117dc <ota_send_complete+0x11710>
 294:	505f544c 	beql	v0,ra,153c8 <ota_send_complete+0x152fc>
 298:	5f59414c 	0x5f59414c
 29c:	5f444453 	0x5f444453
 2a0:	31444946 	andi	a0,t2,0x4946
 2a4:	45520036 	0x45520036
 2a8:	544c5553 	bnel	v0,t4,157f8 <ota_send_complete+0x1572c>
 2ac:	414c505f 	0x414c505f
 2b0:	44535f59 	0x44535f59
 2b4:	49465f44 	0x49465f44
 2b8:	00373144 	0x373144
 2bc:	55534552 	bnel	t2,s3,11808 <ota_send_complete+0x1173c>
 2c0:	505f544c 	beql	v0,ra,153f4 <ota_send_complete+0x15328>
 2c4:	5f59414c 	0x5f59414c
 2c8:	5f444453 	0x5f444453
 2cc:	31444946 	andi	a0,t2,0x4946
 2d0:	45520038 	0x45520038
 2d4:	544c5553 	bnel	v0,t4,15824 <ota_send_complete+0x15758>
 2d8:	414c505f 	0x414c505f
 2dc:	44535f59 	0x44535f59
 2e0:	49465f44 	0x49465f44
 2e4:	00393144 	0x393144
 2e8:	5f707061 	0x5f707061
 2ec:	7473616c 	jalx	1cd85b0 <ota_send_complete+0x1cd84e4>
 2f0:	6174735f 	0x6174735f
 2f4:	745f6574 	jalx	17d95d0 <ota_send_complete+0x17d9504>
 2f8:	53455200 	beql	k0,a1,14afc <ota_send_complete+0x14a30>
 2fc:	5f544c55 	0x5f544c55
 300:	4f434552 	c3	0x1434552
 304:	555f4452 	bnel	t2,ra,11450 <ota_send_complete+0x11384>
 308:	59414c50 	0x59414c50
 30c:	53455200 	beql	k0,a1,14b10 <ota_send_complete+0x14a44>
 310:	5f544c55 	0x5f544c55
 314:	59414c50 	0x59414c50
 318:	4444535f 	0x4444535f
 31c:	4449465f 	0x4449465f
 320:	52003032 	beqzl	s0,c3ec <ota_send_complete+0xc320>
 324:	4c555345 	0x4c555345
 328:	4c505f54 	0x4c505f54
 32c:	535f5941 	beql	k0,ra,16834 <ota_send_complete+0x16768>
 330:	465f4444 	c1	0x5f4444
 334:	31324449 	andi	s2,t1,0x4449
 338:	53455200 	beql	k0,a1,14b3c <ota_send_complete+0x14a70>
 33c:	5f544c55 	0x5f544c55
 340:	59414c50 	0x59414c50
 344:	4444535f 	0x4444535f
 348:	4449465f 	0x4449465f
 34c:	52003332 	beqzl	s0,d018 <ota_send_complete+0xcf4c>
 350:	4c555345 	0x4c555345
 354:	4c505f54 	0x4c505f54
 358:	535f5941 	beql	k0,ra,16860 <ota_send_complete+0x16794>
 35c:	465f4444 	c1	0x5f4444
 360:	34324449 	ori	s2,at,0x4449
 364:	53455200 	beql	k0,a1,14b68 <ota_send_complete+0x14a9c>
 368:	5f544c55 	0x5f544c55
 36c:	59414c50 	0x59414c50
 370:	4444535f 	0x4444535f
 374:	4449465f 	0x4449465f
 378:	67003532 	0x67003532
 37c:	6e65735f 	0x6e65735f
 380:	78655f64 	0x78655f64
 384:	6d5f7469 	0x6d5f7469
 388:	745f6d6d 	jalx	17db5b4 <ota_send_complete+0x17db4e8>
 38c:	52007374 	beqzl	s0,1d160 <ota_send_complete+0x1d094>
 390:	4c555345 	0x4c555345
 394:	554e5f54 	bnel	t2,t6,180e8 <ota_send_complete+0x1801c>
 398:	6c004c4c 	0x6c004c4c
 39c:	20676e6f 	addi	a3,v1,28271
 3a0:	69736e75 	0x69736e75
 3a4:	64656e67 	0x64656e67
 3a8:	746e6920 	jalx	1b9a480 <ota_send_complete+0x1b9a3b4>
 3ac:	6e697200 	0x6e697200
 3b0:	6c615f67 	0x6c615f67
 3b4:	006d7261 	0x6d7261
 3b8:	5f61746f 	0x5f61746f
 3bc:	6e696b62 	0x6e696b62
 3c0:	745f6f66 	jalx	17dbd98 <ota_send_complete+0x17dbccc>
 3c4:	53455200 	beql	k0,a1,14bc8 <ota_send_complete+0x14afc>
 3c8:	5f544c55 	0x5f544c55
 3cc:	5f444948 	0x5f444948
 3d0:	444e4553 	0x444e4553
 3d4:	59454b5f 	0x59454b5f
 3d8:	4556455f 	0x4556455f
 3dc:	7200544e 	0x7200544e
 3e0:	6f6f6265 	0x6f6f6265
 3e4:	6c665f74 	0x6c665f74
 3e8:	45520067 	0x45520067
 3ec:	544c5553 	bnel	v0,t4,1593c <ota_send_complete+0x15870>
 3f0:	4253555f 	c0	0x53555f
 3f4:	554f535f 	bnel	t2,t7,15174 <ota_send_complete+0x150a8>
 3f8:	6300444e 	0x6300444e
 3fc:	656e6e6f 	0x656e6e6f
 400:	735f7463 	0x735f7463
 404:	65746174 	0x65746174
 408:	5f697500 	0x5f697500
 40c:	74617473 	jalx	185d1cc <ota_send_complete+0x185d100>
 410:	52007375 	beqzl	s0,1d1e8 <ota_send_complete+0x1d11c>
 414:	4c555345 	0x4c555345
 418:	41425f54 	0x41425f54
 41c:	535f4b43 	beql	k0,ra,1312c <ota_send_complete+0x13060>
 420:	454e4543 	0x454e4543
 424:	5349445f 	beql	k0,t1,115a4 <ota_send_complete+0x114d8>
 428:	43544150 	c0	0x1544150
 42c:	6f700048 	0x6f700048
 430:	5f726577 	0x5f726577
 434:	665f6e6f 	0x665f6e6f
 438:	0067616c 	0x67616c
 43c:	69736e75 	0x69736e75
 440:	64656e67 	0x64656e67
 444:	61686320 	0x61686320
 448:	45520072 	0x45520072
 44c:	544c5553 	bnel	v0,t4,1599c <ota_send_complete+0x158d0>
 450:	5050415f 	beql	v0,s0,109d0 <ota_send_complete+0x10904>
 454:	4955515f 	0x4955515f
 458:	6c660054 	0x6c660054
 45c:	0074616f 	0x74616f
 460:	55534552 	bnel	t2,s3,119ac <ota_send_complete+0x118e0>
 464:	425f544c 	c0	0x5f544c
 468:	5445554c 	bnel	v0,a1,1599c <ota_send_complete+0x158d0>
 46c:	48544545 	0x48544545
 470:	4c41435f 	0x4c41435f
 474:	6f6c004c 	0x6f6c004c
 478:	6c20676e 	0x6c20676e
 47c:	20676e6f 	addi	a3,v1,28271
 480:	00746e69 	0x746e69
 484:	6f6e5f67 	0x6f6e5f67
 488:	7075735f 	udi15	v1,s5,t6,0xd
 48c:	74726f70 	jalx	1c9bdc0 <ota_send_complete+0x1c9bcf4>
 490:	7374745f 	udi15	k1,s4,t6,0x11
 494:	616c665f 	0x616c665f
 498:	45520067 	0x45520067
 49c:	544c5553 	bnel	v0,t4,159ec <ota_send_complete+0x15920>
 4a0:	4149445f 	0x4149445f
 4a4:	5f474f4c 	0x5f474f4c
 4a8:	52544552 	beql	s2,s4,119f4 <ota_send_complete+0x11928>
 4ac:	74730059 	jalx	1cc0164 <ota_send_complete+0x1cc0098>
 4b0:	745f6275 	jalx	17d89d4 <ota_send_complete+0x17d8908>
 4b4:	736c6f6f 	0x736c6f6f
 4b8:	7079745f 	udi15	v1,t9,t6,0x11
 4bc:	45520065 	0x45520065
 4c0:	544c5553 	bnel	v0,t4,15a10 <ota_send_complete+0x15944>
 4c4:	53554d5f 	beql	k0,s5,13a44 <ota_send_complete+0x13978>
 4c8:	555f4349 	bnel	t2,ra,111f0 <ota_send_complete+0x11124>
 4cc:	59414c50 	0x59414c50
 4d0:	73616c00 	0x73616c00
 4d4:	69645f74 	0x69645f74
 4d8:	56006b73 	bnezl	s0,1b2a8 <ota_send_complete+0x1b1dc>
 4dc:	69737265 	0x69737265
 4e0:	6f006e6f 	0x6f006e6f
 4e4:	735f6174 	0x735f6174
 4e8:	5f646e65 	0x5f646e65
 4ec:	706d6f63 	0x706d6f63
 4f0:	6574656c 	0x6574656c
 4f4:	554e4700 	bnel	t2,t6,120f8 <ota_send_complete+0x1202c>
 4f8:	33204320 	andi	zero,t9,0x4320
 4fc:	342e342e 	ori	t6,at,0x342e
 500:	70696d20 	0x70696d20
 504:	65647373 	0x65647373
 508:	302e362d 	andi	t6,at,0x362d
 50c:	31302e36 	andi	s0,t1,0x2e36
 510:	3030322d 	andi	s0,at,0x322d
 514:	32343037 	andi	s4,s1,0x3037
 518:	74730030 	jalx	1cc00c0 <ota_send_complete+0x1cbfff4>
 51c:	705f6275 	0x705f6275
 520:	745f7968 	jalx	17de5a0 <ota_send_complete+0x17de4d4>
 524:	00657079 	0x657079
 528:	72616863 	0x72616863
 52c:	735f6567 	0x735f6567
 530:	65746174 	0x65746174
 534:	53455200 	beql	k0,a1,14d38 <ota_send_complete+0x14c6c>
 538:	5f544c55 	0x5f544c55
 53c:	4f434552 	c3	0x1434552
 540:	4c5f4452 	0x4c5f4452
 544:	49454e49 	0x49454e49
 548:	4f545f4e 	c3	0x1545f4e
 54c:	45520043 	0x45520043
 550:	544c5553 	bnel	v0,t4,15aa0 <ota_send_complete+0x159d4>
 554:	5043525f 	beql	v0,v1,14ed4 <ota_send_complete+0x14e08>
 558:	5f434c5f 	0x5f434c5f
 55c:	54494157 	bnel	v0,t1,10abc <ota_send_complete+0x109f0>
 560:	53455200 	beql	k0,a1,14d64 <ota_send_complete+0x14c98>
 564:	5f544c55 	0x5f544c55
 568:	4f434552 	c3	0x1434552
 56c:	4c5f4452 	0x4c5f4452
 570:	49454e49 	0x49454e49
 574:	4f545f4e 	c3	0x1545f4e
 578:	45520055 	0x45520055
 57c:	544c5553 	bnel	v0,t4,15acc <ota_send_complete+0x15a00>
 580:	4149445f 	0x4149445f
 584:	5f474f4c 	0x5f474f4c
 588:	5f425355 	0x5f425355
 58c:	4e554f53 	c3	0x554f53
 590:	744f0044 	jalx	13c0110 <ota_send_complete+0x13c0044>
 594:	63725f61 	0x63725f61
 598:	65725f70 	0x65725f70
 59c:	746f6f62 	jalx	1bdbd88 <ota_send_complete+0x1bdbcbc>
 5a0:	646d635f 	0x646d635f
 5a4:	6300632e 	0x6300632e
 5a8:	5f647261 	0x5f647261
 5ac:	74617473 	jalx	185d1cc <ota_send_complete+0x185d100>
 5b0:	77460065 	jalx	d180194 <ota_send_complete+0xd1800c8>
 5b4:	7265565f 	udi15	s3,a1,t2,0x19
 5b8:	6700745f 	0x6700745f
 5bc:	7572635f 	jalx	5c98d7c <ota_send_complete+0x5c98cb0>
 5c0:	6361705f 	0x6361705f
 5c4:	6f635f6b 	0x6f635f6b
 5c8:	00746e75 	0x746e75
 5cc:	74726170 	jalx	1c985c0 <ota_send_complete+0x1c984f4>
 5d0:	0064695f 	0x64695f
 5d4:	55534552 	bnel	t2,s3,11b20 <ota_send_complete+0x11a54>
 5d8:	445f544c 	0x445f544c
 5dc:	4f4c4149 	c3	0x14c4149
 5e0:	4e4f5f47 	c3	0x4f5f47
 5e4:	435f594c 	c0	0x15f594c
 5e8:	47524148 	c1	0x1524148
 5ec:	70680045 	0x70680045
 5f0:	6174735f 	0x6174735f
 5f4:	64006574 	0x64006574
 5f8:	6c6d776f 	0x6c6d776f
 5fc:	5f64616f 	0x5f64616f
 600:	74617473 	jalx	185d1cc <ota_send_complete+0x185d100>
 604:	75006575 	jalx	40195d4 <ota_send_complete+0x4019508>
 608:	74616470 	jalx	18591c0 <ota_send_complete+0x18590f4>
 60c:	74735f61 	jalx	1cd7d84 <ota_send_complete+0x1cd7cb8>
 610:	65757461 	0x65757461
 614:	53455200 	beql	k0,a1,14e18 <ota_send_complete+0x14d4c>
 618:	5f544c55 	0x5f544c55
 61c:	504f5453 	beql	v0,t7,1576c <ota_send_complete+0x156a0>
 620:	4145535f 	0x4145535f
 624:	00484352 	0x484352
 628:	68745f67 	0x68745f67
 62c:	615f7369 	0x615f7369
 630:	745f7070 	jalx	17dc1c0 <ota_send_complete+0x17dc0f4>
 634:	72656d69 	0x72656d69
 638:	6761745f 	0x6761745f
 63c:	70706100 	0x70706100
 640:	666e695f 	0x666e695f
 644:	74735f6f 	jalx	1cd7dbc <ota_send_complete+0x1cd7cf0>
 648:	5f657461 	0x5f657461
 64c:	5f6c6c61 	0x5f6c6c61
 650:	6f630074 	0x6f630074
 654:	656c706d 	0x656c706d
 658:	735f6574 	0x735f6574
 65c:	5f646e65 	0x5f646e65
 660:	006d756e 	0x6d756e
 664:	38544e49 	xori	s4,v0,0x4e49
 668:	45520055 	0x45520055
 66c:	544c5553 	bnel	v0,t4,15bbc <ota_send_complete+0x15af0>
 670:	544e455f 	bnel	v0,t6,11bf0 <ota_send_complete+0x11b24>
 674:	555f5245 	bnel	t2,ra,14f8c <ota_send_complete+0x14ec0>
 678:	41524750 	0x41524750
 67c:	52004544 	beqzl	s0,11b90 <ota_send_complete+0x11ac4>
 680:	4c555345 	0x4c555345
 684:	4f4e5f54 	c3	0x14e5f54
 688:	455f454e 	0x455f454e
 68c:	544e4556 	bnel	v0,t6,11be8 <ota_send_complete+0x11b1c>
 690:	635f6700 	0x635f6700
 694:	656e6e6f 	0x656e6e6f
 698:	725f7463 	0x725f7463
 69c:	00797065 	0x797065
 6a0:	55534552 	bnel	t2,s3,11bec <ota_send_complete+0x11b20>
 6a4:	505f544c 	beql	v0,ra,157d8 <ota_send_complete+0x1570c>
 6a8:	5f59414c 	0x5f59414c
 6ac:	5f444453 	0x5f444453
 6b0:	32444946 	andi	a0,s2,0x4946
 6b4:	45520032 	0x45520032
 6b8:	544c5553 	bnel	v0,t4,15c08 <ota_send_complete+0x15b3c>
 6bc:	53554d5f 	beql	k0,s5,13c3c <ota_send_complete+0x13b70>
 6c0:	505f4349 	beql	v0,ra,113e8 <ota_send_complete+0x1131c>
 6c4:	0059414c 	syscall	0x16505
 6c8:	65736572 	0x65736572
 6cc:	64657672 	0x64657672
 6d0:	635f6700 	0x635f6700
 6d4:	725f7275 	0x725f7275
 6d8:	735f6365 	0x735f6365
 6dc:	65746174 	0x65746174
 6e0:	74786500 	jalx	1e19400 <ota_send_complete+0x1e19334>
 6e4:	5f6e7265 	0x5f6e7265
 6e8:	5f746162 	0x5f746162
 6ec:	67006e69 	0x67006e69
 6f0:	7070615f 	udi15	v1,s0,t4,0x5
 6f4:	666e695f 	0x666e695f
 6f8:	74735f6f 	jalx	1cd7dbc <ota_send_complete+0x1cd7cf0>
 6fc:	5f657461 	0x5f657461
 700:	006c6c61 	0x6c6c61
 704:	55534552 	bnel	t2,s3,11c50 <ota_send_complete+0x11b84>
 708:	495f544c 	0x495f544c
 70c:	5f454c44 	0x5f454c44
 710:	45444f4d 	0x45444f4d
 714:	756f7300 	jalx	5bdcc00 <ota_send_complete+0x5bdcb34>
 718:	735f646e 	0x735f646e
 71c:	65746174 	0x65746174
 720:	53455200 	beql	k0,a1,14f24 <ota_send_complete+0x14e58>
 724:	5f544c55 	0x5f544c55
 728:	464e4f43 	c1	0x4e4f43
 72c:	435f4749 	c0	0x15f4749
 730:	47524148 	c1	0x1524148
 734:	55515f45 	bnel	t2,s1,1844c <ota_send_complete+0x18380>
 738:	6d005449 	0x6d005449
 73c:	63696761 	0x63696761
 740:	53455200 	beql	k0,a1,14f44 <ota_send_complete+0x14e78>
 744:	5f544c55 	0x5f544c55
 748:	45554c42 	0x45554c42
 74c:	54454554 	bnel	v0,a1,11ca0 <ota_send_complete+0x11bd4>
 750:	41435f48 	0x41435f48
 754:	425f4c4c 	c0	0x5f4c4c
 758:	474b4341 	c1	0x14b4341
 75c:	4e554f52 	c3	0x554f52
 760:	70610044 	0x70610044
 764:	65725f70 	0x65725f70
 768:	746c7573 	jalx	1b1d5cc <ota_send_complete+0x1b1d500>
 76c:	6200655f 	0x6200655f
 770:	6f705f74 	0x6f705f74
 774:	5f726577 	0x5f726577
 778:	63006e6f 	0x63006e6f
 77c:	705f7572 	0x705f7572
 780:	5f6b6361 	0x5f6b6361
 784:	6e756f63 	0x6e756f63
 788:	696c0074 	0x696c0074
 78c:	6e69656e 	0x6e69656e
 790:	6174735f 	0x6174735f
 794:	73006574 	0x73006574
 798:	656e6769 	0x656e6769
 79c:	68632064 	0x68632064
 7a0:	52007261 	beqzl	s0,1d128 <ota_send_complete+0x1d05c>
 7a4:	4c555345 	0x4c555345
 7a8:	45525f54 	0x45525f54
 7ac:	44524f43 	0x44524f43
 7b0:	4c50435f 	0x4c50435f
 7b4:	67005941 	0x67005941
 7b8:	7070615f 	udi15	v1,s0,t4,0x5
 7bc:	666e695f 	0x666e695f
 7c0:	74735f6f 	jalx	1cd7dbc <ota_send_complete+0x1cd7cf0>
 7c4:	00657461 	0x657461
 7c8:	55534552 	bnel	t2,s3,11d14 <ota_send_complete+0x11c48>
 7cc:	535f544c 	beql	k0,ra,15900 <ota_send_complete+0x15834>
 7d0:	45545359 	0x45545359
 7d4:	58455f4d 	0x58455f4d
 7d8:	535f5449 	beql	k0,ra,15900 <ota_send_complete+0x15834>
 7dc:	61720033 	0x61720033
 7e0:	6d6f646e 	0x6d6f646e
 7e4:	6770755f 	0x6770755f
 7e8:	79656b5f 	0x79656b5f
 7ec:	676e6500 	0x676e6500
 7f0:	5f656e69 	0x5f656e69
 7f4:	74617473 	jalx	185d1cc <ota_send_complete+0x185d100>
 7f8:	45520065 	0x45520065
 7fc:	544c5553 	bnel	v0,t4,15d4c <ota_send_complete+0x15c80>
 800:	544e455f 	bnel	v0,t6,11d80 <ota_send_complete+0x11cb4>
 804:	415f5245 	0x415f5245
 808:	4d52414c 	0x4d52414c
 80c:	53455200 	beql	k0,a1,15010 <ota_send_complete+0x14f44>
 810:	5f544c55 	0x5f544c55
 814:	4c414944 	0x4c414944
 818:	495f474f 	0x495f474f
 81c:	524f4e47 	beql	s2,t7,1413c <ota_send_complete+0x14070>
 820:	69660045 	0x69660045
 824:	61735f78 	0x61735f78
 828:	656c706d 	0x656c706d
 82c:	7461725f 	jalx	185c97c <ota_send_complete+0x185c8b0>
 830:	6c665f65 	0x6c665f65
 834:	52006761 	beqzl	s0,1a5bc <ota_send_complete+0x1a4f0>
 838:	4c555345 	0x4c555345
 83c:	52455f54 	beql	s2,a1,18590 <ota_send_complete+0x184c4>
 840:	00524f52 	0x524f52
 844:	55534552 	bnel	t2,s3,11d90 <ota_send_complete+0x11cc4>
 848:	505f544c 	beql	v0,ra,1597c <ota_send_complete+0x158b0>
 84c:	5245574f 	beql	s2,a1,1658c <ota_send_complete+0x164c0>
 850:	46464f5f 	c1	0x464f5f
 854:	53455200 	beql	k0,a1,15058 <ota_send_complete+0x14f8c>
 858:	5f544c55 	0x5f544c55
 85c:	4c414944 	0x4c414944
 860:	595f474f 	0x595f474f
 864:	52005345 	beqzl	s0,1557c <ota_send_complete+0x154b0>
 868:	4c555345 	0x4c555345
 86c:	49445f54 	0x49445f54
 870:	474f4c41 	c1	0x14f4c41
 874:	4f42415f 	c3	0x142415f
 878:	67005452 	0x67005452
 87c:	6e65735f 	0x6e65735f
 880:	72655f64 	0x72655f64
 884:	635f6f72 	0x635f6f72
 888:	746e756f 	jalx	1b9d5bc <ota_send_complete+0x1b9d4f0>
 88c:	6e6f6c00 	0x6e6f6c00
 890:	6e692067 	0x6e692067
 894:	45520074 	0x45520074
 898:	544c5553 	bnel	v0,t4,15de8 <ota_send_complete+0x15d1c>
 89c:	58454e5f 	0x58454e5f
 8a0:	55465f54 	bnel	t2,a2,185f4 <ota_send_complete+0x18528>
 8a4:	4954434e 	0x4954434e
 8a8:	52004e4f 	beqzl	s0,141e8 <ota_send_complete+0x1411c>
 8ac:	4c555345 	0x4c555345
 8b0:	554d5f54 	bnel	t2,t5,18604 <ota_send_complete+0x18538>
 8b4:	5f434953 	0x5f434953
 8b8:	414c5043 	0x414c5043
 8bc:	6e650059 	0x6e650059
 8c0:	72697571 	0x72697571
 8c4:	656d5f79 	0x656d5f79
 8c8:	67617373 	0x67617373
 8cc:	00745f65 	0x745f65
 8d0:	55534552 	bnel	t2,s3,11e1c <ota_send_complete+0x11d50>
 8d4:	525f544c 	beql	s2,ra,15a08 <ota_send_complete+0x1593c>
 8d8:	524f4345 	beql	s2,t7,115f0 <ota_send_complete+0x11524>
 8dc:	4d465f44 	0x4d465f44
 8e0:	434f545f 	c0	0x14f545f
 8e4:	725f6700 	0x725f6700
 8e8:	796c7065 	0x796c7065
 8ec:	696b625f 	0x696b625f
 8f0:	006f666e 	0x6f666e
 8f4:	55534552 	bnel	t2,s3,11e40 <ota_send_complete+0x11d74>
 8f8:	525f544c 	beql	s2,ra,15a2c <ota_send_complete+0x15960>
 8fc:	524f4345 	beql	s2,t7,11614 <ota_send_complete+0x11548>
 900:	4d465f44 	0x4d465f44
 904:	554f545f 	bnel	t2,t7,15a84 <ota_send_complete+0x159b8>
 908:	5f617000 	0x5f617000
 90c:	65646f6d 	0x65646f6d
 910:	75747300 	jalx	5d1cc00 <ota_send_complete+0x5d1cb34>
 914:	63705f62 	0x63705f62
 918:	6f6f745f 	0x6f6f745f
 91c:	745f736c 	jalx	17dcdb0 <ota_send_complete+0x17dcce4>
 920:	00657079 	0x657079
 924:	55534552 	bnel	t2,s3,11e70 <ota_send_complete+0x11da4>
 928:	435f544c 	c0	0x15f544c
 92c:	4f4d4d4f 	c3	0x14d4d4f
 930:	45525f4e 	0x45525f4e
 934:	56524553 	bnel	s2,s2,11e84 <ota_send_complete+0x11db8>
 938:	65720045 	0x65720045
 93c:	76726573 	jalx	9c995cc <ota_send_complete+0x9c99500>
 940:	69750064 	0x69750064
 944:	3631746e 	ori	s1,s1,0x746e
 948:	73616c00 	0x73616c00
 94c:	75665f74 	jalx	5997dd0 <ota_send_complete+0x5997d04>
 950:	695f636e 	0x695f636e
 954:	7865646e 	0x7865646e
 958:	53455200 	beql	k0,a1,1515c <ota_send_complete+0x15090>
 95c:	5f544c55 	0x5f544c55
 960:	45544e45 	0x45544e45
 964:	544f5f52 	bnel	v0,t7,186b0 <ota_send_complete+0x185e4>
 968:	4f535f41 	c3	0x1535f41
 96c:	545f474e 	bnel	v0,ra,126a8 <ota_send_complete+0x125dc>
 970:	00545345 	0x545345
 974:	72616863 	0x72616863
 978:	6e6f6300 	0x6e6f6300
 97c:	7463656e 	jalx	18d95b8 <ota_send_complete+0x18d94ec>
 980:	7065725f 	udi15	v1,a1,t6,0x9
 984:	745f796c 	jalx	17de5b0 <ota_send_complete+0x17de4e4>
 988:	62616300 	0x62616300
 98c:	735f656c 	0x735f656c
 990:	65746174 	0x65746174
 994:	6e697500 	0x6e697500
 998:	00323374 	teq	at,s2,0xcd
 99c:	6e655f70 	0x6e655f70
 9a0:	79677265 	0x79677265
 9a4:	6c61765f 	0x6c61765f
 9a8:	665f6575 	0x665f6575
 9ac:	73716572 	0x73716572
 9b0:	53455200 	beql	k0,a1,151b4 <ota_send_complete+0x150e8>
 9b4:	5f544c55 	0x5f544c55
 9b8:	45544e45 	0x45544e45
 9bc:	54535f52 	bnel	v0,s3,18708 <ota_send_complete+0x1863c>
 9c0:	445f4255 	0x445f4255
 9c4:	47554245 	c1	0x1554245
 9c8:	63617000 	0x63617000
 9cc:	6f635f6b 	0x6f635f6b
 9d0:	00746e75 	0x746e75
 9d4:	5f6b7061 	0x5f6b7061
 9d8:	74617473 	jalx	185d1cc <ota_send_complete+0x185d100>
 9dc:	52007375 	beqzl	s0,1d7b4 <ota_send_complete+0x1d6e8>
 9e0:	4c555345 	0x4c555345
 9e4:	47495f54 	c1	0x1495f54
 9e8:	45524f4e 	0x45524f4e
 9ec:	74756f00 	jalx	1d5bc00 <ota_send_complete+0x1d5bb34>
 9f0:	705f7265 	0x705f7265
 9f4:	6e6f5f61 	0x6e6f5f61
 9f8:	53455200 	beql	k0,a1,151fc <ota_send_complete+0x15130>
 9fc:	5f544c55 	0x5f544c55
 a00:	45544e45 	0x45544e45
 a04:	53555f52 	beql	k0,s5,18750 <ota_send_complete+0x18684>
 a08:	00315245 	0x315245
 a0c:	74756f61 	jalx	1d5bd84 <ota_send_complete+0x1d5bcb8>
 a10:	646f6d5f 	0x646f6d5f
 a14:	5f670065 	0x5f670065
 a18:	6c5f7068 	0x6c5f7068
 a1c:	735f6465 	0x735f6465
 a20:	65746174 	0x65746174
 a24:	75747300 	jalx	5d1cc00 <ota_send_complete+0x5d1cb34>
 a28:	6f6d5f62 	0x6f6d5f62
 a2c:	665f6564 	0x665f6564
 a30:	0067616c 	0x67616c
 a34:	55534552 	bnel	t2,s3,11f80 <ota_send_complete+0x11eb4>
 a38:	4c5f544c 	0x4c5f544c
 a3c:	50545341 	beql	v0,s4,15744 <ota_send_complete+0x15678>
 a40:	0059414c 	syscall	0x16505
 a44:	74746162 	jalx	1d18588 <ota_send_complete+0x1d184bc>
 a48:	5f797265 	0x5f797265
 a4c:	6f706572 	0x6f706572
 a50:	655f7472 	0x655f7472
 a54:	6c62616e 	0x6c62616e
 a58:	6f640065 	0x6f640065
 a5c:	656c6275 	0x656c6275
 a60:	53455200 	beql	k0,a1,15264 <ota_send_complete+0x15198>
 a64:	5f544c55 	0x5f544c55
 a68:	464e4f43 	c1	0x4e4f43
 a6c:	435f4749 	c0	0x15f4749
 a70:	47524148 	c1	0x1524148
 a74:	61640045 	0x61640045
 a78:	00316174 	teq	at,s1,0x185
 a7c:	61746164 	0x61746164
 a80:	61640032 	0x61640032
 a84:	67006174 	0x67006174
 a88:	6361625f 	0x6361625f
 a8c:	5f70756b 	0x5f70756b
 a90:	74726170 	jalx	1c985c0 <ota_send_complete+0x1c984f4>
 a94:	6464615f 	0x6464615f
 a98:	45520072 	0x45520072
 a9c:	544c5553 	bnel	v0,t4,15fec <ota_send_complete+0x15f20>
 aa0:	4149445f 	0x4149445f
 aa4:	5f474f4c 	0x5f474f4c
 aa8:	52004f4e 	beqzl	s0,147e4 <ota_send_complete+0x14718>
 aac:	4c555345 	0x4c555345
 ab0:	4f465f54 	c3	0x1465f54
 ab4:	5f454352 	0x5f454352
 ab8:	5f535454 	0x5f535454
 abc:	504f5453 	beql	v0,t7,15c0c <ota_send_complete+0x15b40>
 ac0:	74616400 	jalx	1859000 <ota_send_complete+0x1858f34>
 ac4:	656c5f61 	0x656c5f61
 ac8:	4552006e 	0x4552006e
 acc:	544c5553 	bnel	v0,t4,1601c <ota_send_complete+0x15f50>
 ad0:	4149445f 	0x4149445f
 ad4:	5f474f4c 	0x5f474f4c
 ad8:	74004b4f 	jalx	12d3c <ota_send_complete+0x12c70>
 adc:	635f7377 	0x635f7377
 ae0:	656e6e6f 	0x656e6e6f
 ae4:	735f7463 	0x735f7463
 ae8:	70006174 	0x70006174
 aec:	656e655f 	0x656e655f
 af0:	5f796772 	0x5f796772
 af4:	756c6176 	jalx	5b185d8 <ota_send_complete+0x5b1850c>
 af8:	61625f65 	0x61625f65
 afc:	0073646e 	0x73646e
 b00:	676e6f6c 	0x676e6f6c
 b04:	6e6f6c20 	0x6e6f6c20
 b08:	6e752067 	0x6e752067
 b0c:	6e676973 	0x6e676973
 b10:	69206465 	0x69206465
 b14:	6900746e 	0x6900746e
 b18:	72656e6e 	0x72656e6e
 b1c:	5f61705f 	0x5f61705f
 b20:	74696e69 	jalx	1a5b9a4 <ota_send_complete+0x1a5b8d8>
 b24:	52006465 	beqzl	s0,19cbc <ota_send_complete+0x19bf0>
 b28:	4c555345 	0x4c555345
 b2c:	53455f54 	beql	k0,a1,18880 <ota_send_complete+0x187b4>
 b30:	45525f44 	0x45525f44
 b34:	52415453 	beql	s2,at,15c84 <ota_send_complete+0x15bb8>
 b38:	45520054 	0x45520054
 b3c:	544c5553 	bnel	v0,t4,1608c <ota_send_complete+0x15fc0>
 b40:	544e455f 	bnel	v0,t6,120c0 <ota_send_complete+0x11ff4>
 b44:	4f5f5245 	c3	0x15f5245
 b48:	555f4154 	bnel	t2,ra,1109c <ota_send_complete+0x10fd0>
 b4c:	41524750 	0x41524750
 b50:	72004544 	0x72004544
 b54:	645f6365 	0x645f6365
 b58:	5f617461 	0x5f617461
 b5c:	74617473 	jalx	185d1cc <ota_send_complete+0x185d100>
 b60:	65720065 	0x65720065
 b64:	726f7473 	0x726f7473
 b68:	72625f65 	0x72625f65
 b6c:	706b6165 	0x706b6165
 b70:	746e696f 	jalx	1b9a5bc <ota_send_complete+0x1b9a4f0>
 b74:	5200745f 	beqzl	s0,1dcf4 <ota_send_complete+0x1dc28>
 b78:	4c555345 	0x4c555345
 b7c:	4e455f54 	c3	0x455f54
 b80:	5f524554 	0x5f524554
 b84:	54515341 	bnel	v0,s1,1588c <ota_send_complete+0x157c0>
 b88:	5f46485f 	0x5f46485f
 b8c:	54534554 	bnel	v0,s3,120e0 <ota_send_complete+0x12014>
 b90:	53455200 	beql	k0,a1,15394 <ota_send_complete+0x152c8>
 b94:	5f544c55 	0x5f544c55
 b98:	45544e45 	0x45544e45
 b9c:	494c5f52 	0x494c5f52
 ba0:	4e49454e 	c3	0x49454e
 ba4:	53455200 	beql	k0,a1,153a8 <ota_send_complete+0x152dc>
 ba8:	5f544c55 	0x5f544c55
 bac:	4c414944 	0x4c414944
 bb0:	435f474f 	c0	0x15f474f
 bb4:	45434e41 	0x45434e41
 bb8:	4552004c 	0x4552004c
 bbc:	544c5553 	bnel	v0,t4,1610c <ota_send_complete+0x16040>
 bc0:	4149445f 	0x4149445f
 bc4:	5f474f4c 	0x5f474f4c
 bc8:	434e4143 	c0	0x14e4143
 bcc:	415f4c45 	0x415f4c45
 bd0:	004f5455 	0x4f5455
 bd4:	5f707061 	0x5f707061
 bd8:	6f666e69 	0x6f666e69
 bdc:	6174735f 	0x6174735f
 be0:	745f6574 	jalx	17d95d0 <ota_send_complete+0x17d9504>
 be4:	53455200 	beql	k0,a1,153e8 <ota_send_complete+0x1531c>
 be8:	5f544c55 	0x5f544c55
 bec:	52414c41 	beql	s2,at,13cf4 <ota_send_complete+0x13c28>
 bf0:	4e535f4d 	c3	0x535f4d
 bf4:	455a4f4f 	0x455a4f4f
 bf8:	74617000 	jalx	185c000 <ota_send_complete+0x185bf34>
 bfc:	645f6863 	0x645f6863
 c00:	6c6e776f 	0x6c6e776f
 c04:	5f64616f 	0x5f64616f
 c08:	67616c66 	0x67616c66
 c0c:	65656e00 	0x65656e00
 c10:	70755f64 	0x70755f64
 c14:	65746164 	0x65746164
 c18:	616c705f 	0x616c705f
 c1c:	73696c79 	0x73696c79
 c20:	45520074 	0x45520074
 c24:	544c5553 	bnel	v0,t4,16174 <ota_send_complete+0x160a8>
 c28:	4e414d5f 	c3	0x414d5f
 c2c:	5f4c4155 	0x5f4c4155
 c30:	52414553 	beql	s2,at,12180 <ota_send_complete+0x120b4>
 c34:	445f4843 	0x445f4843
 c38:	004e574f 	0x4e574f
 c3c:	55534552 	bnel	t2,s3,12188 <ota_send_complete+0x120bc>
 c40:	535f544c 	beql	k0,ra,15d74 <ota_send_complete+0x15ca8>
 c44:	45545359 	0x45545359
 c48:	4e455f4d 	c3	0x455f4d
 c4c:	5f524554 	0x5f524554
 c50:	61003353 	0x61003353
 c54:	735f7070 	0x735f7070
 c58:	65746174 	0x65746174
 c5c:	656e6500 	0x656e6500
 c60:	5f796772 	0x5f796772
 c64:	69617661 	0x69617661
 c68:	6c62616c 	0x6c62616c
 c6c:	6c665f65 	0x6c665f65
 c70:	75006761 	jalx	4019d84 <ota_send_complete+0x4019cb8>
 c74:	74736f68 	jalx	1cdbda0 <ota_send_complete+0x1cdbcd4>
 c78:	6174735f 	0x6174735f
 c7c:	6c006574 	0x6c006574
 c80:	5f747361 	0x5f747361
 c84:	5f737973 	0x5f737973
 c88:	74617473 	jalx	185d1cc <ota_send_complete+0x185d100>
 c8c:	61007375 	0x61007375
 c90:	746f7475 	jalx	1bdd1d4 <ota_send_complete+0x1bdd108>
 c94:	5f747365 	0x5f747365
 c98:	65646f6d 	0x65646f6d
 c9c:	53455200 	beql	k0,a1,154a0 <ota_send_complete+0x153d4>
 ca0:	5f544c55 	0x5f544c55
 ca4:	4f545541 	c3	0x1545541
 ca8:	4145535f 	0x4145535f
 cac:	00484352 	0x484352
 cb0:	726f6873 	0x726f6873
 cb4:	6e692074 	0x6e692074
 cb8:	65720074 	0x65720074
 cbc:	76726573 	jalx	9c995cc <ota_send_complete+0x9c99500>
 cc0:	67003264 	0x67003264
 cc4:	7070615f 	udi15	v1,s0,t4,0x5
 cc8:	73616c5f 	udi15	k1,at,t5,0x11
 ccc:	74735f74 	jalx	1cd7dd0 <ota_send_complete+0x1cd7d04>
 cd0:	00657461 	0x657461
Disassembly of section .comment:

00000000 <.comment>:
   0:	43434700 	c0	0x1434700
   4:	4728203a 	c1	0x128203a
   8:	2029554e 	addi	t1,at,21838
   c:	2e342e33 	sltiu	s4,s1,11827
  10:	696d2034 	0x696d2034
  14:	64737370 	0x64737370
  18:	2e362d65 	sltiu	s6,s1,11621
  1c:	302e3630 	andi	t6,at,0x3630
  20:	30322d31 	andi	s2,at,0x2d31
  24:	34303730 	ori	s0,at,0x3730
  28:	Address 0x28 is out of bounds.


Ota_rcp_s_cmd_deal.o:     file format elf32-tradlittlemips

Disassembly of section .text:

00000000 <CheckSum16>:
   0:	6b00      	li	v1,0
   2:	2507      	beqz	a1,12 <CheckSum16+0x12>
   4:	acc0      	lhu	a2,0(a0)
   6:	45af      	addiu	a1,a1,-1
   8:	e3c9      	addu	v0,v1,a2
   a:	6762      	move	v1,v0
   c:	eb31      	zeh	v1
   e:	4482      	addiu	a0,a0,2
  10:	2df9      	bnez	a1,4 <CheckSum16+0x4>
  12:	e820      	jr	ra
  14:	6743      	move	v0,v1
	...

00000018 <ota_receive_connect_data>:
  18:	64f6      	save	48,ra,s0-s1
  1a:	ae40      	lhu	v0,0(a2)
  1c:	f440 b104 	lw	s1,460 <.L24+0x26e>
  20:	6706      	move	s0,a2
  22:	f200 6c00 	li	a0,512
  26:	6d20      	li	a1,32
  28:	6e00      	li	a2,0
  2a:	6f16      	li	a3,22
  2c:	e940      	jalr	s1
  2e:	d204      	sw	v0,16(sp)
  30:	4084      	addiu	a0,s0,4
  32:	d407      	sw	a0,28(sp)
  34:	f420 b514 	lw	a1,468 <.L24+0x276>
  38:	f420 b40c 	lw	a0,464 <.L24+0x272>
  3c:	f420 b304 	lw	v1,460 <.L24+0x26e>
  40:	d206      	sw	v0,24(sp)
  42:	6e14      	li	a2,20
  44:	eb40      	jalr	v1
  46:	6f12      	li	a3,18
  48:	2204      	beqz	v0,52 <ota_receive_connect_data+0x3a>
  4a:	f400 b51c 	lw	a1,464 <.L24+0x272>
  4e:	6e00      	li	a2,0
  50:	c5c2      	sb	a2,2(a1)
  52:	f400 b314 	lw	v1,464 <.L24+0x272>
  56:	f400 b718 	lw	a3,46c <.L24+0x27a>
  5a:	a322      	lbu	s1,2(v1)
  5c:	9f80      	lw	a0,0(a3)
  5e:	f080 2908 	bnez	s1,172 <ota_receive_connect_data+0x15a>
  62:	6a00      	li	v0,0
  64:	f020 c44b 	sb	v0,43(a0)
  68:	9307      	lw	v1,28(sp)
  6a:	cc38      	sh	s1,48(a0)
  6c:	cc34      	sh	s1,40(a0)
  6e:	a3f0      	lbu	a3,16(v1)
  70:	6e0a      	li	a2,10
  72:	efd8      	mult	a3,a2
  74:	9407      	lw	a0,28(sp)
  76:	ed12      	mflo	a1
  78:	4542      	addiu	v0,a1,2
  7a:	3546      	srl	a1,v0,1
  7c:	4d08      	addiu	a1,8
  7e:	1800 0000 	jal	0 <CheckSum16>
  82:	ed11      	zeb	a1
  84:	9404      	lw	a0,16(sp)
  86:	ea8e      	xor	v0,a0
  88:	2a69      	bnez	v0,15c <ota_receive_connect_data+0x144>
  8a:	9607      	lw	a2,28(sp)
  8c:	6c0a      	li	a0,10
  8e:	a6b0      	lbu	a1,16(a2)
  90:	4814      	addiu	s0,20
  92:	ed98      	mult	a1,a0
  94:	b3f3      	lw	v1,460 <.L24+0x26e>
  96:	ef12      	mflo	a3
  98:	b5f6      	lw	a1,470 <.L24+0x27e>
  9a:	47c2      	addiu	a2,a3,2
  9c:	6790      	move	a0,s0
  9e:	eb40      	jalr	v1
  a0:	6f13      	li	a3,19
  a2:	b2f5      	lw	v0,474 <.L24+0x282>
  a4:	6c10      	li	a0,16
  a6:	67b0      	move	a1,s0
  a8:	67d1      	move	a2,s1
  aa:	ea40      	jalr	v0
  ac:	6f06      	li	a3,6
  ae:	d205      	sw	v0,20(sp)
  b0:	2a09      	bnez	v0,c4 <ota_receive_connect_data+0xac>
  b2:	b7ef      	lw	a3,46c <.L24+0x27a>
  b4:	6a03      	li	v0,3
  b6:	9f60      	lw	v1,0(a3)
  b8:	0cb5      	la	a0,38c <.L24+0x19a>
  ba:	c340      	sb	v0,0(v1)
  bc:	1054      	b	166 <ota_receive_connect_data+0x14e>
  be:	b0ea      	lw	s0,464 <.L24+0x272>
  c0:	c0c9      	sb	a2,9(s0)
  c2:	1040      	b	144 <ota_receive_connect_data+0x12c>
  c4:	9505      	lw	a1,20(sp)
  c6:	6c0a      	li	a0,10
  c8:	a5e0      	lbu	a3,0(a1)
  ca:	b0e6      	lw	s0,460 <.L24+0x26e>
  cc:	ef98      	mult	a3,a0
  ce:	b5eb      	lw	a1,478 <.L24+0x286>
  d0:	ea12      	mflo	v0
  d2:	9405      	lw	a0,20(sp)
  d4:	42c2      	addiu	a2,v0,2
  d6:	e840      	jalr	s0
  d8:	6f13      	li	a3,19
  da:	b6e5      	lw	a2,46c <.L24+0x27a>
  dc:	b0e8      	lw	s0,47c <.L24+0x28a>
  de:	9e80      	lw	a0,0(a2)
  e0:	9507      	lw	a1,28(sp)
  e2:	4c20      	addiu	a0,32
  e4:	6e08      	li	a2,8
  e6:	e840      	jalr	s0
  e8:	67f1      	move	a3,s1
  ea:	b7e1      	lw	a3,46c <.L24+0x27a>
  ec:	6b02      	li	v1,2
  ee:	9fa0      	lw	a1,0(a3)
  f0:	b4dd      	lw	a0,464 <.L24+0x272>
  f2:	c560      	sb	v1,0(a1)
  f4:	9fa0      	lw	a1,0(a3)
  f6:	4c0c      	addiu	a0,12
  f8:	4d20      	addiu	a1,32
  fa:	6e08      	li	a2,8
  fc:	e840      	jalr	s0
  fe:	67f1      	move	a3,s1
 100:	b4d9      	lw	a0,464 <.L24+0x272>
 102:	9207      	lw	v0,28(sp)
 104:	cc22      	sh	s1,4(a0)
 106:	b5da      	lw	a1,46c <.L24+0x27a>
 108:	a2d3      	lbu	a2,19(v0)
 10a:	b0d7      	lw	s0,464 <.L24+0x272>
 10c:	9de0      	lw	a3,0(a1)
 10e:	c0c8      	sb	a2,8(s0)
 110:	6b00      	li	v1,0
 112:	6e01      	li	a2,1
 114:	c0c2      	sb	a2,2(s0)
 116:	f020 c772 	sb	v1,50(a3)
 11a:	9207      	lw	v0,28(sp)
 11c:	9d60      	lw	v1,0(a1)
 11e:	a213      	lbu	s0,19(v0)
 120:	b7d3      	lw	a3,46c <.L24+0x27a>
 122:	f020 c30a 	sb	s0,42(v1)
 126:	9405      	lw	a0,20(sp)
 128:	9f60      	lw	v1,0(a3)
 12a:	aca4      	lhu	a1,8(a0)
 12c:	cbb7      	sh	a1,46(v1)
 12e:	a480      	lbu	a0,0(a0)
 130:	67b1      	move	a1,s1
 132:	e983      	sltu	s1,a0
 134:	6007      	bteqz	144 <ota_receive_connect_data+0x12c>
 136:	f020 a30a 	lbu	s0,42(v1)
 13a:	5810      	sltiu	s0,16
 13c:	61c0      	btnez	be <ota_receive_connect_data+0xa6>
 13e:	45a1      	addiu	a1,a1,1
 140:	ed83      	sltu	a1,a0
 142:	61fd      	btnez	13e <ota_receive_connect_data+0x126>
 144:	b4c8      	lw	a0,464 <.L24+0x272>
 146:	b5c9      	lw	a1,468 <.L24+0x276>
 148:	b0c6      	lw	s0,460 <.L24+0x26e>
 14a:	6e14      	li	a2,20
 14c:	e840      	jalr	s0
 14e:	6f13      	li	a3,19
 150:	6d00      	li	a1,0
 152:	0c96      	la	a0,3a8 <.L24+0x1b6>
 154:	67c5      	move	a2,a1
 156:	e840      	jalr	s0
 158:	6f4b      	li	a3,75
 15a:	110f      	b	37a <.L24+0x188>
 15c:	b2c4      	lw	v0,46c <.L24+0x27a>
 15e:	6e01      	li	a2,1
 160:	9a60      	lw	v1,0(v0)
 162:	0c97      	la	a0,3bc <.L24+0x1ca>
 164:	c3c0      	sb	a2,0(v1)
 166:	b3bf      	lw	v1,460 <.L24+0x26e>
 168:	67b1      	move	a1,s1
 16a:	67d1      	move	a2,s1
 16c:	eb40      	jalr	v1
 16e:	6f4b      	li	a3,75
 170:	1104      	b	37a <.L24+0x188>
 172:	b1c3      	lw	s1,47c <.L24+0x28a>
 174:	9507      	lw	a1,28(sp)
 176:	4c20      	addiu	a0,32
 178:	6e08      	li	a2,8
 17a:	e940      	jalr	s1
 17c:	6f00      	li	a3,0
 17e:	b0bd      	lw	s0,470 <.L24+0x27e>
 180:	9406      	lw	a0,24(sp)
 182:	b3b8      	lw	v1,460 <.L24+0x26e>
 184:	67b0      	move	a1,s0
 186:	6e01      	li	a2,1
 188:	eb40      	jalr	v1
 18a:	6f12      	li	a3,18
 18c:	9406      	lw	a0,24(sp)
 18e:	6d0a      	li	a1,10
 190:	a4c0      	lbu	a2,0(a0)
 192:	b3b4      	lw	v1,460 <.L24+0x26e>
 194:	eeb8      	mult	a2,a1
 196:	67b0      	move	a1,s0
 198:	ef12      	mflo	a3
 19a:	47c2      	addiu	a2,a3,2
 19c:	eb40      	jalr	v1
 19e:	6f12      	li	a3,18
 1a0:	9406      	lw	a0,24(sp)
 1a2:	6e0a      	li	a2,10
 1a4:	a440      	lbu	v0,0(a0)
 1a6:	b3b7      	lw	v1,480 <.L24+0x28e>
 1a8:	ead8      	mult	v0,a2
 1aa:	9ba0      	lw	a1,0(v1)
 1ac:	ef12      	mflo	a3
 1ae:	4d24      	addiu	a1,36
 1b0:	47c2      	addiu	a2,a3,2
 1b2:	e940      	jalr	s1
 1b4:	6f02      	li	a3,2
 1b6:	b4ae      	lw	a0,46c <.L24+0x27a>
 1b8:	6722      	move	s1,v0
 1ba:	9c60      	lw	v1,0(a0)
 1bc:	220f      	beqz	v0,1dc <ota_receive_connect_data+0x1c4>
 1be:	6c04      	li	a0,4
 1c0:	c380      	sb	a0,0(v1)
 1c2:	6d00      	li	a1,0
 1c4:	b3a7      	lw	v1,460 <.L24+0x26e>
 1c6:	67c5      	move	a2,a1
 1c8:	0c83      	la	a0,3d4 <.L24+0x1e2>
 1ca:	eb40      	jalr	v1
 1cc:	6f4b      	li	a3,75
 1ce:	9406      	lw	a0,24(sp)
 1d0:	b3a4      	lw	v1,460 <.L24+0x26e>
 1d2:	6d20      	li	a1,32
 1d4:	6e00      	li	a2,0
 1d6:	eb40      	jalr	v1
 1d8:	6f17      	li	a3,23
 1da:	10d5      	b	386 <.L24+0x194>
 1dc:	a300      	lbu	s0,0(v1)
 1de:	7002      	cmpi	s0,2
 1e0:	615f      	btnez	2a0 <.L24+0xae>
 1e2:	9707      	lw	a3,28(sp)
 1e4:	f020 a34a 	lbu	v0,42(v1)
 1e8:	a78e      	lbu	a0,14(a3)
 1ea:	67c4      	move	a2,a0
 1ec:	ee11      	zeb	a2
 1ee:	eace      	xor	v0,a2
 1f0:	2a0f      	bnez	v0,210 <.L24+0x1e>

000001f2 <.L24>:
 1f2:	6d00      	li	a1,0
 1f4:	b09b      	lw	s0,460 <.L24+0x26e>
 1f6:	67c5      	move	a2,a1
 1f8:	0c7f      	la	a0,3f4 <.L24+0x202>
 1fa:	e840      	jalr	s0
 1fc:	6f4b      	li	a3,75
 1fe:	9406      	lw	a0,24(sp)
 200:	6d20      	li	a1,32
 202:	6e00      	li	a2,0
 204:	e840      	jalr	s0
 206:	6f17      	li	a3,23
 208:	10be      	b	386 <.L24+0x194>
 20a:	afa4      	lhu	a1,8(a3)
 20c:	cbb7      	sh	a1,46(v1)
 20e:	1035      	b	27a <.L24+0x88>
 210:	76ff      	cmpi	a2,255
 212:	60ef      	bteqz	1f2 <.L24>
 214:	b099      	lw	s0,478 <.L24+0x286>
 216:	f020 c38a 	sb	a0,42(v1)
 21a:	9406      	lw	a0,24(sp)
 21c:	b391      	lw	v1,460 <.L24+0x26e>
 21e:	67b0      	move	a1,s0
 220:	6e01      	li	a2,1
 222:	eb40      	jalr	v1
 224:	6f12      	li	a3,18
 226:	9406      	lw	a0,24(sp)
 228:	6d0a      	li	a1,10
 22a:	a4c0      	lbu	a2,0(a0)
 22c:	b38d      	lw	v1,460 <.L24+0x26e>
 22e:	eeb8      	mult	a2,a1
 230:	67b0      	move	a1,s0
 232:	e812      	mflo	s0
 234:	6f12      	li	a3,18
 236:	eb40      	jalr	v1
 238:	40c2      	addiu	a2,s0,2
 23a:	b78d      	lw	a3,46c <.L24+0x27a>
 23c:	b089      	lw	s0,460 <.L24+0x26e>
 23e:	9f40      	lw	v0,0(a3)
 240:	0c72      	la	a0,408 <.L24+0x216>
 242:	f020 a2aa 	lbu	a1,42(v0)
 246:	6e02      	li	a2,2
 248:	e840      	jalr	s0
 24a:	6f4b      	li	a3,75
 24c:	b488      	lw	a0,46c <.L24+0x27a>
 24e:	67b1      	move	a1,s1
 250:	9c60      	lw	v1,0(a0)
 252:	f020 c32b 	sb	s1,43(v1)
 256:	9606      	lw	a2,24(sp)
 258:	cb38      	sh	s1,48(v1)
 25a:	cb34      	sh	s1,40(v1)
 25c:	a680      	lbu	a0,0(a2)
 25e:	e983      	sltu	s1,a0
 260:	600c      	bteqz	27a <.L24+0x88>
 262:	b283      	lw	v0,46c <.L24+0x27a>
 264:	9706      	lw	a3,24(sp)
 266:	9a60      	lw	v1,0(v0)
 268:	f020 a3ca 	lbu	a2,42(v1)
 26c:	a703      	lbu	s0,3(a3)
 26e:	e8ce      	xor	s0,a2
 270:	20cc      	beqz	s0,20a <.L24+0x18>
 272:	45a1      	addiu	a1,a1,1
 274:	ed83      	sltu	a1,a0
 276:	4f0a      	addiu	a3,10
 278:	61f9      	btnez	26c <.L24+0x7a>
 27a:	b47b      	lw	a0,464 <.L24+0x272>
 27c:	b57b      	lw	a1,468 <.L24+0x276>
 27e:	b079      	lw	s0,460 <.L24+0x26e>
 280:	6e14      	li	a2,20
 282:	e840      	jalr	s0
 284:	6f13      	li	a3,19
 286:	b47a      	lw	a0,46c <.L24+0x27a>
 288:	6e02      	li	a2,2
 28a:	9ce0      	lw	a3,0(a0)
 28c:	0c65      	la	a0,420 <.L24+0x22e>
 28e:	afb7      	lhu	a1,46(a3)
 290:	e840      	jalr	s0
 292:	6f4b      	li	a3,75
 294:	1063      	b	35c <.L24+0x16a>
 296:	b676      	lw	a2,46c <.L24+0x27a>
 298:	afa4      	lhu	a1,8(a3)
 29a:	9e20      	lw	s1,0(a2)
 29c:	c9b7      	sh	a1,46(s1)
 29e:	1031      	b	302 <.L24+0x110>
 2a0:	b076      	lw	s0,478 <.L24+0x286>
 2a2:	b370      	lw	v1,460 <.L24+0x26e>
 2a4:	9406      	lw	a0,24(sp)
 2a6:	67b0      	move	a1,s0
 2a8:	6e01      	li	a2,1
 2aa:	eb40      	jalr	v1
 2ac:	6f12      	li	a3,18
 2ae:	9406      	lw	a0,24(sp)
 2b0:	6e0a      	li	a2,10
 2b2:	a4e0      	lbu	a3,0(a0)
 2b4:	67b0      	move	a1,s0
 2b6:	efd8      	mult	a3,a2
 2b8:	b06a      	lw	s0,460 <.L24+0x26e>
 2ba:	ea12      	mflo	v0
 2bc:	6f12      	li	a3,18
 2be:	e840      	jalr	s0
 2c0:	42c2      	addiu	a2,v0,2
 2c2:	b368      	lw	v1,460 <.L24+0x26e>
 2c4:	0c5c      	la	a0,434 <.L24+0x242>
 2c6:	67b1      	move	a1,s1
 2c8:	67d1      	move	a2,s1
 2ca:	eb40      	jalr	v1
 2cc:	6f4b      	li	a3,75
 2ce:	9407      	lw	a0,28(sp)
 2d0:	6f0a      	li	a3,10
 2d2:	a4b0      	lbu	a1,16(a0)
 2d4:	b363      	lw	v1,460 <.L24+0x26e>
 2d6:	edf8      	mult	a1,a3
 2d8:	9406      	lw	a0,24(sp)
 2da:	e812      	mflo	s0
 2dc:	6e03      	li	a2,3
 2de:	40a2      	addiu	a1,s0,2
 2e0:	eb40      	jalr	v1
 2e2:	6f4b      	li	a3,75
 2e4:	9206      	lw	v0,24(sp)
 2e6:	67b1      	move	a1,s1
 2e8:	a260      	lbu	v1,0(v0)
 2ea:	e963      	sltu	s1,v1
 2ec:	600a      	bteqz	302 <.L24+0x110>
 2ee:	b15e      	lw	s1,464 <.L24+0x272>
 2f0:	9706      	lw	a3,24(sp)
 2f2:	a188      	lbu	a0,8(s1)
 2f4:	a743      	lbu	v0,3(a3)
 2f6:	ea8e      	xor	v0,a0
 2f8:	22ce      	beqz	v0,296 <.L24+0xa4>
 2fa:	45a1      	addiu	a1,a1,1
 2fc:	ed63      	sltu	a1,v1
 2fe:	4f0a      	addiu	a3,10
 300:	61f9      	btnez	2f4 <.L24+0x102>
 302:	b05b      	lw	s0,46c <.L24+0x27a>
 304:	0c4f      	la	a0,440 <.L24+0x24e>
 306:	9820      	lw	s1,0(s0)
 308:	6e02      	li	a2,2
 30a:	a9b7      	lhu	a1,46(s1)
 30c:	b155      	lw	s1,460 <.L24+0x26e>
 30e:	e940      	jalr	s1
 310:	6f4b      	li	a3,75
 312:	98c0      	lw	a2,0(s0)
 314:	b354      	lw	v1,464 <.L24+0x272>
 316:	6d02      	li	a1,2
 318:	c6a0      	sb	a1,0(a2)
 31a:	abe2      	lhu	a3,4(v1)
 31c:	9880      	lw	a0,0(s0)
 31e:	ccf8      	sh	a3,48(a0)
 320:	a348      	lbu	v0,8(v1)
 322:	f020 c44a 	sb	v0,42(a0)
 326:	aba2      	lhu	a1,4(v1)
 328:	98c0      	lw	a2,0(s0)
 32a:	6c05      	li	a0,5
 32c:	ceb4      	sh	a1,40(a2)
 32e:	6d00      	li	a1,0
 330:	f020 c6ab 	sb	a1,43(a2)
 334:	98e0      	lw	a3,0(s0)
 336:	f020 c7b2 	sb	a1,50(a3)
 33a:	98c0      	lw	a2,0(s0)
 33c:	c690      	sb	a0,16(a2)
 33e:	98e0      	lw	a3,0(s0)
 340:	f020 a76a 	lbu	v1,42(a3)
 344:	af58      	lhu	v0,48(a3)
 346:	c778      	sb	v1,24(a3)
 348:	9880      	lw	a0,0(s0)
 34a:	cf49      	sh	v0,18(a3)
 34c:	c4b9      	sb	a1,25(a0)
 34e:	98c0      	lw	a2,0(s0)
 350:	0c2e      	la	a0,408 <.L24+0x216>
 352:	f020 a6aa 	lbu	a1,42(a2)
 356:	6f4b      	li	a3,75
 358:	e940      	jalr	s1
 35a:	6e02      	li	a2,2
 35c:	b442      	lw	a0,464 <.L24+0x272>
 35e:	a462      	lbu	v1,2(a0)
 360:	7302      	cmpi	v1,2
 362:	610b      	btnez	37a <.L24+0x188>
 364:	b542      	lw	a1,46c <.L24+0x27a>
 366:	6e02      	li	a2,2
 368:	9de0      	lw	a3,0(a1)
 36a:	b23e      	lw	v0,460 <.L24+0x26e>
 36c:	6d00      	li	a1,0
 36e:	f020 c7cb 	sb	a2,43(a3)
 372:	0c39      	la	a0,454 <.L24+0x262>
 374:	67c5      	move	a2,a1
 376:	ea40      	jalr	v0
 378:	6f4b      	li	a3,75
 37a:	9406      	lw	a0,24(sp)
 37c:	b239      	lw	v0,460 <.L24+0x26e>
 37e:	6d20      	li	a1,32
 380:	6e00      	li	a2,0
 382:	ea40      	jalr	v0
 384:	6f17      	li	a3,23
 386:	6a00      	li	v0,0
 388:	6476      	restore	48,ra,s0-s1
 38a:	e8a0      	jrc	ra
 38c:	6f63      	li	a3,99
 38e:	6e6e      	li	a2,110
 390:	6365      	addiu	sp,808
 392:	2074      	beqz	s0,47c <.L24+0x28a>
 394:	6166      	btnez	462 <.L24+0x270>
 396:	6c69      	li	a0,105
 398:	2820      	bnez	s0,3da <.L24+0x1e8>
 39a:	5746      	slti	a3,70
 39c:	7420      	cmpi	a0,32
 39e:	6f6f      	li	a3,111
 3a0:	4220      	addiu	s1,v0,0
 3a2:	6769      	move	v1,t1
 3a4:	2921      	bnez	s1,3e8 <.L24+0x1f6>
 3a6:	0000      	addiu	s0,sp,0
 3a8:	6f63      	li	a3,99
 3aa:	6e6e      	li	a2,110
 3ac:	6365      	addiu	sp,808
 3ae:	2074      	beqz	s0,498 <fw_download_new+0x14>
 3b0:	7573      	cmpi	a1,115
 3b2:	6363      	addiu	sp,792
 3b4:	7365      	cmpi	v1,101
 3b6:	2173      	beqz	s1,49e <fw_download_new+0x1a>
 3b8:	0021      	addiu	s0,sp,132
 3ba:	0000      	addiu	s0,sp,0
 3bc:	6f63      	li	a3,99
 3be:	6e6e      	li	a2,110
 3c0:	6365      	addiu	sp,808
 3c2:	2074      	beqz	s0,4ac <fw_download_new+0x28>
 3c4:	656d      	move	t3,a1
 3c6:	7373      	cmpi	v1,115
 3c8:	6761      	move	v1,at
 3ca:	2065      	beqz	s0,496 <fw_download_new+0x12>
 3cc:	5245      	slti	v0,69
 3ce:	4f52      	addiu	a3,82
 3d0:	2121      	beqz	s1,414 <.L24+0x222>
 3d2:	0000      	addiu	s0,sp,0
 3d4:	6f63      	li	a3,99
 3d6:	6e6e      	li	a2,110
 3d8:	6365      	addiu	sp,808
 3da:	2074      	beqz	s0,4c4 <fw_download_new+0x40>
 3dc:	656d      	move	t3,a1
 3de:	7373      	cmpi	v1,115
 3e0:	6761      	move	v1,at
 3e2:	2065      	beqz	s0,4ae <fw_download_new+0x2a>
 3e4:	7369      	cmpi	v1,105
 3e6:	6420      	restore	128,s0
 3e8:	6669      	0x6669
 3ea:	6566      	move	v1,a2
 3ec:	6572      	move	s3,v0
 3ee:	746e      	cmpi	a0,110
 3f0:	0000      	addiu	s0,sp,0
 3f2:	0000      	addiu	s0,sp,0
 3f4:	6863      	li	s0,99
 3f6:	6e61      	li	a2,97
 3f8:	6567      	move	v1,a3
 3fa:	6120      	btnez	43c <.L24+0x24a>
 3fc:	7070      	cmpi	s0,112
 3fe:	696c      	li	s1,108
 400:	6163      	btnez	4c8 <fw_download_new+0x44>
 402:	746e      	cmpi	a0,110
 404:	2121      	beqz	s1,448 <.L24+0x256>
 406:	0000      	addiu	s0,sp,0
 408:	5f67      	sltiu	a3,103
 40a:	7563      	cmpi	a1,99
 40c:	5f72      	sltiu	a3,114
 40e:	6572      	move	s3,v0
 410:	5f63      	sltiu	a3,99
 412:	7473      	cmpi	a0,115
 414:	7461      	cmpi	a0,97
 416:	2e65      	bnez	a2,4e2 <fw_download_new+0x5e>
 418:	6170      	btnez	4fa <fw_download_new+0x76>
 41a:	7472      	cmpi	a0,114
 41c:	695f      	li	s1,95
 41e:	0064      	addiu	s0,sp,400
 420:	5f67      	sltiu	a3,103
 422:	6162      	btnez	4e8 <fw_download_new+0x64>
 424:	6b63      	li	v1,99
 426:	7075      	cmpi	s0,117
 428:	705f      	cmpi	s0,95
 42a:	7261      	cmpi	v0,97
 42c:	5f74      	sltiu	a3,116
 42e:	6461      	restore	8,ra,s0
 430:	7264      	cmpi	v0,100
 432:	0000      	addiu	s0,sp,0
 434:	643c      	restore	96,s0-s1
 436:	7672      	cmpi	a2,114
 438:	6420      	restore	128,s0
 43a:	7461      	cmpi	a0,97
 43c:	3e61      	ld	v1,8(a2)
 43e:	0020      	addiu	s0,sp,128
 440:	5f67      	sltiu	a3,103
 442:	6162      	btnez	508 <fw_download_new+0x84>
 444:	6b63      	li	v1,99
 446:	7075      	cmpi	s0,117
 448:	705f      	cmpi	s0,95
 44a:	7261      	cmpi	v0,97
 44c:	5f74      	sltiu	a3,116
 44e:	6461      	restore	8,ra,s0
 450:	7264      	cmpi	v0,100
 452:	0020      	addiu	s0,sp,128
 454:	7073      	cmpi	s0,115
 456:	2165      	beqz	s1,522 <fw_download_new+0x9e>
 458:	2121      	beqz	s1,49c <fw_download_new+0x18>
 45a:	7e7e      	sd	v1,240(a2)
 45c:	7e7e      	sd	v1,240(a2)
	...
 46a:	0015      	addiu	s0,sp,84
 46c:	0000      	addiu	s0,sp,0
 46e:	0000      	addiu	s0,sp,0
 470:	0000      	addiu	s0,sp,0
 472:	0017      	addiu	s0,sp,92
 474:	0000      	addiu	s0,sp,0
 476:	0000      	addiu	s0,sp,0
 478:	0000      	addiu	s0,sp,0
 47a:	0016      	addiu	s0,sp,88
	...

00000484 <fw_download_new>:
 484:	64f6      	save	48,ra,s0-s1
 486:	6901      	li	s1,1
 488:	b422      	lw	a0,510 <fw_download_new+0x8c>
 48a:	d106      	sw	s1,24(sp)
 48c:	b122      	lw	s1,514 <fw_download_new+0x90>
 48e:	9c40      	lw	v0,0(a0)
 490:	9960      	lw	v1,0(s1)
 492:	4a14      	addiu	v0,20
 494:	abd7      	lhu	a2,46(v1)
 496:	d205      	sw	v0,20(sp)
 498:	679d      	move	a0,sp
 49a:	f020 a3ea 	lbu	a3,42(v1)
 49e:	ccce      	sh	a2,28(a0)
 4a0:	abb8      	lhu	a1,48(v1)
 4a2:	b21e      	lw	v0,518 <fw_download_new+0x94>
 4a4:	ccaf      	sh	a1,30(a0)
 4a6:	6d00      	li	a1,0
 4a8:	d704      	sw	a3,16(sp)
 4aa:	0404      	addiu	a0,sp,16
 4ac:	67c5      	move	a2,a1
 4ae:	ea40      	jalr	v0
 4b0:	6f04      	li	a3,4
 4b2:	ea4f      	not	v0
 4b4:	6b00      	li	v1,0
 4b6:	2229      	beqz	v0,50a <fw_download_new+0x86>
 4b8:	9940      	lw	v0,0(s1)
 4ba:	6c01      	li	a0,1
 4bc:	f020 c28b 	sb	a0,43(v0)
 4c0:	9960      	lw	v1,0(s1)
 4c2:	aab8      	lhu	a1,48(v0)
 4c4:	abf8      	lhu	a3,48(v1)
 4c6:	cab4      	sh	a1,40(v0)
 4c8:	47c1      	addiu	a2,a3,1
 4ca:	cbd8      	sh	a2,48(v1)
 4cc:	6766      	move	v1,a2
 4ce:	eb31      	zeh	v1
 4d0:	6d7f      	li	a1,127
 4d2:	ed6c      	and	a1,v1
 4d4:	2502      	beqz	a1,4da <fw_download_new+0x56>
 4d6:	7301      	cmpi	v1,1
 4d8:	6117      	btnez	508 <fw_download_new+0x84>
 4da:	b011      	lw	s0,51c <fw_download_new+0x98>
 4dc:	b511      	lw	a1,520 <fw_download_new+0x9c>
 4de:	b312      	lw	v1,524 <fw_download_new+0xa0>
 4e0:	6790      	move	a0,s0
 4e2:	6e14      	li	a2,20
 4e4:	eb40      	jalr	v1
 4e6:	6f12      	li	a3,18
 4e8:	9980      	lw	a0,0(s1)
 4ea:	6d01      	li	a1,1
 4ec:	c0a2      	sb	a1,2(s0)
 4ee:	f020 a44a 	lbu	v0,42(a0)
 4f2:	6e00      	li	a2,0
 4f4:	c048      	sb	v0,8(s0)
 4f6:	acf8      	lhu	a3,48(a0)
 4f8:	b50a      	lw	a1,520 <fw_download_new+0x9c>
 4fa:	b30b      	lw	v1,524 <fw_download_new+0xa0>
 4fc:	c8e2      	sh	a3,4(s0)
 4fe:	c0c3      	sb	a2,3(s0)
 500:	6790      	move	a0,s0
 502:	6e14      	li	a2,20
 504:	eb40      	jalr	v1
 506:	6f13      	li	a3,19
 508:	6b01      	li	v1,1
 50a:	6743      	move	v0,v1
 50c:	6476      	restore	48,ra,s0-s1
 50e:	e8a0      	jrc	ra
	...
 520:	0000      	addiu	s0,sp,0
 522:	0015      	addiu	s0,sp,84
 524:	0000      	addiu	s0,sp,0
	...

00000528 <ota_receive_data>:
 528:	64f4      	save	32,ra,s0-s1
 52a:	6dff      	li	a1,255
 52c:	ae00      	lhu	s0,0(a2)
 52e:	45a2      	addiu	a1,a1,2
 530:	4682      	addiu	a0,a2,2
 532:	1800 0000 	jal	0 <CheckSum16>
 536:	ae21      	lhu	s1,2(a2)
 538:	ea0e      	xor	v0,s0
 53a:	b015      	lw	s0,58c <ota_receive_data+0x64>
 53c:	98a0      	lw	a1,0(s0)
 53e:	2a14      	bnez	v0,568 <ota_receive_data+0x40>
 540:	adb8      	lhu	a1,48(a1)
 542:	6745      	move	v0,a1
 544:	ea2e      	xor	v0,s1
 546:	220c      	beqz	v0,560 <ota_receive_data+0x38>
 548:	b212      	lw	v0,590 <ota_receive_data+0x68>
 54a:	6e02      	li	a2,2
 54c:	0c0b      	la	a0,578 <ota_receive_data+0x50>
 54e:	ea40      	jalr	v0
 550:	6f4b      	li	a3,75
 552:	9860      	lw	v1,0(s0)
 554:	f020 a3f2 	lbu	a3,50(v1)
 558:	47c1      	addiu	a2,a3,1
 55a:	f020 c3d2 	sb	a2,50(v1)
 55e:	1009      	b	572 <ota_receive_data+0x4a>
 560:	1800 0000 	jal	0 <CheckSum16>
 564:	6500      	nop
 566:	1005      	b	572 <ota_receive_data+0x4a>
 568:	ad78      	lhu	v1,48(a1)
 56a:	6c00      	li	a0,0
 56c:	cd74      	sh	v1,40(a1)
 56e:	f020 c58b 	sb	a0,43(a1)
 572:	6a00      	li	v0,0
 574:	6474      	restore	32,ra,s0-s1
 576:	e8a0      	jrc	ra
 578:	6170      	btnez	65a <CheckSum32+0xc2>
 57a:	676b      	move	v1,t3
 57c:	6920      	li	s1,32
 57e:	2073      	beqz	s0,666 <CheckSum32+0xce>
 580:	6f6e      	li	a3,110
 582:	2074      	beqz	s0,66c <CheckSum32+0xd4>
 584:	656e      	move	t3,a2
 586:	6465      	restore	40,ra,s0
 588:	0021      	addiu	s0,sp,132
	...

00000594 <ota_receive_vram_data>:
 594:	e820      	jr	ra
 596:	6a00      	li	v0,0

00000598 <CheckSum32>:
 598:	6b00      	li	v1,0
 59a:	2505      	beqz	a1,5a6 <CheckSum32+0xe>
 59c:	9c40      	lw	v0,0(a0)
 59e:	45af      	addiu	a1,a1,-1
 5a0:	e34d      	addu	v1,v0
 5a2:	4484      	addiu	a0,a0,4
 5a4:	2dfb      	bnez	a1,59c <CheckSum32+0x4>
 5a6:	e820      	jr	ra
 5a8:	6743      	move	v0,v1
 5aa:	6500      	nop
Disassembly of section .reginfo:

00000000 <.reginfo>:
   0:	a10300ff 	sb	v1,255(t0)
	...
Disassembly of section .pdr:

00000000 <.pdr>:
	...
  18:	0000001d 	0x1d
  1c:	0000001f 	0x1f
  20:	00000000 	nop
  24:	80030000 	lb	v1,0(zero)
  28:	fffffffc 	sdc3	$31,-4(ra)
	...
  34:	00000030 	tge	zero,zero
  38:	0000001d 	0x1d
  3c:	0000001f 	0x1f
  40:	00000000 	nop
  44:	80030000 	lb	v1,0(zero)
  48:	fffffffc 	sdc3	$31,-4(ra)
	...
  54:	00000030 	tge	zero,zero
  58:	0000001d 	0x1d
  5c:	0000001f 	0x1f
  60:	00000000 	nop
  64:	80030000 	lb	v1,0(zero)
  68:	fffffffc 	sdc3	$31,-4(ra)
	...
  74:	00000020 	add	zero,zero,zero
  78:	0000001d 	0x1d
  7c:	0000001f 	0x1f
	...
  98:	0000001d 	0x1d
  9c:	0000001f 	0x1f
	...
  b8:	0000001d 	0x1d
  bc:	0000001f 	0x1f
Disassembly of section .debug_abbrev:

00000000 <.debug_abbrev>:
   0:	10011101 	beq	zero,at,4408 <CheckSum32+0x3e70>
   4:	11011206 	beq	t0,at,4820 <CheckSum32+0x4288>
   8:	130e2501 	beq	t8,t6,9410 <CheckSum32+0x8e78>
   c:	1b0e030b 	0x1b0e030b
  10:	0200000e 	0x200000e
  14:	0e030024 	jal	80c0090 <CheckSum32+0x80bfaf8>
  18:	0b3e0b0b 	j	cf82c2c <CheckSum32+0xcf82694>
  1c:	16030000 	bne	s0,v1,20 <.debug_abbrev+0x20>
  20:	3a0e0300 	xori	t6,s0,0x300
  24:	490b3b0b 	bc2tl	$cc2,ec54 <CheckSum32+0xe6bc>
  28:	04000013 	bltz	zero,78 <.debug_abbrev+0x78>
  2c:	08030024 	j	c0090 <CheckSum32+0xbfaf8>
  30:	0b3e0b0b 	j	cf82c2c <CheckSum32+0xcf82694>
  34:	0f050000 	jal	c140000 <CheckSum32+0xc13fa68>
  38:	000b0b00 	sll	at,t3,0xc
  3c:	000f0600 	sll	zero,t7,0x18
  40:	13490b0b 	beq	k0,t1,2c70 <CheckSum32+0x26d8>
  44:	13070000 	beq	t8,a3,48 <.debug_abbrev+0x48>
  48:	0b130101 	j	c4c0404 <CheckSum32+0xc4bfe6c>
  4c:	3b0b3a0b 	xori	t3,t8,0x3a0b
  50:	0800000b 	j	2c <.debug_abbrev+0x2c>
  54:	0e03000d 	jal	80c0034 <CheckSum32+0x80bfa9c>
  58:	0b3b0b3a 	j	cec2ce8 <CheckSum32+0xcec2750>
  5c:	0a381349 	j	8e04d24 <CheckSum32+0x8e0478c>
  60:	01090000 	0x1090000
  64:	49130101 	bc2tl	$cc4,46c <.L24+0x27a>
  68:	0a000013 	j	800004c <CheckSum32+0x7fffab4>
  6c:	13490021 	beq	k0,t1,f4 <.debug_abbrev+0xf4>
  70:	0d0b0000 	jal	42c0000 <CheckSum32+0x42bfa68>
  74:	3a080300 	xori	t0,s0,0x300
  78:	490b3b0b 	bc2tl	$cc2,eca8 <CheckSum32+0xe710>
  7c:	000a3813 	0xa3813
  80:	00210c00 	0x210c00
  84:	0b2f1349 	j	cbc4d24 <CheckSum32+0xcbc478c>
  88:	040d0000 	0x40d0000
  8c:	0b130101 	j	c4c0404 <CheckSum32+0xc4bfe6c>
  90:	3b0b3a0b 	xori	t3,t8,0x3a0b
  94:	0e00000b 	jal	800002c <CheckSum32+0x7fffa94>
  98:	0e030028 	jal	80c00a0 <CheckSum32+0x80bfb08>
  9c:	00000d1c 	0xd1c
  a0:	0300160f 	0x300160f
  a4:	3b0b3a0e 	xori	t3,t8,0x3a0e
  a8:	00134905 	0x134905
  ac:	01131000 	0x1131000
  b0:	0b0b1301 	j	c2c4c04 <CheckSum32+0xc2c466c>
  b4:	053b0b3a 	0x53b0b3a
  b8:	0d110000 	jal	4440000 <CheckSum32+0x443fa68>
  bc:	3a0e0300 	xori	t6,s0,0x300
  c0:	49053b0b 	bc2t	$cc1,ecf0 <CheckSum32+0xe758>
  c4:	000a3813 	0xa3813
  c8:	000d1200 	sll	v0,t5,0x8
  cc:	0b3a0e03 	j	ce8380c <CheckSum32+0xce83274>
  d0:	1349053b 	beq	k0,t1,15c0 <CheckSum32+0x1028>
  d4:	0b0d0b0b 	j	c342c2c <CheckSum32+0xc342694>
  d8:	0a380b0c 	j	8e02c30 <CheckSum32+0x8e02698>
  dc:	2e130000 	sltiu	s3,s0,0
  e0:	3f130101 	0x3f130101
  e4:	3a0e030c 	xori	t6,s0,0x30c
  e8:	27053b0b 	addiu	a1,t8,15115
  ec:	1113490c 	beq	t0,s3,12520 <CheckSum32+0x11f88>
  f0:	40011201 	0x40011201
  f4:	1400000a 	bnez	zero,120 <.debug_abbrev+0x120>
  f8:	08030005 	j	c0014 <CheckSum32+0xbfa7c>
  fc:	053b0b3a 	0x53b0b3a
 100:	0a021349 	j	8084d24 <CheckSum32+0x808478c>
 104:	34150000 	li	s5,0x0
 108:	3a0e0300 	xori	t6,s0,0x300
 10c:	49053b0b 	bc2t	$cc1,ed3c <CheckSum32+0xe7a4>
 110:	000a0213 	0xa0213
 114:	00341600 	0x341600
 118:	0b3a0803 	j	ce8200c <CheckSum32+0xce81a74>
 11c:	1349053b 	beq	k0,t1,160c <CheckSum32+0x1074>
 120:	00000a02 	srl	at,zero,0x8
 124:	01012e17 	0x1012e17
 128:	030c3f13 	0x30c3f13
 12c:	3b0b3a0e 	xori	t3,t8,0x3a0e
 130:	490c270b 	bc2f	$cc3,9d60 <CheckSum32+0x97c8>
 134:	12011113 	beq	s0,at,4584 <CheckSum32+0x3fec>
 138:	000a4001 	0xa4001
 13c:	00051800 	sll	v1,a1,0x0
 140:	0b3a0e03 	j	ce8380c <CheckSum32+0xce83274>
 144:	13490b3b 	beq	k0,t1,2e34 <CheckSum32+0x289c>
 148:	00000a02 	srl	at,zero,0x8
 14c:	03003419 	0x3003419
 150:	3b0b3a08 	xori	t3,t8,0x3a08
 154:	0213490b 	0x213490b
 158:	1a00000a 	blez	s0,184 <.debug_abbrev+0x184>
 15c:	08030034 	j	c00d0 <CheckSum32+0xbfb38>
 160:	0b3b0b3a 	j	cec2ce8 <CheckSum32+0xcec2750>
 164:	00001349 	0x1349
 168:	0300341b 	0x300341b
 16c:	3b0b3a0e 	xori	t3,t8,0x3a0e
 170:	0013490b 	0x13490b
 174:	00341c00 	0x341c00
 178:	0b3a0e03 	j	ce8380c <CheckSum32+0xce83274>
 17c:	13490b3b 	beq	k0,t1,2e6c <CheckSum32+0x28d4>
 180:	00000a02 	srl	at,zero,0x8
 184:	03000a1d 	0x3000a1d
 188:	3b0b3a0e 	xori	t3,t8,0x3a0e
 18c:	0001110b 	0x1110b
 190:	00341e00 	0x341e00
 194:	0b3a0e03 	j	ce8380c <CheckSum32+0xce83274>
 198:	1349053b 	beq	k0,t1,1688 <CheckSum32+0x10f0>
 19c:	341f0000 	li	ra,0x0
 1a0:	3a0e0300 	xori	t6,s0,0x300
 1a4:	490b3b0b 	bc2tl	$cc2,edd4 <CheckSum32+0xe83c>
 1a8:	3c0c3f13 	lui	t4,0x3f13
 1ac:	2000000c 	addi	zero,zero,12
 1b0:	0e030034 	jal	80c00d0 <CheckSum32+0x80bfb38>
 1b4:	053b0b3a 	0x53b0b3a
 1b8:	0c3f1349 	jal	fc4d24 <CheckSum32+0xfc478c>
 1bc:	00000c3c 	0xc3c
	...
Disassembly of section .debug_info:

00000000 <.debug_info>:
   0:	00000d2d 	0xd2d
   4:	00000002 	srl	zero,zero,0x0
   8:	01040000 	0x1040000
   c:	00000000 	nop
  10:	000005aa 	0x5aa
  14:	00000000 	nop
  18:	0000055d 	0x55d
  1c:	0009fc01 	0x9fc01
  20:	00027300 	sll	t6,v0,0xc
  24:	04aa0200 	tlti	a1,512
  28:	08010000 	j	40000 <CheckSum32+0x3fa68>
  2c:	00070803 	sra	at,a3,0x0
  30:	250f0800 	addiu	t7,t0,2048
  34:	02000000 	0x2000000
  38:	0000087a 	0x87a
  3c:	0c020601 	jal	81804 <CheckSum32+0x8126c>
  40:	02000001 	movf	zero,s0,$fcc0
  44:	0e670207 	jal	99c081c <CheckSum32+0x99c0284>
  48:	05020000 	bltzl	t0,4c <.debug_info+0x4c>
  4c:	0003fa02 	srl	ra,v1,0x8
  50:	02070400 	0x2070400
  54:	00000980 	sll	at,zero,0x6
  58:	d4020504 	ldc1	$f2,1284(zero)
  5c:	04000004 	bltz	zero,70 <.debug_info+0x70>
  60:	0b8a0204 	j	e280810 <CheckSum32+0xe280278>
  64:	04080000 	tgei	zero,0
  68:	000c4d02 	srl	t1,t4,0x14
  6c:	02070800 	0x2070800
  70:	000004f0 	tge	zero,zero,0x13
  74:	14020508 	bne	zero,v0,1498 <CheckSum32+0xf00>
  78:	04000000 	bltz	zero,7c <.debug_info+0x7c>
  7c:	022a0307 	0x22a0307
  80:	15020000 	bne	t0,v0,84 <.debug_info+0x84>
  84:	00000025 	move	zero,zero
  88:	000a4a03 	sra	t1,t2,0x8
  8c:	3e1d0200 	0x3e1d0200
  90:	03000000 	0x3000000
  94:	00000a9d 	0xa9d
  98:	00762502 	0x762502
  9c:	bc030000 	cache	0x3,0(zero)
  a0:	02000006 	srlv	zero,zero,s0
  a4:	0000a929 	0xa929
  a8:	6e690400 	0x6e690400
  ac:	05040074 	0x5040074
  b0:	000a7c02 	srl	t7,t2,0x10
  b4:	03060100 	0x3060100
  b8:	000003f3 	tltu	zero,zero,0xf
  bc:	003e6802 	ror	t5,s8,0x0
  c0:	62030000 	0x62030000
  c4:	02000004 	sllv	zero,zero,s0
  c8:	00007670 	tge	zero,zero,0x1d9
  cc:	03fa0200 	0x3fa0200
  d0:	07040000 	0x7040000
  d4:	04060405 	0x4060405
  d8:	0000007d 	0x7d
  dc:	00013907 	0x13907
  e0:	62050a00 	0x62050a00
  e4:	0001a308 	0x1a308
  e8:	7d5c0500 	0x7d5c0500
  ec:	02000000 	0x2000000
  f0:	4f080023 	c3	0x1080023
  f4:	05000006 	bltz	t0,110 <.debug_info+0x110>
  f8:	00007d5d 	0x7d5d
  fc:	01230200 	0x1230200
 100:	00011f08 	0x11f08
 104:	885e0500 	lwl	s8,1280(v0)
 108:	02000000 	0x2000000
 10c:	ba080223 	swr	t0,547(s0)
 110:	05000002 	bltz	t0,11c <.debug_info+0x11c>
 114:	0000885f 	0x885f
 118:	04230200 	bgezl	at,91c <.debug_info+0x91c>
 11c:	0004b808 	0x4b808
 120:	88600500 	lwl	zero,1280(v1)
 124:	02000000 	0x2000000
 128:	cd080623 	pref	0x8,1571(t0)
 12c:	0500000d 	bltz	t0,164 <.debug_info+0x164>
 130:	00008861 	0x8861
 134:	08230200 	j	8c0800 <CheckSum32+0x8c0268>
 138:	077e0300 	0x77e0300
 13c:	62050000 	0x62050000
 140:	000000dc 	0xdc
 144:	00017707 	0x17707
 148:	6a050200 	0x6a050200
 14c:	00013308 	0x13308
 150:	7d660500 	0x7d660500
 154:	02000000 	0x2000000
 158:	66080023 	0x66080023
 15c:	05000000 	bltz	t0,160 <.debug_info+0x160>
 160:	00007d68 	0x7d68
 164:	01230200 	0x1230200
 168:	0006fe08 	0x6fe08
 16c:	77690500 	jalx	da41400 <CheckSum32+0xda40e68>
 170:	02000001 	movf	zero,s0,$fcc0
 174:	09000223 	j	400088c <CheckSum32+0x40002f4>
 178:	00000186 	0x186
 17c:	00000139 	0x139
 180:	0000cd0a 	0xcd0a
 184:	b4030000 	0xb4030000
 188:	05000000 	bltz	t0,18c <.debug_info+0x18c>
 18c:	0001446a 	0x1446a
 190:	01c40700 	0x1c40700
 194:	05080000 	tgei	t0,0
 198:	49500b78 	0x49500b78
 19c:	75050044 	jalx	4140110 <CheckSum32+0x413fb78>
 1a0:	0000003e 	0x3e
 1a4:	0b002302 	j	c008c08 <CheckSum32+0xc008670>
 1a8:	00444956 	0x444956
 1ac:	003e7605 	0x3e7605
 1b0:	23020000 	addi	v0,t8,0
 1b4:	05550802 	0x5550802
 1b8:	77050000 	jalx	c140000 <CheckSum32+0xc13fa68>
 1bc:	000001c4 	0x1c4
 1c0:	00042302 	srl	a0,a0,0xc
 1c4:	0001d409 	0x1d409
 1c8:	0000b000 	sll	s6,zero,0x0
 1cc:	00cd0c00 	0xcd0c00
 1d0:	00030000 	sll	zero,v1,0x0
 1d4:	00061c03 	sra	v1,a2,0x10
 1d8:	91780500 	lbu	t8,1280(t3)
 1dc:	07000001 	bltz	t8,1e4 <.debug_info+0x1e4>
 1e0:	00000274 	teq	zero,zero,0x9
 1e4:	088f0514 	j	23c1450 <CheckSum32+0x23c0eb8>
 1e8:	0000080d 	break	0x0,0x20
 1ec:	00888405 	0x888405
 1f0:	23020000 	addi	v0,t8,0
 1f4:	068b0800 	tltiu	s4,2048
 1f8:	85050000 	lh	a1,0(t0)
 1fc:	0000007d 	0x7d
 200:	08022302 	j	88c08 <CheckSum32+0x88670>
 204:	0000069b 	0x69b
 208:	007d8605 	0x7d8605
 20c:	23020000 	addi	v0,t8,0
 210:	0ad10803 	j	b44200c <CheckSum32+0xb441a74>
 214:	87050000 	lh	a1,0(t8)
 218:	00000088 	0x88
 21c:	08042302 	j	108c08 <CheckSum32+0x108670>
 220:	000006ec 	0x6ec
 224:	00888805 	0x888805
 228:	23020000 	addi	v0,t8,0
 22c:	064f0806 	0x64f0806
 230:	89050000 	lwl	a1,0(t0)
 234:	0000007d 	0x7d
 238:	08082302 	j	208c08 <CheckSum32+0x208670>
 23c:	000001e1 	0x1e1
 240:	007d8a05 	0x7d8a05
 244:	23020000 	addi	v0,t8,0
 248:	04460809 	0x4460809
 24c:	8b050000 	lwl	a1,0(t8)
 250:	0000007d 	0x7d
 254:	080a2302 	j	288c08 <CheckSum32+0x288670>
 258:	0000079a 	0x79a
 25c:	02748c05 	0x2748c05
 260:	23020000 	addi	v0,t8,0
 264:	005b080b 	movn	at,v0,k1
 268:	8d050000 	lw	a1,0(t0)
 26c:	000001d4 	0x1d4
 270:	000c2302 	srl	a0,t4,0xc
 274:	00028409 	0x28409
 278:	00007d00 	sll	t7,zero,0x14
 27c:	00cd0c00 	0xcd0c00
 280:	00000000 	nop
 284:	000cb803 	sra	s7,t4,0x0
 288:	df8f0500 	ldc3	$15,1280(gp)
 28c:	07000001 	bltz	t8,294 <.debug_info+0x294>
 290:	000002de 	0x2de
 294:	08990510 	j	2641440 <CheckSum32+0x2640ea8>
 298:	0000064f 	0x64f
 29c:	00939405 	0x939405
 2a0:	23020000 	addi	v0,t8,0
 2a4:	05900800 	bltzal	t4,22a8 <CheckSum32+0x1d10>
 2a8:	95050000 	lhu	a1,0(t0)
 2ac:	000000d6 	0xd6
 2b0:	08042302 	j	108c08 <CheckSum32+0x108670>
 2b4:	00000c0e 	0xc0e
 2b8:	00939605 	0x939605
 2bc:	23020000 	addi	v0,t8,0
 2c0:	0d680808 	jal	5a02020 <CheckSum32+0x5a01a88>
 2c4:	97050000 	lhu	a1,0(t8)
 2c8:	00000088 	0x88
 2cc:	080c2302 	j	308c08 <CheckSum32+0x308670>
 2d0:	00000e34 	teq	zero,zero,0x38
 2d4:	00889805 	0x889805
 2d8:	23020000 	addi	v0,t8,0
 2dc:	0103000e 	0x103000e
 2e0:	0500000b 	bltz	t0,310 <.debug_info+0x310>
 2e4:	00028f99 	0x28f99
 2e8:	05080d00 	tgei	t0,3328
 2ec:	03020000 	0x3020000
 2f0:	03e70ee0 	0x3e70ee0
 2f4:	0e000000 	jal	8000000 <CheckSum32+0x7fffa68>
 2f8:	00000ae7 	0xae7
 2fc:	07350e01 	0x7350e01
 300:	0e020000 	jal	8080000 <CheckSum32+0x807fa68>
 304:	000005c2 	srl	zero,zero,0x17
 308:	0a2c0e03 	j	8b0380c <CheckSum32+0x8b03274>
 30c:	0e200000 	jal	8800000 <CheckSum32+0x87ffa68>
 310:	0000092a 	0x92a
 314:	810e0180 	lb	t6,384(t0)
 318:	81000004 	lb	zero,4(t0)
 31c:	02300e01 	0x2300e01
 320:	01820000 	0x1820000
 324:	0000920e 	0x920e
 328:	0e018300 	jal	8060c00 <CheckSum32+0x8060668>
 32c:	000002c8 	0x2c8
 330:	f80e0184 	sdc2	$14,388(zero)
 334:	8500000b 	lh	zero,11(t0)
 338:	0c870e01 	jal	21c3804 <CheckSum32+0x21c326c>
 33c:	01a10000 	0x1a10000
 340:	0001ce0e 	0x1ce0e
 344:	0e01ff00 	jal	807fc00 <CheckSum32+0x807f668>
 348:	000004c4 	0x4c4
 34c:	6c0e0280 	0x6c0e0280
 350:	81000007 	lb	zero,7(t0)
 354:	099e0e02 	j	6783808 <CheckSum32+0x6783270>
 358:	02820000 	0x2820000
 35c:	0005380e 	0x5380e
 360:	0e028300 	jal	80a0c00 <CheckSum32+0x80a0668>
 364:	00000cf1 	tgeu	zero,zero,0x33
 368:	2c0e0284 	sltiu	t6,zero,644
 36c:	85000000 	lh	zero,0(t0)
 370:	01690e02 	0x1690e02
 374:	02860000 	0x2860000
 378:	0004da0e 	0x4da0e
 37c:	0e028700 	jal	80a1c00 <CheckSum32+0x80a1668>
 380:	00000818 	0x818
 384:	510e0288 	beql	t0,t6,da8 <CheckSum32+0x810>
 388:	89000004 	lwl	zero,4(t0)
 38c:	09370e02 	j	4dc3808 <CheckSum32+0x4dc3270>
 390:	028a0000 	0x28a0000
 394:	0001bd0e 	0x1bd0e
 398:	0e028b00 	jal	80a2c00 <CheckSum32+0x80a2668>
 39c:	00000081 	0x81
 3a0:	860e028c 	lh	t6,652(s0)
 3a4:	8d000008 	lw	zero,8(t0)
 3a8:	03510e02 	0x3510e02
 3ac:	028e0000 	0x28e0000
 3b0:	0005a90e 	0x5a90e
 3b4:	0e028f00 	jal	80a3c00 <CheckSum32+0x80a3668>
 3b8:	000009c3 	sra	at,zero,0x7
 3bc:	d00e0290 	0xd00e0290
 3c0:	91000000 	lbu	zero,0(t0)
 3c4:	05d50e02 	0x5d50e02
 3c8:	02920000 	0x2920000
 3cc:	0009e70e 	0x9e70e
 3d0:	0e029300 	jal	80a4c00 <CheckSum32+0x80a4668>
 3d4:	000000e6 	0xe6
 3d8:	640e0294 	0x640e0294
 3dc:	9500000b 	lhu	zero,11(t0)
 3e0:	09890e02 	j	6243808 <CheckSum32+0x6243270>
 3e4:	02960000 	0x2960000
 3e8:	0007200e 	0x7200e
 3ec:	0e029700 	jal	80a5c00 <CheckSum32+0x80a5668>
 3f0:	00000263 	0x263
 3f4:	ed0e0298 	swc3	$14,664(t0)
 3f8:	99000008 	lwr	zero,8(t0)
 3fc:	0d540e02 	jal	5503808 <CheckSum32+0x5503270>
 400:	029a0000 	0x29a0000
 404:	00013e0e 	0x13e0e
 408:	0e029b00 	jal	80a6c00 <CheckSum32+0x80a6668>
 40c:	000001f2 	tlt	zero,zero,0x7
 410:	540e029c 	bnel	zero,t6,e84 <CheckSum32+0x8ec>
 414:	9d00000e 	0x9d00000e
 418:	01510e02 	0x1510e02
 41c:	029e0000 	0x29e0000
 420:	000db30e 	0xdb30e
 424:	0e029f00 	jal	80a7c00 <CheckSum32+0x80a7668>
 428:	000006a9 	0x6a9
 42c:	910e02a0 	lbu	t6,672(t0)
 430:	a100000b 	sb	zero,11(t0)
 434:	07f30e02 	bgezall	ra,3c40 <CheckSum32+0x36a8>
 438:	02a20000 	0x2a20000
 43c:	000ccd0e 	0xccd0e
 440:	0e02a300 	jal	80a8c00 <CheckSum32+0x80a8668>
 444:	00000b13 	0xb13
 448:	db0e02a4 	ldc2	$14,676(t8)
 44c:	a500000d 	sh	zero,13(t0)
 450:	08bb0e02 	j	2ec3808 <CheckSum32+0x2ec3270>
 454:	02a60000 	0x2a60000
 458:	000ab90e 	0xab90e
 45c:	0e02a700 	jal	80a9c00 <CheckSum32+0x80a9668>
 460:	00000c74 	teq	zero,zero,0x31
 464:	d60e02a8 	ldc1	$f14,680(s0)
 468:	a9000007 	swl	zero,7(t0)
 46c:	0a610e02 	j	9843808 <CheckSum32+0x9843270>
 470:	02aa0000 	0x2aa0000
 474:	0002e80e 	0x2e80e
 478:	0e02ab00 	jal	80aac00 <CheckSum32+0x80aa668>
 47c:	000002fe 	0x2fe
 480:	140e02ac 	bne	zero,t6,f34 <CheckSum32+0x99c>
 484:	ad000003 	sw	zero,3(t0)
 488:	032a0e02 	0x32a0e02
 48c:	02ae0000 	0x2ae0000
 490:	0003650e 	0x3650e
 494:	0e02af00 	jal	80abc00 <CheckSum32+0x80ab668>
 498:	0000037b 	0x37b
 49c:	560e02b0 	bnel	s0,t6,f60 <CheckSum32+0x9c8>
 4a0:	b1000007 	0xb1000007
 4a4:	03910e02 	0x3910e02
 4a8:	02b20000 	0x2b20000
 4ac:	0003a70e 	0x3a70e
 4b0:	0e02b300 	jal	80acc00 <CheckSum32+0x80ac668>
 4b4:	000003bd 	0x3bd
 4b8:	170e02b4 	bne	t8,t6,f8c <CheckSum32+0x9f4>
 4bc:	8000000c 	lb	zero,12(zero)
 4c0:	0d140e04 	jal	4503810 <CheckSum32+0x4503278>
 4c4:	04810000 	bgez	a0,4c8 <.debug_info+0x4c8>
 4c8:	00095a0e 	0x95a0e
 4cc:	0e048200 	jal	8120800 <CheckSum32+0x8120268>
 4d0:	00000514 	0x514
 4d4:	000e0483 	sra	zero,t6,0x12
 4d8:	84000009 	lh	zero,9(zero)
 4dc:	09480e04 	j	5203810 <CheckSum32+0x5203278>
 4e0:	04850000 	0x4850000
 4e4:	000bd60e 	0xbd60e
 4e8:	0e048600 	jal	8121800 <CheckSum32+0x8121268>
 4ec:	00000d29 	0xd29
 4f0:	f90e0487 	sdc2	$14,1159(t0)
 4f4:	88000005 	lwl	zero,5(zero)
 4f8:	06680e04 	tgei	s3,3588
 4fc:	04890000 	tgeiu	a0,0
 500:	00042c0e 	0x42c0e
 504:	00048a00 	sll	s1,a0,0x8
 508:	0008390f 	0x8390f
 50c:	017a0300 	0x17a0300
 510:	000002e9 	0x2e9
 514:	00052409 	0x52409
 518:	00007d00 	sll	t7,zero,0x14
 51c:	00cd0c00 	0xcd0c00
 520:	00050000 	sll	zero,a1,0x0
 524:	00064210 	0x64210
 528:	3d071c00 	0x3d071c00
 52c:	01971101 	0x1971101
 530:	18070000 	0x18070000
 534:	00007d01 	0x7d01
 538:	00230200 	0x230200
 53c:	0008e011 	0x8e011
 540:	011a0700 	0x11a0700
 544:	0000007d 	0x7d
 548:	11012302 	beq	t0,at,9154 <CheckSum32+0x8bbc>
 54c:	00000df2 	tlt	zero,zero,0x37
 550:	7d011c07 	0x7d011c07
 554:	02000000 	0x2000000
 558:	77110223 	jalx	c44088c <CheckSum32+0xc4402f4>
 55c:	07000004 	bltz	t8,570 <.debug_info+0x570>
 560:	007d011e 	0x7d011e
 564:	23020000 	addi	v0,t8,0
 568:	04fe1103 	0x4fe1103
 56c:	23070000 	addi	a3,t8,0
 570:	00007d01 	0x7d01
 574:	04230200 	bgezl	at,d78 <CheckSum32+0x7e0>
 578:	0003d311 	0x3d311
 57c:	01240700 	0x1240700
 580:	0000007d 	0x7d
 584:	12052302 	beq	s0,a1,9190 <CheckSum32+0x8bf8>
 588:	0000049c 	0x49c
 58c:	7d012507 	0x7d012507
 590:	01000000 	0x1000000
 594:	23020404 	addi	v0,t8,1028
 598:	0b551206 	j	d544818 <CheckSum32+0xd544280>
 59c:	26070000 	addiu	a3,s0,0
 5a0:	00007d01 	0x7d01
 5a4:	00040100 	sll	zero,a0,0x4
 5a8:	11062302 	beq	t0,a2,91b4 <CheckSum32+0x8c1c>
 5ac:	00000b46 	0xb46
 5b0:	7d012807 	0x7d012807
 5b4:	02000000 	0x2000000
 5b8:	e7110723 	swc1	$f17,1827(t8)
 5bc:	07000007 	bltz	t8,5dc <.debug_info+0x5dc>
 5c0:	007d012b 	0x7d012b
 5c4:	23020000 	addi	v0,t8,0
 5c8:	09151108 	j	4544420 <CheckSum32+0x4543e88>
 5cc:	2d070000 	sltiu	a3,t0,0
 5d0:	00007d01 	0x7d01
 5d4:	09230200 	j	48c0800 <CheckSum32+0x48c0268>
 5d8:	000b7411 	0xb7411
 5dc:	01300700 	0x1300700
 5e0:	0000007d 	0x7d
 5e4:	110a2302 	beq	t0,t2,91f0 <CheckSum32+0x8c58>
 5e8:	00000dfc 	0xdfc
 5ec:	2c013307 	sltiu	at,zero,13063
 5f0:	02000000 	0x2000000
 5f4:	ae110b23 	sw	s1,2851(s0)
 5f8:	07000001 	bltz	t8,600 <.debug_info+0x600>
 5fc:	06420134 	bltzl	s2,ad0 <.debug_info+0xad0>
 600:	23020000 	addi	v0,t8,0
 604:	0c38110c 	jal	e04430 <CheckSum32+0xe03e98>
 608:	37070000 	ori	a3,t8,0x0
 60c:	00064201 	0x64201
 610:	10230200 	beq	at,v1,e14 <CheckSum32+0x87c>
 614:	000aa411 	0xaa411
 618:	01380700 	0x1380700
 61c:	00000642 	srl	zero,zero,0x19
 620:	11142302 	beq	t0,s4,922c <CheckSum32+0x8c94>
 624:	00000a19 	0xa19
 628:	7d013b07 	0x7d013b07
 62c:	02000000 	0x2000000
 630:	82111823 	lb	s1,6179(s0)
 634:	07000005 	bltz	t8,64c <.debug_info+0x64c>
 638:	007d013c 	0x7d013c
 63c:	23020000 	addi	v0,t8,0
 640:	04060019 	0x4060019
 644:	00000045 	0x45
 648:	0006d70f 	0x6d70f
 64c:	013d0700 	0x13d0700
 650:	00000524 	0x524
 654:	0007db10 	0x7db10
 658:	77071800 	jalx	c1c6000 <CheckSum32+0xc1c5a68>
 65c:	00211101 	0x211101
 660:	46070000 	add.s	$f0,$f0,$f7
 664:	00002c01 	0x2c01
 668:	00230200 	0x230200
 66c:	000a1111 	0xa1111
 670:	01480700 	0x1480700
 674:	0000002c 	0x2c
 678:	11012302 	beq	t0,at,9284 <CheckSum32+0x8cec>
 67c:	00000b3c 	0xb3c
 680:	7d014a07 	0x7d014a07
 684:	02000000 	0x2000000
 688:	fc110223 	sdc3	$17,547(zero)
 68c:	07000000 	bltz	t8,690 <.debug_info+0x690>
 690:	007d014c 	syscall	0x1f405
 694:	23020000 	addi	v0,t8,0
 698:	06111103 	bgezal	s0,4aa8 <CheckSum32+0x4510>
 69c:	4e070000 	c3	0x70000
 6a0:	00007d01 	0x7d01
 6a4:	04230200 	bgezl	at,ea8 <CheckSum32+0x910>
 6a8:	000e1811 	0xe1811
 6ac:	01500700 	0x1500700
 6b0:	0000007d 	0x7d
 6b4:	11052302 	beq	t0,a1,92c0 <CheckSum32+0x8d28>
 6b8:	0000086d 	0x86d
 6bc:	7d015207 	0x7d015207
 6c0:	02000000 	0x2000000
 6c4:	91110623 	lbu	s1,1571(t0)
 6c8:	0700000a 	bltz	t8,6f4 <.debug_info+0x6f4>
 6cc:	007d0154 	0x7d0154
 6d0:	23020000 	addi	v0,t8,0
 6d4:	06821107 	bltzl	s4,4af4 <CheckSum32+0x455c>
 6d8:	56070000 	bnel	s0,a3,6dc <.debug_info+0x6dc>
 6dc:	00002c01 	0x2c01
 6e0:	08230200 	j	8c0800 <CheckSum32+0x8c0268>
 6e4:	00059c11 	0x59c11
 6e8:	01580700 	0x1580700
 6ec:	0000007d 	0x7d
 6f0:	11092302 	beq	t0,t1,92fc <CheckSum32+0x8d64>
 6f4:	00000129 	0x129
 6f8:	7d015a07 	0x7d015a07
 6fc:	02000000 	0x2000000
 700:	0c110a23 	jal	44288c <CheckSum32+0x4422f4>
 704:	07000004 	bltz	t8,718 <.debug_info+0x718>
 708:	002c015c 	0x2c015c
 70c:	23020000 	addi	v0,t8,0
 710:	0528120b 	tgei	t1,4619
 714:	5e070000 	0x5e070000
 718:	00007d01 	0x7d01
 71c:	01070100 	0x1070100
 720:	120c2302 	beq	s0,t4,932c <CheckSum32+0x8d94>
 724:	00000582 	srl	zero,zero,0x16
 728:	7d015f07 	0x7d015f07
 72c:	01000000 	0x1000000
 730:	23020001 	addi	v0,t8,1
 734:	0e46110c 	jal	9184430 <CheckSum32+0x9183e98>
 738:	61070000 	0x61070000
 73c:	00007d01 	0x7d01
 740:	0d230200 	jal	48c0800 <CheckSum32+0x48c0268>
 744:	000d7911 	0xd7911
 748:	01640700 	0x1640700
 74c:	0000002c 	0x2c
 750:	110e2302 	beq	t0,t6,935c <CheckSum32+0x8dc4>
 754:	00000852 	mflhxu	at
 758:	2c016607 	sltiu	at,zero,26119
 75c:	02000000 	0x2000000
 760:	64110f23 	0x64110f23
 764:	0700000c 	bltz	t8,798 <.debug_info+0x798>
 768:	002c0168 	0x2c0168
 76c:	23020000 	addi	v0,t8,0
 770:	0af51110 	j	bd44440 <CheckSum32+0xbd43ea8>
 774:	6a070000 	0x6a070000
 778:	00002c01 	0x2c01
 77c:	11230200 	beq	t1,v1,f80 <CheckSum32+0x9e8>
 780:	00024211 	0x24211
 784:	016c0700 	0x16c0700
 788:	0000007d 	0x7d
 78c:	11122302 	beq	t0,s2,9398 <CheckSum32+0x8e00>
 790:	0000018b 	0x18b
 794:	7d016e07 	0x7d016e07
 798:	02000000 	0x2000000
 79c:	dc111323 	ldc3	$17,4899(zero)
 7a0:	0700000a 	bltz	t8,7cc <.debug_info+0x7cc>
 7a4:	007d0170 	tge	v1,sp,0x5
 7a8:	23020000 	addi	v0,t8,0
 7ac:	00001114 	0x1114
 7b0:	72070000 	madd	s0,a3
 7b4:	00007d01 	0x7d01
 7b8:	15230200 	bne	t1,v1,fbc <CheckSum32+0xa24>
 7bc:	000d9e11 	0xd9e11
 7c0:	01740700 	0x1740700
 7c4:	0000007d 	0x7d
 7c8:	11162302 	beq	t0,s6,93d4 <CheckSum32+0x8e3c>
 7cc:	000007b3 	tltu	zero,zero,0x1e
 7d0:	7d017607 	0x7d017607
 7d4:	02000000 	0x2000000
 7d8:	0f001723 	jal	c005c8c <CheckSum32+0xc0056f4>
 7dc:	00000d43 	sra	at,zero,0x15
 7e0:	54017707 	bnel	zero,at,1e400 <CheckSum32+0x1de68>
 7e4:	10000006 	b	800 <.debug_info+0x800>
 7e8:	0000082d 	0x82d
 7ec:	01870704 	0x1870704
 7f0:	00054b11 	0x54b11
 7f4:	01800700 	0x1800700
 7f8:	0000007d 	0x7d
 7fc:	11002302 	beqz	t0,9408 <CheckSum32+0x8e70>
 800:	00000a51 	0xa51
 804:	7d018207 	0x7d018207
 808:	02000000 	0x2000000
 80c:	24110123 	li	s1,291
 810:	0700000e 	bltz	t8,84c <.debug_info+0x84c>
 814:	007d0184 	0x7d0184
 818:	23020000 	addi	v0,t8,0
 81c:	021b1102 	0x21b1102
 820:	86070000 	lh	a3,0(s0)
 824:	00007d01 	0x7d01
 828:	03230200 	0x3230200
 82c:	03400f00 	0x3400f00
 830:	87070000 	lh	a3,0(t8)
 834:	0007e701 	0x7e701
 838:	88040600 	lwl	a0,1536(zero)
 83c:	07000000 	bltz	t8,840 <.debug_info+0x840>
 840:	0000089c 	0x89c
 844:	0826040e 	j	981038 <CheckSum32+0x980aa0>
 848:	0000005b 	0x5b
 84c:	01d41f04 	0x1d41f04
 850:	23020000 	addi	v0,t8,0
 854:	085e0800 	j	1782000 <CheckSum32+0x1781a68>
 858:	20040000 	addi	a0,zero,0
 85c:	00000088 	0x88
 860:	08082302 	j	208c08 <CheckSum32+0x208670>
 864:	0000064f 	0x64f
 868:	007d2104 	0x7d2104
 86c:	23020000 	addi	v0,t8,0
 870:	0ca0080a 	jal	2802028 <CheckSum32+0x2801a90>
 874:	22040000 	addi	a0,s0,0
 878:	0000007d 	0x7d
 87c:	080b2302 	j	2c8c08 <CheckSum32+0x2c8670>
 880:	00000c28 	0xc28
 884:	007d2404 	0x7d2404
 888:	23020000 	addi	v0,t8,0
 88c:	079a080c 	0x79a080c
 890:	25040000 	addiu	a0,t0,0
 894:	0000007d 	0x7d
 898:	000d2302 	srl	a0,t5,0xc
 89c:	0009b103 	sra	s6,t1,0x4
 8a0:	3f260400 	0x3f260400
 8a4:	07000008 	bltz	t8,8c8 <.debug_info+0x8c8>
 8a8:	000008cc 	syscall	0x23
 8ac:	082c0410 	j	b01040 <CheckSum32+0xb00aa8>
 8b0:	00000469 	0x469
 8b4:	007d2a04 	0x7d2a04
 8b8:	23020000 	addi	v0,t8,0
 8bc:	079a0800 	0x79a0800
 8c0:	2b040000 	slti	a0,t8,0
 8c4:	000008cc 	syscall	0x23
 8c8:	00012302 	srl	a0,at,0xc
 8cc:	0008dc09 	0x8dc09
 8d0:	00007d00 	sll	t7,zero,0x14
 8d4:	00cd0c00 	0xcd0c00
 8d8:	000e0000 	sll	zero,t6,0x0
 8dc:	000a8103 	sra	s0,t2,0x4
 8e0:	a72c0400 	sh	t4,1024(t9)
 8e4:	07000008 	bltz	t8,908 <.debug_info+0x908>
 8e8:	00000952 	0x952
 8ec:	08380410 	j	e01040 <CheckSum32+0xe00aa8>
 8f0:	00000469 	0x469
 8f4:	007d3104 	0x7d3104
 8f8:	23020000 	addi	v0,t8,0
 8fc:	0a420800 	j	9082000 <CheckSum32+0x9081a68>
 900:	32040000 	andi	a0,s0,0x0
 904:	0000007d 	0x7d
 908:	08012302 	j	48c08 <CheckSum32+0x48670>
 90c:	0000085e 	0x85e
 910:	00883304 	0x883304
 914:	23020000 	addi	v0,t8,0
 918:	08d10802 	j	3442008 <CheckSum32+0x3441a70>
 91c:	34040000 	li	a0,0x0
 920:	00000093 	0x93
 924:	08042302 	j	108c08 <CheckSum32+0x108670>
 928:	0000064f 	0x64f
 92c:	007d3504 	0x7d3504
 930:	23020000 	addi	v0,t8,0
 934:	0ca00808 	jal	2802020 <CheckSum32+0x2801a88>
 938:	36040000 	ori	a0,s0,0x0
 93c:	0000007d 	0x7d
 940:	08092302 	j	248c08 <CheckSum32+0x248670>
 944:	00000e71 	tgeu	zero,zero,0x39
 948:	05143704 	0x5143704
 94c:	23020000 	addi	v0,t8,0
 950:	1703000a 	bne	t8,v1,97c <.debug_info+0x97c>
 954:	04000004 	bltz	zero,968 <.debug_info+0x968>
 958:	0008e738 	0x8e738
 95c:	09ba0700 	j	6e81c00 <CheckSum32+0x6e81668>
 960:	04140000 	0x4140000
 964:	005b0843 	0x5b0843
 968:	3d040000 	0x3d040000
 96c:	000001d4 	0x1d4
 970:	08002302 	j	8c08 <CheckSum32+0x8670>
 974:	00000d05 	0xd05
 978:	00933e04 	0x933e04
 97c:	23020000 	addi	v0,t8,0
 980:	06ec0808 	teqi	s7,2056
 984:	3f040000 	0x3f040000
 988:	00000088 	0x88
 98c:	080c2302 	j	308c08 <CheckSum32+0x308670>
 990:	0000064f 	0x64f
 994:	007d4004 	sllv	t0,sp,v1
 998:	23020000 	addi	v0,t8,0
 99c:	079a080e 	0x79a080e
 9a0:	41040000 	0x41040000
 9a4:	00000274 	teq	zero,zero,0x9
 9a8:	080f2302 	j	3c8c08 <CheckSum32+0x3c8670>
 9ac:	00000180 	sll	zero,zero,0x6
 9b0:	01864204 	0x1864204
 9b4:	23020000 	addi	v0,t8,0
 9b8:	0e030010 	jal	80c0040 <CheckSum32+0x80bfaa8>
 9bc:	04000007 	bltz	zero,9dc <.debug_info+0x9dc>
 9c0:	00095d43 	sra	t3,t1,0x15
 9c4:	0a220700 	j	8881c00 <CheckSum32+0x8881668>
 9c8:	04340000 	0x4340000
 9cc:	07470861 	0x7470861
 9d0:	5b040000 	0x5b040000
 9d4:	000008dc 	0x8dc
 9d8:	08002302 	j	8c08 <CheckSum32+0x8670>
 9dc:	000009d8 	0x9d8
 9e0:	09525c04 	j	5497010 <CheckSum32+0x5496a78>
 9e4:	23020000 	addi	v0,t8,0
 9e8:	07a30810 	bgezl	sp,2a2c <CheckSum32+0x2494>
 9ec:	5d040000 	0x5d040000
 9f0:	0000089c 	0x89c
 9f4:	08202302 	j	808c08 <CheckSum32+0x808670>
 9f8:	00000bc3 	sra	at,zero,0xf
 9fc:	00885e04 	0x885e04
 a00:	23020000 	addi	v0,t8,0
 a04:	063e082e 	0x63e082e
 a08:	5f040000 	0x5f040000
 a0c:	00000088 	0x88
 a10:	08302302 	j	c08c08 <CheckSum32+0xc08670>
 a14:	0000096e 	0x96e
 a18:	007d6004 	sllv	t4,sp,v1
 a1c:	23020000 	addi	v0,t8,0
 a20:	6e030032 	0x6e030032
 a24:	04000000 	bltz	zero,a28 <.debug_info+0xa28>
 a28:	0009c561 	0x9c561
 a2c:	0a821300 	j	a084c00 <CheckSum32+0xa084668>
 a30:	8f010000 	lw	at,0(t8)
 a34:	01000007 	srav	zero,zero,t0
 a38:	b701015e 	0xb701015e
 a3c:	00000000 	nop
 a40:	18000000 	blez	zero,a44 <.debug_info+0xa44>
 a44:	01000000 	0x1000000
 a48:	7562146d 	jalx	58851b4 <CheckSum32+0x5884c1c>
 a4c:	5d010066 	0x5d010066
 a50:	000a8201 	0xa8201
 a54:	14680100 	bne	v1,t0,e58 <CheckSum32+0x8c0>
 a58:	006e656c 	0x6e656c
 a5c:	c2015d01 	ll	at,23809(s0)
 a60:	01000000 	0x1000000
 a64:	0e121555 	jal	8485554 <CheckSum32+0x8484fbc>
 a68:	5f010000 	0x5f010000
 a6c:	0000c201 	0xc201
 a70:	16550100 	bne	s2,s5,e74 <CheckSum32+0x8dc>
 a74:	006d7573 	tltu	v1,t5,0x1d5
 a78:	b7016001 	0xb7016001
 a7c:	01000000 	0x1000000
 a80:	04060053 	0x4060053
 a84:	000000b7 	0xb7
 a88:	000b5c17 	0xb5c17
 a8c:	06250100 	0x6250100
 a90:	0e010000 	jal	8040000 <CheckSum32+0x803fa68>
 a94:	00050801 	movt	at,zero,$fcc1
 a98:	00000000 	nop
 a9c:	00038c00 	sll	s1,v1,0x10
 aa0:	186d0100 	0x186d0100
 aa4:	00000bb2 	tlt	zero,zero,0x2e
 aa8:	00930d01 	0x930d01
 aac:	54010000 	bnel	zero,at,ab0 <.debug_info+0xab0>
 ab0:	000bb818 	0xbb818
 ab4:	930d0100 	lbu	t5,256(t8)
 ab8:	01000000 	0x1000000
 abc:	0bbe1855 	j	ef86154 <CheckSum32+0xef85bbc>
 ac0:	0d010000 	jal	4040000 <CheckSum32+0x403fa68>
 ac4:	000000d4 	0xd4
 ac8:	0e186001 	jal	8618004 <CheckSum32+0x8617a6c>
 acc:	0100000c 	syscall	0x40000
 ad0:	0000880d 	break	0x0,0x220
 ad4:	19570100 	0x19570100
 ad8:	0f010069 	jal	c0401a4 <CheckSum32+0xc03fc0c>
 adc:	00000093 	0x93
 ae0:	621a5501 	0x621a5501
 ae4:	01006675 	0x1006675
 ae8:	00083910 	0x83910
 aec:	08131b00 	j	4c6c00 <CheckSum32+0x4c6668>
 af0:	11010000 	beq	t0,at,af4 <.debug_info+0xaf4>
 af4:	000000d6 	0xd6
 af8:	000caf1c 	0xcaf1c
 afc:	88120100 	lwl	s2,256(zero)
 b00:	02000000 	0x2000000
 b04:	e71b1091 	swc1	$f27,4241(t8)
 b08:	0100000c 	syscall	0x40000
 b0c:	00007d13 	0x7d13
 b10:	65721a00 	0x65721a00
 b14:	14010074 	bne	zero,at,ce8 <.debug_info+0xce8>
 b18:	000000a9 	0xa9
 b1c:	000ba61b 	0xba61b
 b20:	5c150100 	0x5c150100
 b24:	1c00000b 	bgtz	zero,b54 <.debug_info+0xb54>
 b28:	00000210 	0x210
 b2c:	0b621601 	j	d885804 <CheckSum32+0xd88526c>
 b30:	60010000 	0x60010000
 b34:	00004c1c 	0x4c1c
 b38:	62170100 	0x62170100
 b3c:	0200000b 	movn	zero,s0,zero
 b40:	8d1c1491 	lw	gp,5265(t0)
 b44:	0100000d 	break	0x100
 b48:	0000d618 	0xd618
 b4c:	18910200 	0x18910200
 b50:	0005ee1d 	0x5ee1d
 b54:	008a0100 	0x8a0100
 b58:	00000000 	nop
 b5c:	09ba0406 	j	6e81018 <CheckSum32+0x6e80a80>
 b60:	04060000 	0x4060000
 b64:	00000186 	0x186
 b68:	000ba013 	0xba013
 b6c:	08ab0100 	j	2ac0400 <CheckSum32+0x2abfe68>
 b70:	07010000 	bgez	t8,b74 <.debug_info+0xb74>
 b74:	00930101 	0x930101
 b78:	00000000 	nop
 b7c:	05100000 	bltzal	t0,b80 <.debug_info+0xb80>
 b80:	6d010000 	0x6d010000
 b84:	0004241e 	0x4241e
 b88:	01080100 	0x1080100
 b8c:	0000009e 	0x9e
 b90:	00084615 	0x84615
 b94:	01090100 	0x1090100
 b98:	000002de 	0x2de
 b9c:	00109102 	srl	s2,s0,0x4
 ba0:	000c2017 	0xc2017
 ba4:	0be70100 	j	f9c0400 <CheckSum32+0xf9bfe68>
 ba8:	d4010000 	ldc1	$f1,0(zero)
 bac:	00050801 	movt	at,zero,$fcc1
 bb0:	00000000 	nop
 bb4:	00057800 	sll	t7,a1,0x0
 bb8:	186d0100 	0x186d0100
 bbc:	00000bb2 	tlt	zero,zero,0x2e
 bc0:	0093d301 	0x93d301
 bc4:	54010000 	bnel	zero,at,bc8 <.debug_info+0xbc8>
 bc8:	000bb818 	0xbb818
 bcc:	93d30100 	lbu	s3,256(s8)
 bd0:	01000000 	0x1000000
 bd4:	0bbe1855 	j	ef86154 <CheckSum32+0xef85bbc>
 bd8:	d3010000 	0xd3010000
 bdc:	000000d4 	0xd4
 be0:	0e185401 	jal	8615004 <CheckSum32+0x8614a6c>
 be4:	0100000c 	syscall	0x40000
 be8:	000088d3 	0x88d3
 bec:	1a570100 	0x1a570100
 bf0:	00667562 	0x667562
 bf4:	0839d501 	j	e75404 <CheckSum32+0xe74e6c>
 bf8:	af1c0000 	sw	gp,0(t8)
 bfc:	0100000c 	syscall	0x40000
 c00:	000088d6 	0x88d6
 c04:	1c600100 	bgtz	v1,1008 <CheckSum32+0xa70>
 c08:	00000657 	0x657
 c0c:	0088d701 	0x88d701
 c10:	61010000 	0x61010000
 c14:	0004241b 	0x4241b
 c18:	9ed80100 	0x9ed80100
 c1c:	00000000 	nop
 c20:	000c7017 	0xc7017
 c24:	0b260100 	j	c980400 <CheckSum32+0xc97fe68>
 c28:	f8010000 	sdc2	$1,0(zero)
 c2c:	00050801 	movt	at,zero,$fcc1
 c30:	00000000 	nop
 c34:	00059800 	sll	s3,a1,0x0
 c38:	186d0100 	0x186d0100
 c3c:	00000bb2 	tlt	zero,zero,0x2e
 c40:	0093f701 	0x93f701
 c44:	54010000 	bnel	zero,at,c48 <.debug_info+0xc48>
 c48:	000bb818 	0xbb818
 c4c:	93f70100 	lbu	s7,256(ra)
 c50:	01000000 	0x1000000
 c54:	0bbe1855 	j	ef86154 <CheckSum32+0xef85bbc>
 c58:	f7010000 	sdc1	$f1,0(t8)
 c5c:	000000d4 	0xd4
 c60:	0e185601 	jal	8615804 <CheckSum32+0x861526c>
 c64:	0100000c 	syscall	0x40000
 c68:	000088f7 	0x88f7
 c6c:	00570100 	0x570100
 c70:	000cc513 	0xcc513
 c74:	00c50100 	0xc50100
 c78:	6b010000 	0x6b010000
 c7c:	00c20101 	0xc20101
 c80:	00000000 	nop
 c84:	05aa0000 	tlti	t5,0
 c88:	6d010000 	0x6d010000
 c8c:	66756214 	0x66756214
 c90:	016a0100 	0x16a0100
 c94:	00000cc5 	0xcc5
 c98:	6c146801 	0x6c146801
 c9c:	01006e65 	0x1006e65
 ca0:	00c2016a 	0xc2016a
 ca4:	55010000 	bnel	t0,at,ca8 <.debug_info+0xca8>
 ca8:	000e1215 	0xe1215
 cac:	016c0100 	0x16c0100
 cb0:	000000c2 	srl	zero,zero,0x3
 cb4:	73165501 	0x73165501
 cb8:	01006d75 	0x1006d75
 cbc:	00c2016d 	0xc2016d
 cc0:	53010000 	beql	t8,at,cc4 <.debug_info+0xcc4>
 cc4:	c2040600 	ll	a0,1536(s0)
 cc8:	1f000000 	bgtz	t8,ccc <.debug_info+0xccc>
 ccc:	000006c2 	srl	zero,zero,0x1b
 cd0:	007d8a06 	0x7d8a06
 cd4:	01010000 	0x1010000
 cd8:	0007c120 	0x7c120
 cdc:	019b0700 	0x19b0700
 ce0:	00000648 	0x648
 ce4:	7a200101 	0x7a200101
 ce8:	0700000e 	bltz	t8,d24 <.debug_info+0xd24>
 cec:	082d01a1 	j	b40684 <CheckSum32+0xb400ec>
 cf0:	01010000 	0x1010000
 cf4:	00089a20 	0x89a20
 cf8:	01a70700 	0x1a70700
 cfc:	000007db 	0x7db
 d00:	51200101 	beqzl	t1,1108 <CheckSum32+0xb70>
 d04:	09000002 	j	4000008 <CheckSum32+0x3fffa70>
 d08:	00d60215 	0xd60215
 d0c:	01010000 	0x1010000
 d10:	0000391f 	0x391f
 d14:	84640400 	lh	a0,1024(v1)
 d18:	01000002 	0x1000002
 d1c:	01e81f01 	0x1e81f01
 d20:	65040000 	0x65040000
 d24:	00000d2a 	0xd2a
 d28:	04060101 	0x4060101
 d2c:	00000a22 	0xa22
	...
Disassembly of section .debug_line:

00000000 <.debug_line>:
   0:	0000020d 	break	0x0,0x8
   4:	00f60002 	0xf60002
   8:	01010000 	0x1010000
   c:	000a0efb 	0xa0efb
  10:	01010101 	0x1010101
  14:	01000000 	0x1000000
  18:	2e2e2f2e 	sltiu	t6,s1,12078
  1c:	2f2e2e2f 	sltiu	t6,t9,11823
  20:	2e2f2e2e 	sltiu	t7,s1,11822
  24:	73702f2e 	0x73702f2e
  28:	65725f70 	0x65725f70
  2c:	6e692f6c 	0x6e692f6c
  30:	64756c63 	0x64756c63
  34:	2f2e0065 	sltiu	t6,t9,101
  38:	2e2f2e2e 	sltiu	t7,s1,11822
  3c:	2e2e2f2e 	sltiu	t6,s1,12078
  40:	636e692f 	0x636e692f
  44:	2e2f2e00 	sltiu	t7,s1,11776
  48:	2e2e2f2e 	sltiu	t6,s1,12078
  4c:	2f2e2e2f 	sltiu	t6,t9,11823
  50:	702f2e2e 	0x702f2e2e
  54:	725f7073 	0x725f7073
  58:	692f6c65 	0x692f6c65
  5c:	756c636e 	jalx	5b18db8 <CheckSum32+0x5b18820>
  60:	752f6564 	jalx	4bd9590 <CheckSum32+0x4bd8ff8>
  64:	00736f63 	0x736f63
  68:	61744f00 	0x61744f00
  6c:	7063725f 	udi15	v1,v1,t6,0x9
  70:	635f735f 	0x635f735f
  74:	645f646d 	0x645f646d
  78:	2e6c6165 	sltiu	t4,s3,24933
  7c:	00000063 	0x63
  80:	70797400 	0x70797400
  84:	74786565 	jalx	1e19594 <CheckSum32+0x1e18ffc>
  88:	0100682e 	0x100682e
  8c:	61630000 	0x61630000
  90:	745f6573 	jalx	17d95cc <CheckSum32+0x17d9034>
  94:	2e657079 	sltiu	a1,s3,28793
  98:	00020068 	0x20068
  9c:	6d6f4300 	0x6d6f4300
  a0:	5f6e6f6d 	0x5f6e6f6d
  a4:	2e61746f 	sltiu	at,s3,29807
  a8:	00020068 	0x20068
  ac:	73797300 	0x73797300
  b0:	61746f5f 	0x61746f5f
  b4:	746e695f 	jalx	1b9a57c <CheckSum32+0x1b99fe4>
  b8:	61667265 	0x61667265
  bc:	682e6563 	0x682e6563
  c0:	00000100 	sll	zero,zero,0x4
  c4:	5f707061 	0x5f707061
  c8:	656d6974 	0x656d6974
  cc:	00682e72 	tlt	v1,t0,0xb9
  d0:	61000002 	0x61000002
  d4:	696c7070 	0x696c7070
  d8:	00682e62 	0x682e62
  dc:	75000002 	jalx	4000008 <CheckSum32+0x3fffa70>
  e0:	5f736f63 	0x5f736f63
  e4:	65707974 	0x65707974
  e8:	00682e73 	tltu	v1,t0,0xb9
  ec:	63000003 	0x63000003
  f0:	6f6d6d6f 	0x6f6d6d6f
  f4:	63725f6e 	0x63725f6e
  f8:	00682e70 	tge	v1,t0,0xb9
  fc:	00000002 	srl	zero,zero,0x0
 100:	01020500 	0x1020500
 104:	03000000 	0x3000000
 108:	490102e1 	bc2t	c90 <CheckSum32+0x6f8>
 10c:	039f2d29 	0x39f2d29
 110:	2f637da6 	sltiu	v1,k1,32166
 114:	032b0a03 	0x32b0a03
 118:	0e034772 	jal	80d1dc8 <CheckSum32+0x80d1830>
 11c:	494b9b2b 	0x494b9b2b
 120:	31b77a03 	andi	s7,t5,0x7a03
 124:	f3822d64 	0xf3822d64
 128:	2f2c2666 	sltiu	t4,t9,9830
 12c:	bc832767 	cache	0x3,10087(a0)
 130:	d4f22d61 	ldc1	$f18,11617(a3)
 134:	032a642d 	0x32a642d
 138:	03484716 	0x3484716
 13c:	56082b6f 	bnel	s0,t0,aefc <CheckSum32+0xa964>
 140:	2c2a64f0 	sltiu	t2,at,25840
 144:	2f2a2cb8 	sltiu	t2,t9,11448
 148:	2e284a28 	sltiu	t0,s1,18984
 14c:	6449482a 	0x6449482a
 150:	d580482a 	ldc1	$f0,18474(t4)
 154:	63100329 	0x63100329
 158:	2a64bdb9 	slti	a0,s3,-16967
 15c:	d4b8bc2c 	ldc1	$f24,-17364(a1)
 160:	c8083b08 	lwc2	$8,15112(zero)
 164:	2fb8b848 	sltiu	t8,sp,-18360
 168:	9cb8f266 	0x9cb8f266
 16c:	482b1803 	0x482b1803
 170:	4e2b6b03 	c3	0x2b6b03
 174:	08b84a28 	j	2e128a0 <CheckSum32+0x2e12308>
 178:	2f1f083b 	sltiu	ra,t8,2107
 17c:	27492d27 	addiu	t1,k0,11559
 180:	61f12e2c 	0x61f12e2c
 184:	0e03b887 	jal	80ee21c <CheckSum32+0x80edc84>
 188:	770380ef 	jalx	c0e03bc <CheckSum32+0xc0dfe24>
 18c:	3a08d42b 	xori	t0,s0,0xd42b
 190:	61f1ff08 	0x61f1ff08
 194:	f07f0903 	0xf07f0903
 198:	64482a2c 	0x64482a2c
 19c:	2c274b64 	sltiu	a3,at,19300
 1a0:	2c486564 	sltiu	t0,v0,25956
 1a4:	282d2c46 	slti	t5,at,11334
 1a8:	81d72c2e 	lb	s7,11310(t6)
 1ac:	83484664 	lb	t0,18020(k0)
 1b0:	023903b9 	0x23903b9
 1b4:	300101fe 	andi	at,zero,0x1fe
 1b8:	292c2c2a 	slti	t4,t1,11306
 1bc:	282e292d 	slti	t6,at,10541
 1c0:	2c482a2e 	sltiu	t0,v0,10798
 1c4:	032b0b03 	0x32b0b03
 1c8:	0b032b75 	j	c0cadd4 <CheckSum32+0xc0ca83c>
 1cc:	2b73032b 	slti	s3,k1,811
 1d0:	812b0d03 	lb	t3,3331(t1)
 1d4:	2c33282e 	sltiu	s3,at,10286
 1d8:	292d2964 	slti	t5,t1,10596
 1dc:	d5d5482d 	ldc1	$f21,18477(t6)
 1e0:	2949482a 	slti	t1,t2,18474
 1e4:	2c452d2c 	sltiu	a1,v0,11564
 1e8:	032e822c 	0x32e822c
 1ec:	c5087fa0 	lwc1	$f8,32672(t0)
 1f0:	272b0a03 	addiu	t3,t9,2563
 1f4:	81d5472f 	lb	s5,18223(t6)
 1f8:	852eb89c 	lh	t6,-18276(t1)
 1fc:	4d2c2a2c 	0x4d2c2a2c
 200:	fd081003 	sdc3	$8,4099(t0)
 204:	4700eb03 	c1	0x100eb03
 208:	672d2949 	0x672d2949
 20c:	01000302 	0x1000302
 210:	Address 0x210 is out of bounds.

Disassembly of section .debug_frame:

00000000 <.debug_frame>:
   0:	0000000c 	syscall
   4:	ffffffff 	sdc3	$31,-1(ra)
   8:	04010001 	b	10 <.debug_frame+0x10>
   c:	001d0c1f 	0x1d0c1f
  10:	0000000c 	syscall
	...
  1c:	00000017 	0x17
  20:	00000020 	add	zero,zero,zero
	...
  2c:	00000373 	tltu	zero,zero,0xd
  30:	0e040e42 	jal	8103908 <CheckSum32+0x8103370>
  34:	0e0c0e08 	jal	8303820 <CheckSum32+0x8303288>
  38:	7d101130 	0x7d101130
  3c:	117e1111 	beq	t3,s8,4484 <CheckSum32+0x3eec>
  40:	00007f1f 	0x7f1f
  44:	00000020 	add	zero,zero,zero
	...
  50:	0000008b 	0x8b
  54:	0e040e42 	jal	8103908 <CheckSum32+0x8103370>
  58:	0e0c0e08 	jal	8303820 <CheckSum32+0x8303288>
  5c:	7d101130 	0x7d101130
  60:	117e1111 	beq	t3,s8,44a8 <CheckSum32+0x3f10>
  64:	00007f1f 	0x7f1f
  68:	00000020 	add	zero,zero,zero
	...
  74:	0000004f 	0x4f
  78:	0e040e42 	jal	8103908 <CheckSum32+0x8103370>
  7c:	0e0c0e08 	jal	8303820 <CheckSum32+0x8303288>
  80:	7d101120 	0x7d101120
  84:	117e1111 	beq	t3,s8,44cc <CheckSum32+0x3f34>
  88:	00007f1f 	0x7f1f
  8c:	0000000c 	syscall
	...
  98:	00000003 	sra	zero,zero,0x0
  9c:	0000000c 	syscall
	...
  a8:	00000011 	mthi	zero
Disassembly of section .debug_pubnames:

00000000 <.debug_pubnames>:
   0:	0000008c 	syscall	0x2
   4:	00000002 	srl	zero,zero,0x0
   8:	0d310000 	jal	4c40000 <CheckSum32+0x4c3fa68>
   c:	0a2d0000 	j	8b40000 <CheckSum32+0x8b3fa68>
  10:	68430000 	0x68430000
  14:	536b6365 	beql	k1,t3,18dac <CheckSum32+0x18814>
  18:	36316d75 	ori	s1,s1,0x6d75
  1c:	000a8800 	sll	s1,t2,0x0
  20:	61746f00 	0x61746f00
  24:	6365725f 	0x6365725f
  28:	65766965 	0x65766965
  2c:	6e6f635f 	0x6e6f635f
  30:	7463656e 	jalx	18d95b8 <CheckSum32+0x18d9020>
  34:	7461645f 	jalx	185917c <CheckSum32+0x1858be4>
  38:	0b680061 	j	da00184 <CheckSum32+0xd9ffbec>
  3c:	77660000 	jalx	d980000 <CheckSum32+0xd97fa68>
  40:	776f645f 	jalx	dbd917c <CheckSum32+0xdbd8be4>
  44:	616f6c6e 	0x616f6c6e
  48:	656e5f64 	0x656e5f64
  4c:	0ba00077 	j	e8001dc <CheckSum32+0xe7ffc44>
  50:	746f0000 	jalx	1bc0000 <CheckSum32+0x1bbfa68>
  54:	65725f61 	0x65725f61
  58:	76696563 	jalx	9a5958c <CheckSum32+0x9a58ff4>
  5c:	61645f65 	0x61645f65
  60:	20006174 	addi	zero,zero,24948
  64:	6f00000c 	0x6f00000c
  68:	725f6174 	0x725f6174
  6c:	69656365 	0x69656365
  70:	765f6576 	jalx	97d95d8 <CheckSum32+0x97d9040>
  74:	5f6d6172 	0x5f6d6172
  78:	61746164 	0x61746164
  7c:	000c7000 	sll	t6,t4,0x0
  80:	65684300 	0x65684300
  84:	75536b63 	jalx	54dad8c <CheckSum32+0x54da7f4>
  88:	0032336d 	0x32336d
  8c:	00000000 	nop
Disassembly of section .debug_aranges:

00000000 <.debug_aranges>:
   0:	0000001c 	0x1c
   4:	00000002 	srl	zero,zero,0x0
   8:	00040000 	sll	zero,a0,0x0
	...
  14:	000005aa 	0x5aa
	...
Disassembly of section .debug_str:

00000000 <.debug_str>:
   0:	69726576 	0x69726576
   4:	61636966 	0x61636966
   8:	6e6f6974 	0x6e6f6974
   c:	6174735f 	0x6174735f
  10:	00737574 	teq	v1,s3,0x1d5
  14:	69736e75 	0x69736e75
  18:	64656e67 	0x64656e67
  1c:	746e6920 	jalx	1b9a480 <CheckSum32+0x1b99ee8>
  20:	74756d00 	jalx	1d5b400 <CheckSum32+0x1d5ae68>
  24:	74735f65 	jalx	1cd7d94 <CheckSum32+0x1cd77fc>
  28:	00657461 	0x657461
  2c:	55534552 	bnel	t2,s3,11578 <CheckSum32+0x10fe0>
  30:	525f544c 	beql	s2,ra,15164 <CheckSum32+0x14bcc>
  34:	4f494441 	c3	0x1494441
  38:	6f5f6700 	0x6f5f6700
  3c:	725f6174 	0x725f6174
  40:	6f747365 	0x6f747365
  44:	645f6572 	0x645f6572
  48:	00617461 	0x617461
  4c:	74697277 	jalx	1a5c9dc <CheckSum32+0x1a5c444>
  50:	6e695f65 	0x6e695f65
  54:	725f6f66 	0x725f6f66
  58:	63007465 	0x63007465
  5c:	755f7572 	jalx	57dd5c8 <CheckSum32+0x57dd030>
  60:	74616470 	jalx	18591c0 <CheckSum32+0x1858c28>
  64:	77660061 	jalx	d980184 <CheckSum32+0xd97fbec>
  68:	646f6d5f 	0x646f6d5f
  6c:	544f0065 	bnel	v0,t7,204 <.debug_str+0x204>
  70:	616d5f41 	0x616d5f41
  74:	636f6c6c 	0x636f6c6c
  78:	7261705f 	udi15	s3,at,t6,0x1
  7c:	745f6d61 	jalx	17db584 <CheckSum32+0x17dafec>
  80:	53455200 	beql	k0,a1,14884 <CheckSum32+0x142ec>
  84:	5f544c55 	0x5f544c55
  88:	5f425355 	0x5f425355
  8c:	4e415254 	c3	0x415254
  90:	45520053 	0x45520053
  94:	544c5553 	bnel	v0,t4,155e4 <CheckSum32+0x1504c>
  98:	59454b5f 	0x59454b5f
  9c:	4556455f 	0x4556455f
  a0:	525f544e 	beql	s2,ra,151dc <CheckSum32+0x14c44>
  a4:	41454445 	0x41454445
  a8:	59425f4c 	0x59425f4c
  ac:	4d4f435f 	0x4d4f435f
  b0:	004e4f4d 	break	0x4e,0x13d
  b4:	5f61746f 	0x5f61746f
  b8:	74697277 	jalx	1a5c9dc <CheckSum32+0x1a5c444>
  bc:	6e695f65 	0x6e695f65
  c0:	745f6f66 	jalx	17dbd98 <CheckSum32+0x17db800>
  c4:	65684300 	0x65684300
  c8:	75536b63 	jalx	54dad8c <CheckSum32+0x54da7f4>
  cc:	0032336d 	0x32336d
  d0:	55534552 	bnel	t2,s3,1161c <CheckSum32+0x11084>
  d4:	525f544c 	beql	s2,ra,15208 <CheckSum32+0x14c70>
  d8:	524f4345 	beql	s2,t7,10df0 <CheckSum32+0x10858>
  dc:	494d5f44 	0x494d5f44
  e0:	4f545f43 	c3	0x1545f43
  e4:	45520043 	0x45520043
  e8:	544c5553 	bnel	v0,t4,15638 <CheckSum32+0x150a0>
  ec:	4345525f 	c0	0x145525f
  f0:	5f44524f 	0x5f44524f
  f4:	5f43494d 	0x5f43494d
  f8:	00554f54 	0x554f54
  fc:	6b636162 	0x6b636162
 100:	6867696c 	0x6867696c
 104:	74735f74 	jalx	1cd7dd0 <CheckSum32+0x1cd7838>
 108:	00657461 	0x657461
 10c:	726f6873 	0x726f6873
 110:	6e752074 	0x6e752074
 114:	6e676973 	0x6e676973
 118:	69206465 	0x69206465
 11c:	7000746e 	0x7000746e
 120:	5f747261 	0x5f747261
 124:	657a6973 	0x657a6973
 128:	74616200 	jalx	1858800 <CheckSum32+0x1858268>
 12c:	6c61765f 	0x6c61765f
 130:	70006575 	0x70006575
 134:	5f747261 	0x5f747261
 138:	61746f74 	0x61746f74
 13c:	4552006c 	0x4552006c
 140:	544c5553 	bnel	v0,t4,15690 <CheckSum32+0x150f8>
 144:	414c415f 	0x414c415f
 148:	435f4d52 	c0	0x15f4d52
 14c:	45534f4c 	0x45534f4c
 150:	53455200 	beql	k0,a1,14954 <CheckSum32+0x143bc>
 154:	5f544c55 	0x5f544c55
 158:	554e414d 	bnel	t2,t6,10690 <CheckSum32+0x100f8>
 15c:	535f4c41 	beql	k0,ra,13264 <CheckSum32+0x12ccc>
 160:	43524145 	c0	0x1524145
 164:	50555f48 	beql	v0,s5,17e88 <CheckSum32+0x178f0>
 168:	53455200 	beql	k0,a1,1496c <CheckSum32+0x143d4>
 16c:	5f544c55 	0x5f544c55
 170:	45554c42 	0x45554c42
 174:	54454554 	bnel	v0,a1,116c8 <CheckSum32+0x11130>
 178:	4f535f48 	c3	0x1535f48
 17c:	00444e55 	0x444e55
 180:	74726977 	jalx	1c9a5dc <CheckSum32+0x1c9a044>
 184:	6e695f65 	0x6e695f65
 188:	63006f66 	0x63006f66
 18c:	665f7275 	0x665f7275
 190:	5f636e75 	0x5f636e75
 194:	65006469 	0x65006469
 198:	6e69676e 	0x6e69676e
 19c:	79745f65 	0x79745f65
 1a0:	77006570 	jalx	c0195c0 <CheckSum32+0xc019028>
 1a4:	65746972 	0x65746972
 1a8:	646f6d5f 	0x646f6d5f
 1ac:	5f700065 	0x5f700065
 1b0:	72656e65 	0x72656e65
 1b4:	765f7967 	jalx	97de59c <CheckSum32+0x97de004>
 1b8:	65756c61 	0x65756c61
 1bc:	53455200 	beql	k0,a1,149c0 <CheckSum32+0x14428>
 1c0:	5f544c55 	0x5f544c55
 1c4:	5f574f4c 	0x5f574f4c
 1c8:	45574f50 	0x45574f50
 1cc:	45520052 	0x45520052
 1d0:	544c5553 	bnel	v0,t4,15720 <CheckSum32+0x15188>
 1d4:	5345545f 	beql	k0,a1,15354 <CheckSum32+0x14dbc>
 1d8:	5f504154 	0x5f504154
 1dc:	54495551 	bnel	v0,t1,15724 <CheckSum32+0x1518c>
 1e0:	5f647500 	0x5f647500
 1e4:	00747461 	0x747461
 1e8:	544f5f67 	bnel	v0,t7,17f88 <CheckSum32+0x179f0>
 1ec:	61765f41 	0x61765f41
 1f0:	45520072 	0x45520072
 1f4:	544c5553 	bnel	v0,t4,15744 <CheckSum32+0x151ac>
 1f8:	414c415f 	0x414c415f
 1fc:	525f4d52 	beql	s2,ra,13748 <CheckSum32+0x131b0>
 200:	5f474e49 	0x5f474e49
 204:	444c4f46 	0x444c4f46
 208:	535f5245 	beql	k0,ra,14b20 <CheckSum32+0x14588>
 20c:	004e4143 	0x4e4143
 210:	74697277 	jalx	1a5c9dc <CheckSum32+0x1a5c444>
 214:	6e695f65 	0x6e695f65
 218:	6c006f66 	0x6c006f66
 21c:	5f747361 	0x5f747361
 220:	735f6975 	0x735f6975
 224:	75746174 	jalx	5d185d0 <CheckSum32+0x5d18038>
 228:	69750073 	0x69750073
 22c:	0038746e 	0x38746e
 230:	55534552 	bnel	t2,s3,1177c <CheckSum32+0x111e4>
 234:	535f544c 	beql	k0,ra,15368 <CheckSum32+0x14dd0>
 238:	454e4543 	0x454e4543
 23c:	4958455f 	0x4958455f
 240:	75630054 	jalx	58c0150 <CheckSum32+0x58bfbb8>
 244:	75665f72 	jalx	5997dc8 <CheckSum32+0x5997830>
 248:	695f636e 	0x695f636e
 24c:	7865646e 	0x7865646e
 250:	725f6700 	0x725f6700
 254:	6c5f7063 	0x6c5f7063
 258:	5f676e6f 	0x5f676e6f
 25c:	66667562 	0x66667562
 260:	52007265 	beqzl	s0,1cbf8 <CheckSum32+0x1c660>
 264:	4c555345 	0x4c555345
 268:	414d5f54 	0x414d5f54
 26c:	415f4e49 	0x415f4e49
 270:	2f005050 	sltiu	zero,t8,20560
 274:	64677963 	0x64677963
 278:	65766972 	0x65766972
 27c:	612f642f 	0x612f642f
 280:	6f697463 	0x6f697463
 284:	732f736e 	0x732f736e
 288:	64736474 	0x64736474
 28c:	6f632f6b 	0x6f632f6b
 290:	752f6564 	jalx	4bd9590 <CheckSum32+0x4bd8ff8>
 294:	32383273 	andi	t8,s1,0x3273
 298:	31765f61 	andi	s6,t3,0x5f61
 29c:	2f706d37 	sltiu	s0,k1,27959
 2a0:	65736163 	0x65736163
 2a4:	2f70612f 	sltiu	s0,k1,24879
 2a8:	6d6d6f63 	0x6d6d6f63
 2ac:	632f6e6f 	0x632f6e6f
 2b0:	6f6d6d6f 	0x6f6d6d6f
 2b4:	746f5f6e 	jalx	1bd7db8 <CheckSum32+0x1bd7820>
 2b8:	61700061 	0x61700061
 2bc:	6d5f7472 	0x6d5f7472
 2c0:	735f7861 	0x735f7861
 2c4:	00657a69 	0x657a69
 2c8:	55534552 	bnel	t2,s3,11814 <CheckSum32+0x1127c>
 2cc:	535f544c 	beql	k0,ra,15400 <CheckSum32+0x14e68>
 2d0:	4d5f5359 	0x4d5f5359
 2d4:	525f4753 	beql	s2,ra,12024 <CheckSum32+0x11a8c>
 2d8:	41454445 	0x41454445
 2dc:	59425f4c 	0x59425f4c
 2e0:	4d4f435f 	0x4d4f435f
 2e4:	004e4f4d 	break	0x4e,0x13d
 2e8:	55534552 	bnel	t2,s3,11834 <CheckSum32+0x1129c>
 2ec:	505f544c 	beql	v0,ra,15420 <CheckSum32+0x14e88>
 2f0:	5f59414c 	0x5f59414c
 2f4:	5f444453 	0x5f444453
 2f8:	31444946 	andi	a0,t2,0x4946
 2fc:	45520036 	0x45520036
 300:	544c5553 	bnel	v0,t4,15850 <CheckSum32+0x152b8>
 304:	414c505f 	0x414c505f
 308:	44535f59 	0x44535f59
 30c:	49465f44 	0x49465f44
 310:	00373144 	0x373144
 314:	55534552 	bnel	t2,s3,11860 <CheckSum32+0x112c8>
 318:	505f544c 	beql	v0,ra,1544c <CheckSum32+0x14eb4>
 31c:	5f59414c 	0x5f59414c
 320:	5f444453 	0x5f444453
 324:	31444946 	andi	a0,t2,0x4946
 328:	45520038 	0x45520038
 32c:	544c5553 	bnel	v0,t4,1587c <CheckSum32+0x152e4>
 330:	414c505f 	0x414c505f
 334:	44535f59 	0x44535f59
 338:	49465f44 	0x49465f44
 33c:	00393144 	0x393144
 340:	5f707061 	0x5f707061
 344:	7473616c 	jalx	1cd85b0 <CheckSum32+0x1cd8018>
 348:	6174735f 	0x6174735f
 34c:	745f6574 	jalx	17d95d0 <CheckSum32+0x17d9038>
 350:	53455200 	beql	k0,a1,14b54 <CheckSum32+0x145bc>
 354:	5f544c55 	0x5f544c55
 358:	4f434552 	c3	0x1434552
 35c:	555f4452 	bnel	t2,ra,114a8 <CheckSum32+0x10f10>
 360:	59414c50 	0x59414c50
 364:	53455200 	beql	k0,a1,14b68 <CheckSum32+0x145d0>
 368:	5f544c55 	0x5f544c55
 36c:	59414c50 	0x59414c50
 370:	4444535f 	0x4444535f
 374:	4449465f 	0x4449465f
 378:	52003032 	beqzl	s0,c444 <CheckSum32+0xbeac>
 37c:	4c555345 	0x4c555345
 380:	4c505f54 	0x4c505f54
 384:	535f5941 	beql	k0,ra,1688c <CheckSum32+0x162f4>
 388:	465f4444 	c1	0x5f4444
 38c:	31324449 	andi	s2,t1,0x4449
 390:	53455200 	beql	k0,a1,14b94 <CheckSum32+0x145fc>
 394:	5f544c55 	0x5f544c55
 398:	59414c50 	0x59414c50
 39c:	4444535f 	0x4444535f
 3a0:	4449465f 	0x4449465f
 3a4:	52003332 	beqzl	s0,d070 <CheckSum32+0xcad8>
 3a8:	4c555345 	0x4c555345
 3ac:	4c505f54 	0x4c505f54
 3b0:	535f5941 	beql	k0,ra,168b8 <CheckSum32+0x16320>
 3b4:	465f4444 	c1	0x5f4444
 3b8:	34324449 	ori	s2,at,0x4449
 3bc:	53455200 	beql	k0,a1,14bc0 <CheckSum32+0x14628>
 3c0:	5f544c55 	0x5f544c55
 3c4:	59414c50 	0x59414c50
 3c8:	4444535f 	0x4444535f
 3cc:	4449465f 	0x4449465f
 3d0:	67003532 	0x67003532
 3d4:	6e65735f 	0x6e65735f
 3d8:	78655f64 	0x78655f64
 3dc:	6d5f7469 	0x6d5f7469
 3e0:	745f6d6d 	jalx	17db5b4 <CheckSum32+0x17db01c>
 3e4:	52007374 	beqzl	s0,1d1b8 <CheckSum32+0x1cc20>
 3e8:	4c555345 	0x4c555345
 3ec:	554e5f54 	bnel	t2,t6,18140 <CheckSum32+0x17ba8>
 3f0:	55004c4c 	bnezl	t0,13524 <CheckSum32+0x12f8c>
 3f4:	31544e49 	andi	s4,t2,0x4e49
 3f8:	6f6c0036 	0x6f6c0036
 3fc:	7520676e 	jalx	4819db8 <CheckSum32+0x4819820>
 400:	6769736e 	0x6769736e
 404:	2064656e 	addi	a0,v1,25966
 408:	00746e69 	0x746e69
 40c:	676e6972 	0x676e6972
 410:	616c615f 	0x616c615f
 414:	6f006d72 	0x6f006d72
 418:	625f6174 	0x625f6174
 41c:	666e696b 	0x666e696b
 420:	00745f6f 	0x745f6f
 424:	5f746572 	0x5f746572
 428:	006c6176 	tne	v1,t4,0x185
 42c:	55534552 	bnel	t2,s3,11978 <CheckSum32+0x113e0>
 430:	485f544c 	0x485f544c
 434:	535f4449 	beql	k0,ra,1155c <CheckSum32+0x10fc4>
 438:	5f444e45 	0x5f444e45
 43c:	5f59454b 	0x5f59454b
 440:	4e455645 	c3	0x455645
 444:	65720054 	0x65720054
 448:	746f6f62 	jalx	1bdbd88 <CheckSum32+0x1bdb7f0>
 44c:	676c665f 	0x676c665f
 450:	53455200 	beql	k0,a1,14c54 <CheckSum32+0x146bc>
 454:	5f544c55 	0x5f544c55
 458:	5f425355 	0x5f425355
 45c:	4e554f53 	c3	0x554f53
 460:	49550044 	0x49550044
 464:	3233544e 	andi	s3,s1,0x544e
 468:	6e6f6300 	0x6e6f6300
 46c:	7463656e 	jalx	18d95b8 <CheckSum32+0x18d9020>
 470:	6174735f 	0x6174735f
 474:	75006574 	jalx	40195d0 <CheckSum32+0x4019038>
 478:	74735f69 	jalx	1cd7da4 <CheckSum32+0x1cd780c>
 47c:	73757461 	0x73757461
 480:	53455200 	beql	k0,a1,14c84 <CheckSum32+0x146ec>
 484:	5f544c55 	0x5f544c55
 488:	4b434142 	c2	0x1434142
 48c:	4543535f 	0x4543535f
 490:	445f454e 	0x445f454e
 494:	41505349 	0x41505349
 498:	00484354 	0x484354
 49c:	65776f70 	0x65776f70
 4a0:	6e6f5f72 	0x6e6f5f72
 4a4:	616c665f 	0x616c665f
 4a8:	6e750067 	0x6e750067
 4ac:	6e676973 	0x6e676973
 4b0:	63206465 	0x63206465
 4b4:	00726168 	0x726168
 4b8:	74726170 	jalx	1c985c0 <CheckSum32+0x1c98028>
 4bc:	66666f5f 	0x66666f5f
 4c0:	00746573 	tltu	v1,s4,0x195
 4c4:	55534552 	bnel	t2,s3,11a10 <CheckSum32+0x11478>
 4c8:	415f544c 	0x415f544c
 4cc:	515f5050 	beql	t2,ra,14610 <CheckSum32+0x14078>
 4d0:	00544955 	0x544955
 4d4:	616f6c66 	0x616f6c66
 4d8:	45520074 	0x45520074
 4dc:	544c5553 	bnel	v0,t4,15a2c <CheckSum32+0x15494>
 4e0:	554c425f 	bnel	t2,t4,10e60 <CheckSum32+0x108c8>
 4e4:	45455445 	0x45455445
 4e8:	435f4854 	c0	0x15f4854
 4ec:	004c4c41 	0x4c4c41
 4f0:	676e6f6c 	0x676e6f6c
 4f4:	6e6f6c20 	0x6e6f6c20
 4f8:	6e692067 	0x6e692067
 4fc:	5f670074 	0x5f670074
 500:	735f6f6e 	0x735f6f6e
 504:	6f707075 	0x6f707075
 508:	745f7472 	jalx	17dd1c8 <CheckSum32+0x17dcc30>
 50c:	665f7374 	0x665f7374
 510:	0067616c 	0x67616c
 514:	55534552 	bnel	t2,s3,11a60 <CheckSum32+0x114c8>
 518:	445f544c 	0x445f544c
 51c:	4f4c4149 	c3	0x14c4149
 520:	45525f47 	0x45525f47
 524:	00595254 	0x595254
 528:	62757473 	0x62757473
 52c:	6f6f745f 	0x6f6f745f
 530:	745f736c 	jalx	17dcdb0 <CheckSum32+0x17dc818>
 534:	00657079 	0x657079
 538:	55534552 	bnel	t2,s3,11a84 <CheckSum32+0x114ec>
 53c:	4d5f544c 	0x4d5f544c
 540:	43495355 	c0	0x1495355
 544:	4c50555f 	0x4c50555f
 548:	6c005941 	0x6c005941
 54c:	5f747361 	0x5f747361
 550:	6b736964 	0x6b736964
 554:	72655600 	0x72655600
 558:	6e6f6973 	0x6e6f6973
 55c:	554e4700 	bnel	t2,t6,12160 <CheckSum32+0x11bc8>
 560:	33204320 	andi	zero,t9,0x4320
 564:	342e342e 	ori	t6,at,0x342e
 568:	70696d20 	0x70696d20
 56c:	65647373 	0x65647373
 570:	302e362d 	andi	t6,at,0x362d
 574:	31302e36 	andi	s0,t1,0x2e36
 578:	3030322d 	andi	s0,at,0x322d
 57c:	32343037 	andi	s4,s1,0x3037
 580:	74730030 	jalx	1cc00c0 <CheckSum32+0x1cbfb28>
 584:	705f6275 	0x705f6275
 588:	745f7968 	jalx	17de5a0 <CheckSum32+0x17de008>
 58c:	00657079 	0x657079
 590:	61746164 	0x61746164
 594:	6675625f 	0x6675625f
 598:	00726566 	0x726566
 59c:	72616863 	0x72616863
 5a0:	735f6567 	0x735f6567
 5a4:	65746174 	0x65746174
 5a8:	53455200 	beql	k0,a1,14dac <CheckSum32+0x14814>
 5ac:	5f544c55 	0x5f544c55
 5b0:	4f434552 	c3	0x1434552
 5b4:	4c5f4452 	0x4c5f4452
 5b8:	49454e49 	0x49454e49
 5bc:	4f545f4e 	c3	0x1545f4e
 5c0:	45520043 	0x45520043
 5c4:	544c5553 	bnel	v0,t4,15b14 <CheckSum32+0x1557c>
 5c8:	5043525f 	beql	v0,v1,14f48 <CheckSum32+0x149b0>
 5cc:	5f434c5f 	0x5f434c5f
 5d0:	54494157 	bnel	v0,t1,10b30 <CheckSum32+0x10598>
 5d4:	53455200 	beql	k0,a1,14dd8 <CheckSum32+0x14840>
 5d8:	5f544c55 	0x5f544c55
 5dc:	4f434552 	c3	0x1434552
 5e0:	4c5f4452 	0x4c5f4452
 5e4:	49454e49 	0x49454e49
 5e8:	4f545f4e 	c3	0x1545f4e
 5ec:	68630055 	0x68630055
 5f0:	65676e61 	0x65676e61
 5f4:	7070615f 	udi15	v1,s0,t4,0x5
 5f8:	53455200 	beql	k0,a1,14dfc <CheckSum32+0x14864>
 5fc:	5f544c55 	0x5f544c55
 600:	4c414944 	0x4c414944
 604:	555f474f 	bnel	t2,ra,12344 <CheckSum32+0x11dac>
 608:	535f4253 	beql	k0,ra,10f58 <CheckSum32+0x109c0>
 60c:	444e554f 	0x444e554f
 610:	72616300 	0x72616300
 614:	74735f64 	jalx	1cd7d90 <CheckSum32+0x1cd77f8>
 618:	00657461 	0x657461
 61c:	565f7746 	bnel	s2,ra,1e338 <CheckSum32+0x1dda0>
 620:	745f7265 	jalx	17dc994 <CheckSum32+0x17dc3fc>
 624:	61746f00 	0x61746f00
 628:	6365725f 	0x6365725f
 62c:	65766965 	0x65766965
 630:	6e6f635f 	0x6e6f635f
 634:	7463656e 	jalx	18d95b8 <CheckSum32+0x18d9020>
 638:	7461645f 	jalx	185917c <CheckSum32+0x1858be4>
 63c:	5f670061 	0x5f670061
 640:	5f757263 	0x5f757263
 644:	6b636170 	0x6b636170
 648:	756f635f 	jalx	5bd8d7c <CheckSum32+0x5bd87e4>
 64c:	7000746e 	0x7000746e
 650:	5f747261 	0x5f747261
 654:	61006469 	0x61006469
 658:	735f6b70 	0x735f6b70
 65c:	5f646e65 	0x5f646e65
 660:	5f6b6170 	0x5f6b6170
 664:	006d756e 	0x6d756e
 668:	55534552 	bnel	t2,s3,11bb4 <CheckSum32+0x1161c>
 66c:	445f544c 	0x445f544c
 670:	4f4c4149 	c3	0x14c4149
 674:	4e4f5f47 	c3	0x4f5f47
 678:	435f594c 	c0	0x15f594c
 67c:	47524148 	c1	0x1524148
 680:	70680045 	0x70680045
 684:	6174735f 	0x6174735f
 688:	64006574 	0x64006574
 68c:	6c6d776f 	0x6c6d776f
 690:	5f64616f 	0x5f64616f
 694:	74617473 	jalx	185d1cc <CheckSum32+0x185cc34>
 698:	75006575 	jalx	40195d4 <CheckSum32+0x401903c>
 69c:	74616470 	jalx	18591c0 <CheckSum32+0x1858c28>
 6a0:	74735f61 	jalx	1cd7d84 <CheckSum32+0x1cd77ec>
 6a4:	65757461 	0x65757461
 6a8:	53455200 	beql	k0,a1,14eac <CheckSum32+0x14914>
 6ac:	5f544c55 	0x5f544c55
 6b0:	504f5453 	beql	v0,t7,15800 <CheckSum32+0x15268>
 6b4:	4145535f 	0x4145535f
 6b8:	00484352 	0x484352
 6bc:	33746e69 	andi	s4,k1,0x6e69
 6c0:	5f670032 	0x5f670032
 6c4:	73696874 	0x73696874
 6c8:	7070615f 	udi15	v1,s0,t4,0x5
 6cc:	6d69745f 	0x6d69745f
 6d0:	745f7265 	jalx	17dc994 <CheckSum32+0x17dc3fc>
 6d4:	61006761 	0x61006761
 6d8:	695f7070 	0x695f7070
 6dc:	5f6f666e 	0x5f6f666e
 6e0:	74617473 	jalx	185d1cc <CheckSum32+0x185cc34>
 6e4:	6c615f65 	0x6c615f65
 6e8:	00745f6c 	0x745f6c
 6ec:	706d6f63 	0x706d6f63
 6f0:	6574656c 	0x6574656c
 6f4:	6e65735f 	0x6e65735f
 6f8:	756e5f64 	jalx	5b97d90 <CheckSum32+0x5b977f8>
 6fc:	6170006d 	0x6170006d
 700:	695f7472 	0x695f7472
 704:	006f666e 	0x6f666e
 708:	38544e49 	xori	s4,v0,0x4e49
 70c:	6f630055 	0x6f630055
 710:	63656e6e 	0x63656e6e
 714:	656d5f74 	0x656d5f74
 718:	67617373 	0x67617373
 71c:	00745f65 	0x745f65
 720:	55534552 	bnel	t2,s3,11c6c <CheckSum32+0x116d4>
 724:	455f544c 	0x455f544c
 728:	5245544e 	beql	s2,a1,15864 <CheckSum32+0x152cc>
 72c:	4750555f 	c1	0x150555f
 730:	45444152 	0x45444152
 734:	53455200 	beql	k0,a1,14f38 <CheckSum32+0x149a0>
 738:	5f544c55 	0x5f544c55
 73c:	454e4f4e 	0x454e4f4e
 740:	4556455f 	0x4556455f
 744:	6700544e 	0x6700544e
 748:	6e6f635f 	0x6e6f635f
 74c:	7463656e 	jalx	18d95b8 <CheckSum32+0x18d9020>
 750:	7065725f 	udi15	v1,a1,t6,0x9
 754:	45520079 	0x45520079
 758:	544c5553 	bnel	v0,t4,15ca8 <CheckSum32+0x15710>
 75c:	414c505f 	0x414c505f
 760:	44535f59 	0x44535f59
 764:	49465f44 	0x49465f44
 768:	00323244 	0x323244
 76c:	55534552 	bnel	t2,s3,11cb8 <CheckSum32+0x11720>
 770:	4d5f544c 	0x4d5f544c
 774:	43495355 	c0	0x1495355
 778:	414c505f 	0x414c505f
 77c:	746f0059 	jalx	1bc0164 <CheckSum32+0x1bbfbcc>
 780:	72775f61 	0x72775f61
 784:	5f657469 	0x5f657469
 788:	6d657469 	0x6d657469
 78c:	4300745f 	c0	0x100745f
 790:	6b636568 	0x6b636568
 794:	316d7553 	andi	t5,t3,0x7553
 798:	65720036 	0x65720036
 79c:	76726573 	jalx	9c995cc <CheckSum32+0x9c99034>
 7a0:	67006465 	0x67006465
 7a4:	7275635f 	udi15	s3,s5,t4,0xd
 7a8:	6365725f 	0x6365725f
 7ac:	6174735f 	0x6174735f
 7b0:	65006574 	0x65006574
 7b4:	72657478 	0x72657478
 7b8:	61625f6e 	0x61625f6e
 7bc:	6e695f74 	0x6e695f74
 7c0:	615f6700 	0x615f6700
 7c4:	695f7070 	0x695f7070
 7c8:	5f6f666e 	0x5f6f666e
 7cc:	74617473 	jalx	185d1cc <CheckSum32+0x185cc34>
 7d0:	6c615f65 	0x6c615f65
 7d4:	4552006c 	0x4552006c
 7d8:	544c5553 	bnel	v0,t4,15d28 <CheckSum32+0x15790>
 7dc:	4c44495f 	0x4c44495f
 7e0:	4f4d5f45 	c3	0x14d5f45
 7e4:	73004544 	0x73004544
 7e8:	646e756f 	0x646e756f
 7ec:	6174735f 	0x6174735f
 7f0:	52006574 	beqzl	s0,19dc4 <CheckSum32+0x1982c>
 7f4:	4c555345 	0x4c555345
 7f8:	4f435f54 	c3	0x1435f54
 7fc:	4749464e 	c1	0x149464e
 800:	4148435f 	0x4148435f
 804:	5f454752 	0x5f454752
 808:	54495551 	bnel	v0,t1,15d50 <CheckSum32+0x157b8>
 80c:	67616d00 	0x67616d00
 810:	62006369 	0x62006369
 814:	00386675 	0x386675
 818:	55534552 	bnel	t2,s3,11d64 <CheckSum32+0x117cc>
 81c:	425f544c 	c0	0x5f544c
 820:	5445554c 	bnel	v0,a1,15d54 <CheckSum32+0x157bc>
 824:	48544545 	0x48544545
 828:	4c41435f 	0x4c41435f
 82c:	41425f4c 	0x41425f4c
 830:	52474b43 	beql	s2,a3,13540 <CheckSum32+0x12fa8>
 834:	444e554f 	0x444e554f
 838:	70706100 	0x70706100
 83c:	7365725f 	udi15	k1,a1,t6,0x9
 840:	5f746c75 	0x5f746c75
 844:	72770065 	0x72770065
 848:	5f657469 	0x5f657469
 84c:	61726170 	0x61726170
 850:	7462006d 	jalx	18801b4 <CheckSum32+0x187fc1c>
 854:	776f705f 	jalx	dbdc17c <CheckSum32+0xdbdbbe4>
 858:	6f5f7265 	0x6f5f7265
 85c:	7263006e 	0x7263006e
 860:	61705f75 	0x61705f75
 864:	635f6b63 	0x635f6b63
 868:	746e756f 	jalx	1b9d5bc <CheckSum32+0x1b9d024>
 86c:	6e696c00 	0x6e696c00
 870:	5f6e6965 	0x5f6e6965
 874:	74617473 	jalx	185d1cc <CheckSum32+0x185cc34>
 878:	69730065 	0x69730065
 87c:	64656e67 	0x64656e67
 880:	61686320 	0x61686320
 884:	45520072 	0x45520072
 888:	544c5553 	bnel	v0,t4,15dd8 <CheckSum32+0x15840>
 88c:	4345525f 	c0	0x145525f
 890:	5f44524f 	0x5f44524f
 894:	414c5043 	0x414c5043
 898:	5f670059 	0x5f670059
 89c:	5f707061 	0x5f707061
 8a0:	6f666e69 	0x6f666e69
 8a4:	6174735f 	0x6174735f
 8a8:	66006574 	0x66006574
 8ac:	6f645f77 	0x6f645f77
 8b0:	6f6c6e77 	0x6f6c6e77
 8b4:	6e5f6461 	0x6e5f6461
 8b8:	52007765 	beqzl	s0,1e650 <CheckSum32+0x1e0b8>
 8bc:	4c555345 	0x4c555345
 8c0:	59535f54 	0x59535f54
 8c4:	4d455453 	0x4d455453
 8c8:	4958455f 	0x4958455f
 8cc:	33535f54 	andi	s3,k0,0x5f54
 8d0:	6e617200 	0x6e617200
 8d4:	5f6d6f64 	0x5f6d6f64
 8d8:	5f677075 	0x5f677075
 8dc:	0079656b 	0x79656b
 8e0:	69676e65 	0x69676e65
 8e4:	735f656e 	0x735f656e
 8e8:	65746174 	0x65746174
 8ec:	53455200 	beql	k0,a1,150f0 <CheckSum32+0x14b58>
 8f0:	5f544c55 	0x5f544c55
 8f4:	45544e45 	0x45544e45
 8f8:	4c415f52 	0x4c415f52
 8fc:	004d5241 	0x4d5241
 900:	55534552 	bnel	t2,s3,11e4c <CheckSum32+0x118b4>
 904:	445f544c 	0x445f544c
 908:	4f4c4149 	c3	0x14c4149
 90c:	47495f47 	c1	0x1495f47
 910:	45524f4e 	0x45524f4e
 914:	78696600 	0x78696600
 918:	6d61735f 	0x6d61735f
 91c:	5f656c70 	0x5f656c70
 920:	65746172 	0x65746172
 924:	616c665f 	0x616c665f
 928:	45520067 	0x45520067
 92c:	544c5553 	bnel	v0,t4,15e7c <CheckSum32+0x158e4>
 930:	5252455f 	beql	s2,s2,11eb0 <CheckSum32+0x11918>
 934:	5200524f 	beqzl	s0,15274 <CheckSum32+0x14cdc>
 938:	4c555345 	0x4c555345
 93c:	4f505f54 	c3	0x1505f54
 940:	5f524557 	0x5f524557
 944:	0046464f 	0x46464f
 948:	55534552 	bnel	t2,s3,11e94 <CheckSum32+0x118fc>
 94c:	445f544c 	0x445f544c
 950:	4f4c4149 	c3	0x14c4149
 954:	45595f47 	0x45595f47
 958:	45520053 	0x45520053
 95c:	544c5553 	bnel	v0,t4,15eac <CheckSum32+0x15914>
 960:	4149445f 	0x4149445f
 964:	5f474f4c 	0x5f474f4c
 968:	524f4241 	beql	s2,t7,11270 <CheckSum32+0x10cd8>
 96c:	5f670054 	0x5f670054
 970:	646e6573 	0x646e6573
 974:	7272655f 	udi15	s3,s2,t4,0x15
 978:	6f635f6f 	0x6f635f6f
 97c:	00746e75 	0x746e75
 980:	676e6f6c 	0x676e6f6c
 984:	746e6920 	jalx	1b9a480 <CheckSum32+0x1b99ee8>
 988:	53455200 	beql	k0,a1,1518c <CheckSum32+0x14bf4>
 98c:	5f544c55 	0x5f544c55
 990:	5458454e 	bnel	v0,t8,11ecc <CheckSum32+0x11934>
 994:	4e55465f 	c3	0x55465f
 998:	4f495443 	c3	0x1495443
 99c:	4552004e 	0x4552004e
 9a0:	544c5553 	bnel	v0,t4,15ef0 <CheckSum32+0x15958>
 9a4:	53554d5f 	beql	k0,s5,13f24 <CheckSum32+0x1398c>
 9a8:	435f4349 	c0	0x15f4349
 9ac:	59414c50 	0x59414c50
 9b0:	716e6500 	0x716e6500
 9b4:	79726975 	0x79726975
 9b8:	73656d5f 	udi15	k1,a1,t5,0x15
 9bc:	65676173 	0x65676173
 9c0:	5200745f 	beqzl	s0,1db40 <CheckSum32+0x1d5a8>
 9c4:	4c555345 	0x4c555345
 9c8:	45525f54 	0x45525f54
 9cc:	44524f43 	0x44524f43
 9d0:	5f4d465f 	0x5f4d465f
 9d4:	00434f54 	0x434f54
 9d8:	65725f67 	0x65725f67
 9dc:	5f796c70 	0x5f796c70
 9e0:	6e696b62 	0x6e696b62
 9e4:	52006f66 	beqzl	s0,1c780 <CheckSum32+0x1c1e8>
 9e8:	4c555345 	0x4c555345
 9ec:	45525f54 	0x45525f54
 9f0:	44524f43 	0x44524f43
 9f4:	5f4d465f 	0x5f4d465f
 9f8:	00554f54 	0x554f54
 9fc:	5f61744f 	0x5f61744f
 a00:	5f706372 	0x5f706372
 a04:	6d635f73 	0x6d635f73
 a08:	65645f64 	0x65645f64
 a0c:	632e6c61 	0x632e6c61
 a10:	5f617000 	0x5f617000
 a14:	65646f6d 	0x65646f6d
 a18:	75747300 	jalx	5d1cc00 <CheckSum32+0x5d1c668>
 a1c:	63705f62 	0x63705f62
 a20:	6f6f745f 	0x6f6f745f
 a24:	745f736c 	jalx	17dcdb0 <CheckSum32+0x17dc818>
 a28:	00657079 	0x657079
 a2c:	55534552 	bnel	t2,s3,11f78 <CheckSum32+0x119e0>
 a30:	435f544c 	c0	0x15f544c
 a34:	4f4d4d4f 	c3	0x14d4d4f
 a38:	45525f4e 	0x45525f4e
 a3c:	56524553 	bnel	s2,s2,11f8c <CheckSum32+0x119f4>
 a40:	65720045 	0x65720045
 a44:	76726573 	jalx	9c995cc <CheckSum32+0x9c99034>
 a48:	69750064 	0x69750064
 a4c:	3631746e 	ori	s1,s1,0x746e
 a50:	73616c00 	0x73616c00
 a54:	75665f74 	jalx	5997dd0 <CheckSum32+0x5997838>
 a58:	695f636e 	0x695f636e
 a5c:	7865646e 	0x7865646e
 a60:	53455200 	beql	k0,a1,15264 <CheckSum32+0x14ccc>
 a64:	5f544c55 	0x5f544c55
 a68:	45544e45 	0x45544e45
 a6c:	544f5f52 	bnel	v0,t7,187b8 <CheckSum32+0x18220>
 a70:	4f535f41 	c3	0x1535f41
 a74:	545f474e 	bnel	v0,ra,127b0 <CheckSum32+0x12218>
 a78:	00545345 	0x545345
 a7c:	72616863 	0x72616863
 a80:	6e6f6300 	0x6e6f6300
 a84:	7463656e 	jalx	18d95b8 <CheckSum32+0x18d9020>
 a88:	7065725f 	udi15	v1,a1,t6,0x9
 a8c:	745f796c 	jalx	17de5b0 <CheckSum32+0x17de018>
 a90:	62616300 	0x62616300
 a94:	735f656c 	0x735f656c
 a98:	65746174 	0x65746174
 a9c:	6e697500 	0x6e697500
 aa0:	00323374 	teq	at,s2,0xcd
 aa4:	6e655f70 	0x6e655f70
 aa8:	79677265 	0x79677265
 aac:	6c61765f 	0x6c61765f
 ab0:	665f6575 	0x665f6575
 ab4:	73716572 	0x73716572
 ab8:	53455200 	beql	k0,a1,152bc <CheckSum32+0x14d24>
 abc:	5f544c55 	0x5f544c55
 ac0:	45544e45 	0x45544e45
 ac4:	54535f52 	bnel	v0,s3,18810 <CheckSum32+0x18278>
 ac8:	445f4255 	0x445f4255
 acc:	47554245 	c1	0x1554245
 ad0:	63617000 	0x63617000
 ad4:	6f635f6b 	0x6f635f6b
 ad8:	00746e75 	0x746e75
 adc:	5f6b7061 	0x5f6b7061
 ae0:	74617473 	jalx	185d1cc <CheckSum32+0x185cc34>
 ae4:	52007375 	beqzl	s0,1d8bc <CheckSum32+0x1d324>
 ae8:	4c555345 	0x4c555345
 aec:	47495f54 	c1	0x1495f54
 af0:	45524f4e 	0x45524f4e
 af4:	74756f00 	jalx	1d5bc00 <CheckSum32+0x1d5b668>
 af8:	705f7265 	0x705f7265
 afc:	6e6f5f61 	0x6e6f5f61
 b00:	61746f00 	0x61746f00
 b04:	6972775f 	0x6972775f
 b08:	705f6574 	0x705f6574
 b0c:	6d617261 	0x6d617261
 b10:	5200745f 	beqzl	s0,1dc90 <CheckSum32+0x1d6f8>
 b14:	4c555345 	0x4c555345
 b18:	4e455f54 	c3	0x455f54
 b1c:	5f524554 	0x5f524554
 b20:	52455355 	beql	s2,a1,15878 <CheckSum32+0x152e0>
 b24:	746f0031 	jalx	1bc00c4 <CheckSum32+0x1bbfb2c>
 b28:	65725f61 	0x65725f61
 b2c:	76696563 	jalx	9a5958c <CheckSum32+0x9a58ff4>
 b30:	72765f65 	0x72765f65
 b34:	645f6d61 	0x645f6d61
 b38:	00617461 	0x617461
 b3c:	74756f61 	jalx	1d5bd84 <CheckSum32+0x1d5b7ec>
 b40:	646f6d5f 	0x646f6d5f
 b44:	5f670065 	0x5f670065
 b48:	6c5f7068 	0x6c5f7068
 b4c:	735f6465 	0x735f6465
 b50:	65746174 	0x65746174
 b54:	75747300 	jalx	5d1cc00 <CheckSum32+0x5d1c668>
 b58:	6f6d5f62 	0x6f6d5f62
 b5c:	665f6564 	0x665f6564
 b60:	0067616c 	0x67616c
 b64:	55534552 	bnel	t2,s3,120b0 <CheckSum32+0x11b18>
 b68:	4c5f544c 	0x4c5f544c
 b6c:	50545341 	beql	v0,s4,15874 <CheckSum32+0x152dc>
 b70:	0059414c 	syscall	0x16505
 b74:	74746162 	jalx	1d18588 <CheckSum32+0x1d17ff0>
 b78:	5f797265 	0x5f797265
 b7c:	6f706572 	0x6f706572
 b80:	655f7472 	0x655f7472
 b84:	6c62616e 	0x6c62616e
 b88:	6f640065 	0x6f640065
 b8c:	656c6275 	0x656c6275
 b90:	53455200 	beql	k0,a1,15394 <CheckSum32+0x14dfc>
 b94:	5f544c55 	0x5f544c55
 b98:	464e4f43 	c1	0x4e4f43
 b9c:	435f4749 	c0	0x15f4749
 ba0:	47524148 	c1	0x1524148
 ba4:	6f630045 	0x6f630045
 ba8:	63656e6e 	0x63656e6e
 bac:	736d5f74 	0x736d5f74
 bb0:	61640067 	0x61640067
 bb4:	00316174 	teq	at,s1,0x185
 bb8:	61746164 	0x61746164
 bbc:	61640032 	0x61640032
 bc0:	67006174 	0x67006174
 bc4:	6361625f 	0x6361625f
 bc8:	5f70756b 	0x5f70756b
 bcc:	74726170 	jalx	1c985c0 <CheckSum32+0x1c98028>
 bd0:	6464615f 	0x6464615f
 bd4:	45520072 	0x45520072
 bd8:	544c5553 	bnel	v0,t4,16128 <CheckSum32+0x15b90>
 bdc:	4149445f 	0x4149445f
 be0:	5f474f4c 	0x5f474f4c
 be4:	6f004f4e 	0x6f004f4e
 be8:	725f6174 	0x725f6174
 bec:	69656365 	0x69656365
 bf0:	645f6576 	0x645f6576
 bf4:	00617461 	0x617461
 bf8:	55534552 	bnel	t2,s3,12144 <CheckSum32+0x11bac>
 bfc:	465f544c 	c1	0x5f544c
 c00:	4543524f 	0x4543524f
 c04:	5354545f 	beql	k0,s4,15d84 <CheckSum32+0x157ec>
 c08:	4f54535f 	c3	0x154535f
 c0c:	61640050 	0x61640050
 c10:	6c5f6174 	0x6c5f6174
 c14:	52006e65 	beqzl	s0,1c5ac <CheckSum32+0x1c014>
 c18:	4c555345 	0x4c555345
 c1c:	49445f54 	0x49445f54
 c20:	474f4c41 	c1	0x14f4c41
 c24:	004b4f5f 	0x4b4f5f
 c28:	5f737774 	0x5f737774
 c2c:	6e6e6f63 	0x6e6e6f63
 c30:	5f746365 	0x5f746365
 c34:	00617473 	tltu	v1,at,0x1d1
 c38:	6e655f70 	0x6e655f70
 c3c:	79677265 	0x79677265
 c40:	6c61765f 	0x6c61765f
 c44:	625f6575 	0x625f6575
 c48:	73646e61 	0x73646e61
 c4c:	6e6f6c00 	0x6e6f6c00
 c50:	6f6c2067 	0x6f6c2067
 c54:	7520676e 	jalx	4819db8 <CheckSum32+0x4819820>
 c58:	6769736e 	0x6769736e
 c5c:	2064656e 	addi	a0,v1,25966
 c60:	00746e69 	0x746e69
 c64:	656e6e69 	0x656e6e69
 c68:	61705f72 	0x61705f72
 c6c:	696e695f 	0x696e695f
 c70:	00646574 	teq	v1,a0,0x195
 c74:	55534552 	bnel	t2,s3,121c0 <CheckSum32+0x11c28>
 c78:	455f544c 	0x455f544c
 c7c:	525f4453 	beql	s2,ra,11dcc <CheckSum32+0x11834>
 c80:	41545345 	0x41545345
 c84:	52005452 	beqzl	s0,15dd0 <CheckSum32+0x15838>
 c88:	4c555345 	0x4c555345
 c8c:	4e455f54 	c3	0x455f54
 c90:	5f524554 	0x5f524554
 c94:	5f41544f 	0x5f41544f
 c98:	52475055 	beql	s2,a3,14df0 <CheckSum32+0x14858>
 c9c:	00454441 	0x454441
 ca0:	5f636572 	0x5f636572
 ca4:	61746164 	0x61746164
 ca8:	6174735f 	0x6174735f
 cac:	63006574 	0x63006574
 cb0:	6b636568 	0x6b636568
 cb4:	006d7573 	tltu	v1,t5,0x1d5
 cb8:	74736572 	jalx	1cd95c8 <CheckSum32+0x1cd9030>
 cbc:	5f65726f 	0x5f65726f
 cc0:	61657262 	0x61657262
 cc4:	696f706b 	0x696f706b
 cc8:	745f746e 	jalx	17dd1b8 <CheckSum32+0x17dcc20>
 ccc:	53455200 	beql	k0,a1,154d0 <CheckSum32+0x14f38>
 cd0:	5f544c55 	0x5f544c55
 cd4:	45544e45 	0x45544e45
 cd8:	53415f52 	beql	k0,at,18a24 <CheckSum32+0x1848c>
 cdc:	485f5451 	0x485f5451
 ce0:	45545f46 	0x45545f46
 ce4:	63005453 	0x63005453
 ce8:	6b636568 	0x6b636568
 cec:	6e656c5f 	0x6e656c5f
 cf0:	53455200 	beql	k0,a1,154f4 <CheckSum32+0x14f5c>
 cf4:	5f544c55 	0x5f544c55
 cf8:	45544e45 	0x45544e45
 cfc:	494c5f52 	0x494c5f52
 d00:	4e49454e 	c3	0x49454e
 d04:	6e617200 	0x6e617200
 d08:	5f6d6f64 	0x5f6d6f64
 d0c:	5f677075 	0x5f677075
 d10:	006c6176 	tne	v1,t4,0x185
 d14:	55534552 	bnel	t2,s3,12260 <CheckSum32+0x11cc8>
 d18:	445f544c 	0x445f544c
 d1c:	4f4c4149 	c3	0x14c4149
 d20:	41435f47 	0x41435f47
 d24:	4c45434e 	0x4c45434e
 d28:	53455200 	beql	k0,a1,1552c <CheckSum32+0x14f94>
 d2c:	5f544c55 	0x5f544c55
 d30:	4c414944 	0x4c414944
 d34:	435f474f 	c0	0x15f474f
 d38:	45434e41 	0x45434e41
 d3c:	55415f4c 	bnel	t2,at,18a70 <CheckSum32+0x184d8>
 d40:	61004f54 	0x61004f54
 d44:	695f7070 	0x695f7070
 d48:	5f6f666e 	0x5f6f666e
 d4c:	74617473 	jalx	185d1cc <CheckSum32+0x185cc34>
 d50:	00745f65 	0x745f65
 d54:	55534552 	bnel	t2,s3,122a0 <CheckSum32+0x11d08>
 d58:	415f544c 	0x415f544c
 d5c:	4d52414c 	0x4d52414c
 d60:	4f4e535f 	c3	0x14e535f
 d64:	00455a4f 	0x455a4f
 d68:	74726170 	jalx	1c985c0 <CheckSum32+0x1c98028>
 d6c:	7361625f 	udi15	k1,at,t4,0x9
 d70:	666f5f65 	0x666f5f65
 d74:	74657366 	jalx	195cd98 <CheckSum32+0x195c800>
 d78:	74617000 	jalx	185c000 <CheckSum32+0x185ba68>
 d7c:	645f6863 	0x645f6863
 d80:	6c6e776f 	0x6c6e776f
 d84:	5f64616f 	0x5f64616f
 d88:	67616c66 	0x67616c66
 d8c:	6d657400 	0x6d657400
 d90:	61645f70 	0x61645f70
 d94:	625f6174 	0x625f6174
 d98:	65666675 	0x65666675
 d9c:	656e0072 	0x656e0072
 da0:	755f6465 	jalx	57d9194 <CheckSum32+0x57d8bfc>
 da4:	74616470 	jalx	18591c0 <CheckSum32+0x1858c28>
 da8:	6c705f65 	0x6c705f65
 dac:	696c7961 	0x696c7961
 db0:	52007473 	beqzl	s0,1df80 <CheckSum32+0x1d9e8>
 db4:	4c555345 	0x4c555345
 db8:	414d5f54 	0x414d5f54
 dbc:	4c41554e 	0x4c41554e
 dc0:	4145535f 	0x4145535f
 dc4:	5f484352 	0x5f484352
 dc8:	4e574f44 	c3	0x574f44
 dcc:	72617000 	0x72617000
 dd0:	68635f74 	0x68635f74
 dd4:	736b6365 	0x736b6365
 dd8:	52006d75 	beqzl	s0,1c3b0 <CheckSum32+0x1be18>
 ddc:	4c555345 	0x4c555345
 de0:	59535f54 	0x59535f54
 de4:	4d455453 	0x4d455453
 de8:	544e455f 	bnel	v0,t6,12368 <CheckSum32+0x11dd0>
 dec:	535f5245 	beql	k0,ra,15704 <CheckSum32+0x1516c>
 df0:	70610033 	0x70610033
 df4:	74735f70 	jalx	1cd7dc0 <CheckSum32+0x1cd7828>
 df8:	00657461 	0x657461
 dfc:	72656e65 	0x72656e65
 e00:	615f7967 	0x615f7967
 e04:	6c696176 	0x6c696176
 e08:	656c6261 	0x656c6261
 e0c:	616c665f 	0x616c665f
 e10:	6e690067 	0x6e690067
 e14:	00786564 	0x786564
 e18:	736f6875 	0x736f6875
 e1c:	74735f74 	jalx	1cd7dd0 <CheckSum32+0x1cd7838>
 e20:	00657461 	0x657461
 e24:	7473616c 	jalx	1cd85b0 <CheckSum32+0x1cd8018>
 e28:	7379735f 	udi15	k1,t9,t6,0xd
 e2c:	6174735f 	0x6174735f
 e30:	00737574 	teq	v1,s3,0x1d5
 e34:	74726170 	jalx	1c985c0 <CheckSum32+0x1c98028>
 e38:	6972775f 	0x6972775f
 e3c:	6f5f6574 	0x6f5f6574
 e40:	65736666 	0x65736666
 e44:	75610074 	jalx	58401d0 <CheckSum32+0x583fc38>
 e48:	65746f74 	0x65746f74
 e4c:	6d5f7473 	0x6d5f7473
 e50:	0065646f 	0x65646f
 e54:	55534552 	bnel	t2,s3,123a0 <CheckSum32+0x11e08>
 e58:	415f544c 	0x415f544c
 e5c:	5f4f5455 	0x5f4f5455
 e60:	52414553 	beql	s2,at,123b0 <CheckSum32+0x11e18>
 e64:	73004843 	0x73004843
 e68:	74726f68 	jalx	1c9bda0 <CheckSum32+0x1c9b808>
 e6c:	746e6920 	jalx	1b9a480 <CheckSum32+0x1b99ee8>
 e70:	73657200 	0x73657200
 e74:	64767265 	0x64767265
 e78:	5f670032 	0x5f670032
 e7c:	5f707061 	0x5f707061
 e80:	7473616c 	jalx	1cd85b0 <CheckSum32+0x1cd8018>
 e84:	6174735f 	0x6174735f
 e88:	Address 0xe88 is out of bounds.

Disassembly of section .comment:

00000000 <.comment>:
   0:	43434700 	c0	0x1434700
   4:	4728203a 	c1	0x128203a
   8:	2029554e 	addi	t1,at,21838
   c:	2e342e33 	sltiu	s4,s1,11827
  10:	696d2034 	0x696d2034
  14:	64737370 	0x64737370
  18:	2e362d65 	sltiu	s6,s1,11621
  1c:	302e3630 	andi	t6,at,0x3630
  20:	30322d31 	andi	s2,at,0x2d31
  24:	34303730 	ori	s0,at,0x3730
  28:	Address 0x28 is out of bounds.

