In archive common_ota.a:

Ota_rcp_q_cmd_deal.o:     file format elf32-tradlittlemips

Disassembly of section .text:

00000000 <message_copy>:
   0:	64e3      	save	24,ra,s0
   2:	ed11      	zeb	a1
   4:	7501      	cmpi	a1,1
   6:	6107      	btnez	16 <message_copy+0x16>
   8:	b30e      	lw	v1,40 <message_copy+0x40>
   a:	b20f      	lw	v0,44 <message_copy+0x44>
   c:	9ba0      	lw	a1,0(v1)
   e:	6e10      	li	a2,16
  10:	ea40      	jalr	v0
  12:	6f00      	li	a3,0
  14:	1013      	b	3c <message_copy+0x3c>
  16:	7502      	cmpi	a1,2
  18:	b00b      	lw	s0,44 <message_copy+0x44>
  1a:	b50a      	lw	a1,40 <message_copy+0x40>
  1c:	6104      	btnez	26 <message_copy+0x26>
  1e:	9da0      	lw	a1,0(a1)
  20:	6e10      	li	a2,16
  22:	4d10      	addiu	a1,16
  24:	1009      	b	38 <message_copy+0x38>
  26:	b209      	lw	v0,48 <message_copy+0x48>
  28:	9dc0      	lw	a2,0(a1)
  2a:	f020 a2ee 	lbu	a3,46(v0)
  2e:	f020 c6ec 	sb	a3,44(a2)
  32:	9da0      	lw	a1,0(a1)
  34:	6e0e      	li	a2,14
  36:	4d20      	addiu	a1,32
  38:	e840      	jalr	s0
  3a:	6f00      	li	a3,0
  3c:	6463      	restore	24,ra,s0
  3e:	e8a0      	jrc	ra
	...

0000004c <ota_enquiry_message>:
  4c:	64c8      	save	64,ra
  4e:	040a      	addiu	a0,sp,40
  50:	1800 0000 	jal	0 <message_copy>
  54:	6d03      	li	a1,3
  56:	b215      	lw	v0,a8 <ota_enquiry_message+0x5c>
  58:	9a60      	lw	v1,0(v0)
  5a:	f020 a3b2 	lbu	a1,50(v1)
  5e:	250a      	beqz	a1,74 <ota_enquiry_message+0x28>
  60:	6c00      	li	a0,0
  62:	6d00      	li	a1,0
  64:	b212      	lw	v0,ac <ota_enquiry_message+0x60>
  66:	f020 c392 	sb	a0,50(v1)
  6a:	67c5      	move	a2,a1
  6c:	0c07      	la	a0,88 <ota_enquiry_message+0x3c>
  6e:	ea40      	jalr	v0
  70:	6f4b      	li	a3,75
  72:	1006      	b	80 <ota_enquiry_message+0x34>
  74:	6f0e      	li	a3,14
  76:	b30f      	lw	v1,b0 <ota_enquiry_message+0x64>
  78:	d704      	sw	a3,16(sp)
  7a:	6785      	move	a0,a1
  7c:	eb40      	jalr	v1
  7e:	0606      	addiu	a2,sp,24
  80:	6a00      	li	v0,0
  82:	6448      	restore	64,ra
  84:	e8a0      	jrc	ra
  86:	0000      	addiu	s0,sp,0
  88:	5f67      	sltiu	a3,103
  8a:	6573      	move	s3,v1
  8c:	646e      	restore	112,ra,s0
  8e:	655f      	move	k0,a3
  90:	7272      	cmpi	v0,114
  92:	5f6f      	sltiu	a3,111
  94:	6f63      	li	a3,99
  96:	6e75      	li	a2,117
  98:	2074      	beqz	s0,182 <ota_get_ver_num+0x6>
  9a:	6863      	li	s0,99
  9c:	6e61      	li	a2,97
  9e:	6568      	move	t3,s0
  a0:	7420      	cmpi	a0,32
  a2:	206f      	beqz	s0,182 <ota_get_ver_num+0x6>
  a4:	0030      	addiu	s0,sp,192
	...

000000b4 <ota_enquiry_connect>:
  b4:	64f9      	save	72,ra,s0-s1
  b6:	6d00      	li	a1,0
  b8:	b11f      	lw	s1,134 <ota_enquiry_connect+0x80>
  ba:	0c13      	la	a0,104 <ota_enquiry_connect+0x50>
  bc:	67c5      	move	a2,a1
  be:	e940      	jalr	s1
  c0:	6f4b      	li	a3,75
  c2:	b11e      	lw	s1,138 <ota_enquiry_connect+0x84>
  c4:	000a      	addiu	s0,sp,40
  c6:	9960      	lw	v1,0(s1)
  c8:	a350      	lbu	v0,16(v1)
  ca:	7205      	cmpi	v0,5
  cc:	610d      	btnez	e8 <ota_enquiry_connect+0x34>
  ce:	6790      	move	a0,s0
  d0:	1800 0000 	jal	0 <message_copy>
  d4:	6d02      	li	a1,2
  d6:	9980      	lw	a0,0(s1)
  d8:	6d00      	li	a1,0
  da:	c4b0      	sb	a1,16(a0)
  dc:	6c00      	li	a0,0
  de:	6f10      	li	a3,16
  e0:	67a4      	move	a1,a0
  e2:	67d0      	move	a2,s0
  e4:	d704      	sw	a3,16(sp)
  e6:	1009      	b	fa <ota_enquiry_connect+0x46>
  e8:	6790      	move	a0,s0
  ea:	1800 0000 	jal	0 <message_copy>
  ee:	6d01      	li	a1,1
  f0:	6f10      	li	a3,16
  f2:	6c00      	li	a0,0
  f4:	d704      	sw	a3,16(sp)
  f6:	67a4      	move	a1,a0
  f8:	0606      	addiu	a2,sp,24
  fa:	b211      	lw	v0,13c <ota_enquiry_connect+0x88>
  fc:	eac0      	jalrc	v0
  fe:	6a00      	li	v0,0
 100:	6479      	restore	72,ra,s0-s1
 102:	e8a0      	jrc	ra
 104:	6572      	move	s3,v0
 106:	6563      	move	v1,v1
 108:	7669      	cmpi	a2,105
 10a:	2065      	beqz	s0,1d6 <reboot_system+0x1e>
 10c:	6e65      	li	a2,101
 10e:	7571      	cmpi	a1,113
 110:	7269      	cmpi	v0,105
 112:	2079      	beqz	s0,206 <reboot_system+0x4e>
 114:	6f63      	li	a3,99
 116:	6e6e      	li	a2,110
 118:	6365      	addiu	sp,808
 11a:	2074      	beqz	s0,204 <reboot_system+0x4c>
 11c:	7573      	cmpi	a1,115
 11e:	6363      	addiu	sp,792
 120:	7365      	cmpi	v1,101
 122:	2073      	beqz	s0,20a <reboot_system+0x52>
 124:	726f      	cmpi	v0,111
 126:	6e20      	li	a2,32
 128:	746f      	cmpi	a0,111
 12a:	4320      	addiu	s1,v1,0
 12c:	444d      	addiu	v0,a0,-3
 12e:	2120      	beqz	s1,170 <get_ver_message+0x30>
 130:	0021      	addiu	s0,sp,132
	...

00000140 <get_ver_message>:
 140:	64f4      	save	32,ra,s0-s1
 142:	b10d      	lw	s1,174 <get_ver_message+0x34>
 144:	6704      	move	s0,a0
 146:	e940      	jalr	s1
 148:	6c0a      	li	a0,10
 14a:	c840      	sh	v0,0(s0)
 14c:	e940      	jalr	s1
 14e:	6c0b      	li	a0,11
 150:	b10a      	lw	s1,178 <get_ver_message+0x38>
 152:	4084      	addiu	a0,s0,4
 154:	c841      	sh	v0,2(s0)
 156:	6d08      	li	a1,8
 158:	6e04      	li	a2,4
 15a:	e940      	jalr	s1
 15c:	6f1b      	li	a3,27
 15e:	6790      	move	a0,s0
 160:	4c08      	addiu	a0,8
 162:	f1c0 6d10 	li	a1,464
 166:	6e08      	li	a2,8
 168:	e940      	jalr	s1
 16a:	6f1b      	li	a3,27
 16c:	6a01      	li	v0,1
 16e:	6474      	restore	32,ra,s0-s1
 170:	e8a0      	jrc	ra
	...

0000017c <ota_get_ver_num>:
 17c:	64c8      	save	64,ra
 17e:	6d00      	li	a1,0
 180:	b20c      	lw	v0,1b0 <ota_get_ver_num+0x34>
 182:	67c5      	move	a2,a1
 184:	0c08      	la	a0,1a4 <ota_get_ver_num+0x28>
 186:	ea40      	jalr	v0
 188:	6f4b      	li	a3,75
 18a:	1800 0000 	jal	0 <message_copy>
 18e:	040a      	addiu	a0,sp,40
 190:	6f10      	li	a3,16
 192:	6c00      	li	a0,0
 194:	b208      	lw	v0,1b4 <ota_get_ver_num+0x38>
 196:	d704      	sw	a3,16(sp)
 198:	67a4      	move	a1,a0
 19a:	ea40      	jalr	v0
 19c:	0606      	addiu	a2,sp,24
 19e:	6a00      	li	v0,0
 1a0:	6448      	restore	64,ra
 1a2:	e8a0      	jrc	ra
 1a4:	6567      	move	v1,a3
 1a6:	5f74      	sltiu	a3,116
 1a8:	6576      	move	s3,a2
 1aa:	5f72      	sltiu	a3,114
 1ac:	756e      	cmpi	a1,110
 1ae:	006d      	addiu	s0,sp,436
	...

000001b8 <reboot_system>:
 1b8:	b405      	lw	a0,1cc <reboot_system+0x14>
 1ba:	6d2f      	li	a1,47
 1bc:	9c40      	lw	v0,0(a0)
 1be:	ebab      	neg	v1,a1
 1c0:	ea6c      	and	v0,v1
 1c2:	4b40      	addiu	v1,64
 1c4:	ea6d      	or	v0,v1
 1c6:	dc40      	sw	v0,0(a0)
 1c8:	17ff      	b	1c8 <reboot_system+0x10>
 1ca:	0000      	addiu	s0,sp,0
 1cc:	001c      	addiu	s0,sp,112
 1ce:	c012      	sb	s0,18(s0)
Disassembly of section .reginfo:

00000000 <.reginfo>:
   0:	a10100ff 	sb	at,255(t0)
	...
Disassembly of section .pdr:

00000000 <.pdr>:
   0:	00000000 	nop
   4:	80010000 	lb	at,0(zero)
   8:	fffffffc 	sdc3	$31,-4(ra)
	...
  14:	00000018 	mult	zero,zero
  18:	0000001d 	0x1d
  1c:	0000001f 	0x1f
  20:	00000000 	nop
  24:	80000000 	lb	zero,0(zero)
  28:	fffffffc 	sdc3	$31,-4(ra)
	...
  34:	00000040 	ssnop
  38:	0000001d 	0x1d
  3c:	0000001f 	0x1f
  40:	00000000 	nop
  44:	80030000 	lb	v1,0(zero)
  48:	fffffffc 	sdc3	$31,-4(ra)
	...
  54:	00000048 	0x48
  58:	0000001d 	0x1d
  5c:	0000001f 	0x1f
  60:	00000000 	nop
  64:	80030000 	lb	v1,0(zero)
  68:	fffffffc 	sdc3	$31,-4(ra)
	...
  74:	00000020 	add	zero,zero,zero
  78:	0000001d 	0x1d
  7c:	0000001f 	0x1f
  80:	00000000 	nop
  84:	80000000 	lb	zero,0(zero)
  88:	fffffffc 	sdc3	$31,-4(ra)
	...
  94:	00000040 	ssnop
  98:	0000001d 	0x1d
  9c:	0000001f 	0x1f
	...
  b8:	0000001d 	0x1d
  bc:	0000001f 	0x1f
Disassembly of section .debug_abbrev:

00000000 <.debug_abbrev>:
   0:	10011101 	beq	zero,at,4408 <reboot_system+0x4250>
   4:	11011206 	beq	t0,at,4820 <reboot_system+0x4668>
   8:	130e2501 	beq	t8,t6,9410 <reboot_system+0x9258>
   c:	1b0e030b 	0x1b0e030b
  10:	0200000e 	0x200000e
  14:	0e030024 	jal	80c0090 <reboot_system+0x80bfed8>
  18:	0b3e0b0b 	j	cf82c2c <reboot_system+0xcf82a74>
  1c:	16030000 	bne	s0,v1,20 <.debug_abbrev+0x20>
  20:	3a0e0300 	xori	t6,s0,0x300
  24:	490b3b0b 	bc2tl	$cc2,ec54 <reboot_system+0xea9c>
  28:	04000013 	bltz	zero,78 <.debug_abbrev+0x78>
  2c:	08030024 	j	c0090 <reboot_system+0xbfed8>
  30:	0b3e0b0b 	j	cf82c2c <reboot_system+0xcf82a74>
  34:	0f050000 	jal	c140000 <reboot_system+0xc13fe48>
  38:	000b0b00 	sll	at,t3,0xc
  3c:	01130600 	0x1130600
  40:	0b0b1301 	j	c2c4c04 <reboot_system+0xc2c4a4c>
  44:	0b3b0b3a 	j	cec2ce8 <reboot_system+0xcec2b30>
  48:	0d070000 	jal	41c0000 <reboot_system+0x41bfe48>
  4c:	3a080300 	xori	t0,s0,0x300
  50:	490b3b0b 	bc2tl	$cc2,ec80 <reboot_system+0xeac8>
  54:	000a3813 	0xa3813
  58:	000d0800 	sll	at,t5,0x0
  5c:	0b3a0e03 	j	ce8380c <reboot_system+0xce83654>
  60:	13490b3b 	beq	k0,t1,2d50 <reboot_system+0x2b98>
  64:	00000a38 	0xa38
  68:	01010109 	0x1010109
  6c:	00134913 	0x134913
  70:	00210a00 	0x210a00
  74:	0b2f1349 	j	cbc4d24 <reboot_system+0xcbc4b6c>
  78:	040b0000 	tltiu	zero,0
  7c:	0b130101 	j	c4c0404 <reboot_system+0xc4c024c>
  80:	3b0b3a0b 	xori	t3,t8,0x3a0b
  84:	0c00000b 	jal	2c <.debug_abbrev+0x2c>
  88:	0e030028 	jal	80c00a0 <reboot_system+0x80bfee8>
  8c:	00000d1c 	0xd1c
  90:	0300160d 	break	0x300,0x58
  94:	3b0b3a0e 	xori	t3,t8,0x3a0e
  98:	00134905 	0x134905
  9c:	01130e00 	0x1130e00
  a0:	0b0b1301 	j	c2c4c04 <reboot_system+0xc2c4a4c>
  a4:	053b0b3a 	0x53b0b3a
  a8:	0d0f0000 	jal	43c0000 <reboot_system+0x43bfe48>
  ac:	3a0e0300 	xori	t6,s0,0x300
  b0:	49053b0b 	bc2t	$cc1,ece0 <reboot_system+0xeb28>
  b4:	000a3813 	0xa3813
  b8:	000d1000 	sll	v0,t5,0x0
  bc:	0b3a0e03 	j	ce8380c <reboot_system+0xce83654>
  c0:	1349053b 	beq	k0,t1,15b0 <reboot_system+0x13f8>
  c4:	0b0d0b0b 	j	c342c2c <reboot_system+0xc342a74>
  c8:	0a380b0c 	j	8e02c30 <reboot_system+0x8e02a78>
  cc:	0f110000 	jal	c440000 <reboot_system+0xc43fe48>
  d0:	490b0b00 	bc2tl	$cc2,2cd4 <reboot_system+0x2b1c>
  d4:	12000013 	beqz	s0,124 <.debug_abbrev+0x124>
  d8:	0e03000d 	jal	80c0034 <reboot_system+0x80bfe7c>
  dc:	0b3b0b3a 	j	cec2ce8 <reboot_system+0xcec2b30>
  e0:	0b0b1349 	j	c2c4d24 <reboot_system+0xc2c4b6c>
  e4:	0b0c0b0d 	j	c302c34 <reboot_system+0xc302a7c>
  e8:	00000a38 	0xa38
  ec:	01012e13 	0x1012e13
  f0:	030c3f13 	0x30c3f13
  f4:	3b0b3a0e 	xori	t3,t8,0x3a0e
  f8:	490c270b 	bc2f	$cc3,9d28 <reboot_system+0x9b70>
  fc:	12011113 	beq	s0,at,454c <reboot_system+0x4394>
 100:	000a4001 	0xa4001
 104:	00051400 	sll	v0,a1,0x10
 108:	0b3a0e03 	j	ce8380c <reboot_system+0xce83654>
 10c:	13490b3b 	beq	k0,t1,2dfc <reboot_system+0x2c44>
 110:	00000a02 	srl	at,zero,0x8
 114:	03003415 	0x3003415
 118:	3b0b3a0e 	xori	t3,t8,0x3a0e
 11c:	0213490b 	0x213490b
 120:	1600000a 	bnez	s0,14c <.debug_abbrev+0x14c>
 124:	0e030034 	jal	80c00d0 <reboot_system+0x80bff18>
 128:	0b3b0b3a 	j	cec2ce8 <reboot_system+0xcec2b30>
 12c:	00001349 	0x1349
 130:	01012e17 	0x1012e17
 134:	030c3f13 	0x30c3f13
 138:	3b0b3a0e 	xori	t3,t8,0x3a0e
 13c:	110c270b 	beq	t0,t4,9d6c <reboot_system+0x9bb4>
 140:	40011201 	0x40011201
 144:	1800000a 	blez	zero,170 <get_ver_message+0x30>
 148:	0e030034 	jal	80c00d0 <reboot_system+0x80bff18>
 14c:	0b3b0b3a 	j	cec2ce8 <reboot_system+0xcec2b30>
 150:	0c3f1349 	jal	fc4d24 <reboot_system+0xfc4b6c>
 154:	00000c3c 	0xc3c
 158:	03003419 	0x3003419
 15c:	3b0b3a0e 	xori	t3,t8,0x3a0e
 160:	3f134905 	0x3f134905
 164:	000c3c0c 	syscall	0x30f0
	...
Disassembly of section .debug_info:

00000000 <.debug_info>:
   0:	00000d57 	0xd57
   4:	00000002 	srl	zero,zero,0x0
   8:	01040000 	0x1040000
   c:	00000000 	nop
  10:	000001d0 	0x1d0
  14:	00000000 	nop
  18:	000005a0 	0x5a0
  1c:	000c6901 	0xc6901
  20:	00047100 	sll	t6,a0,0x4
  24:	04ea0200 	tlti	a3,512
  28:	08010000 	j	40000 <reboot_system+0x3fe48>
  2c:	00071e03 	sra	v1,a3,0x18
  30:	250f0800 	addiu	t7,t0,2048
  34:	02000000 	0x2000000
  38:	000008cc 	syscall	0x23
  3c:	2c020601 	sltiu	v0,zero,1537
  40:	02000001 	movf	zero,s0,$fcc0
  44:	0fdb0207 	jal	f6c081c <reboot_system+0xf6c0664>
  48:	05020000 	bltzl	t0,4c <.debug_info+0x4c>
  4c:	0003fb02 	srl	ra,v1,0xc
  50:	02070400 	0x2070400
  54:	000009ec 	0x9ec
  58:	08020504 	j	81410 <reboot_system+0x81258>
  5c:	04000005 	bltz	zero,74 <.debug_info+0x74>
  60:	0c390204 	jal	e40810 <reboot_system+0xe40658>
  64:	04080000 	tgei	zero,0
  68:	000d9902 	srl	s3,t5,0x4
  6c:	02070800 	0x2070800
  70:	00000533 	tltu	zero,zero,0x14
  74:	14020508 	bne	zero,v0,1498 <reboot_system+0x12e0>
  78:	04000000 	bltz	zero,7c <.debug_info+0x7c>
  7c:	02560307 	0x2560307
  80:	15020000 	bne	t0,v0,84 <.debug_info+0x84>
  84:	00000025 	move	zero,zero
  88:	000aa103 	sra	s4,t2,0x4
  8c:	3e1d0200 	0x3e1d0200
  90:	03000000 	0x3000000
  94:	00000b2d 	0xb2d
  98:	00762502 	0x762502
  9c:	69040000 	0x69040000
  a0:	0400746e 	bltz	zero,1d25c <reboot_system+0x1d0a4>
  a4:	0aeb0205 	j	bac0814 <reboot_system+0xbac065c>
  a8:	06010000 	bgez	s0,ac <.debug_info+0xac>
  ac:	0003fb02 	srl	ra,v1,0xc
  b0:	05070400 	0x5070400
  b4:	00e80604 	0xe80604
  b8:	05080000 	tgei	t0,0
  bc:	49500778 	0x49500778
  c0:	75050044 	jalx	4140110 <reboot_system+0x413ff58>
  c4:	0000003e 	0x3e
  c8:	07002302 	bltz	t8,8cd4 <reboot_system+0x8b1c>
  cc:	00444956 	0x444956
  d0:	003e7605 	0x3e7605
  d4:	23020000 	addi	v0,t8,0
  d8:	05980802 	0x5980802
  dc:	77050000 	jalx	c140000 <reboot_system+0xc13fe48>
  e0:	000000e8 	0xe8
  e4:	00042302 	srl	a0,a0,0xc
  e8:	0000f809 	jalr	zero
  ec:	0000a500 	sll	s4,zero,0x14
  f0:	00ac0a00 	0xac0a00
  f4:	00030000 	sll	zero,v1,0x0
  f8:	00068003 	sra	s0,a2,0x0
  fc:	b5780500 	0xb5780500
 100:	06000000 	bltz	s0,104 <.debug_info+0x104>
 104:	00000128 	0x128
 108:	087e0510 	j	1f81440 <reboot_system+0x1f81288>
 10c:	00000ece 	0xece
 110:	00f87c05 	0xf87c05
 114:	23020000 	addi	v0,t8,0
 118:	09830800 	j	60c2000 <reboot_system+0x60c1e48>
 11c:	7d050000 	0x7d050000
 120:	00000128 	0x128
 124:	00082302 	srl	a0,t0,0xc
 128:	00013809 	0x13809
 12c:	0000a500 	sll	s4,zero,0x14
 130:	00ac0a00 	0xac0a00
 134:	00070000 	sll	zero,a3,0x0
 138:	00089403 	sra	s2,t0,0x10
 13c:	037e0500 	0x37e0500
 140:	0b000001 	j	c000004 <reboot_system+0xbfffe4c>
 144:	00000362 	0x362
 148:	0ce00302 	jal	3800c08 <reboot_system+0x3800a50>
 14c:	000003df 	0x3df
 150:	0b8a0c00 	j	e283000 <reboot_system+0xe282e48>
 154:	0c010000 	jal	40000 <reboot_system+0x3fe48>
 158:	00000739 	0x739
 15c:	06130c02 	bgezall	s0,3168 <reboot_system+0x2fb0>
 160:	0c030000 	jal	c0000 <reboot_system+0xbfe48>
 164:	00000a83 	sra	at,zero,0xa
 168:	098a0c20 	j	6283080 <reboot_system+0x6282ec8>
 16c:	01800000 	0x1800000
 170:	0004c10c 	syscall	0x1304
 174:	0c018100 	jal	60400 <reboot_system+0x60248>
 178:	0000025c 	0x25c
 17c:	bf0c0182 	cache	0xc,386(t8)
 180:	83000000 	lb	zero,0(t8)
 184:	02c00c01 	0x2c00c01
 188:	01840000 	0x1840000
 18c:	000cd10c 	syscall	0x3344
 190:	0c018500 	jal	61400 <reboot_system+0x61248>
 194:	00000dff 	0xdff
 198:	e50c01a1 	swc1	$f12,417(t0)
 19c:	ff000001 	sdc3	$0,1(t8)
 1a0:	04f80c01 	0x4f80c01
 1a4:	02800000 	0x2800000
 1a8:	0007700c 	syscall	0x1dc0
 1ac:	0c028100 	jal	a0400 <reboot_system+0xa0248>
 1b0:	00000a0a 	0xa0a
 1b4:	7b0c0282 	0x7b0c0282
 1b8:	83000005 	lb	zero,5(t8)
 1bc:	0e580c02 	jal	9603008 <reboot_system+0x9602e50>
 1c0:	02840000 	0x2840000
 1c4:	0000360c 	syscall	0xd8
 1c8:	0c028500 	jal	a1400 <reboot_system+0xa1248>
 1cc:	00000184 	0x184
 1d0:	1d0c0286 	0x1d0c0286
 1d4:	87000005 	lh	zero,5(t8)
 1d8:	08660c02 	j	1983008 <reboot_system+0x1982e50>
 1dc:	02880000 	0x2880000
 1e0:	00043f0c 	syscall	0x10fc
 1e4:	0c028900 	jal	a2400 <reboot_system+0xa2248>
 1e8:	00000997 	0x997
 1ec:	d40c028a 	ldc1	$f12,650(zero)
 1f0:	8b000001 	lwl	zero,1(t8)
 1f4:	00ae0c02 	0xae0c02
 1f8:	028c0000 	0x28c0000
 1fc:	0008d80c 	syscall	0x2360
 200:	0c028d00 	jal	a3400 <reboot_system+0xa3248>
 204:	00000349 	0x349
 208:	fa0c028e 	sdc2	$12,654(s0)
 20c:	8f000005 	lw	zero,5(t8)
 210:	0a2f0c02 	j	8bc3008 <reboot_system+0x8bc2e50>
 214:	02900000 	0x2900000
 218:	0000e10c 	syscall	0x384
 21c:	0c029100 	jal	a4400 <reboot_system+0xa4248>
 220:	00000626 	0x626
 224:	530c0292 	beql	t8,t4,c70 <.debug_info+0xc70>
 228:	9300000a 	lbu	zero,10(t8)
 22c:	01060c02 	0x1060c02
 230:	02940000 	0x2940000
 234:	000c090c 	syscall	0x3024
 238:	0c029500 	jal	a5400 <reboot_system+0xa5248>
 23c:	000009f5 	0x9f5
 240:	240c0296 	li	t4,662
 244:	97000007 	lhu	zero,7(t8)
 248:	02a20c02 	0x2a20c02
 24c:	02980000 	0x2980000
 250:	00092f0c 	syscall	0x24bc
 254:	0c029900 	jal	a6400 <reboot_system+0xa6248>
 258:	00000eba 	0xeba
 25c:	490c029a 	bc2f	$cc3,cc8 <.debug_info+0xcc8>
 260:	9b000001 	lwr	zero,1(t8)
 264:	021c0c02 	0x21c0c02
 268:	029c0000 	0x29c0000
 26c:	000fb20c 	syscall	0x3ec8
 270:	0c029d00 	jal	a7400 <reboot_system+0xa7248>
 274:	0000016c 	0x16c
 278:	0e0c029e 	jal	8300a78 <reboot_system+0x83008c0>
 27c:	9f00000f 	0x9f00000f
 280:	06e10c02 	bgez	s7,328c <reboot_system+0x30d4>
 284:	02a00000 	0x2a00000
 288:	000c400c 	syscall	0x3100
 28c:	0c02a100 	jal	a8400 <reboot_system+0xa8248>
 290:	0000082d 	0x82d
 294:	3e0c02a2 	0x3e0c02a2
 298:	a300000e 	sb	zero,14(t8)
 29c:	0ba40c02 	j	e903008 <reboot_system+0xe902e50>
 2a0:	02a40000 	0x2a40000
 2a4:	000f280c 	syscall	0x3ca0
 2a8:	0c02a500 	jal	a9400 <reboot_system+0xa9248>
 2ac:	000008fd 	0x8fd
 2b0:	5a0c02a6 	0x5a0c02a6
 2b4:	a700000b 	sh	zero,11(t8)
 2b8:	0ddd0c02 	jal	7743008 <reboot_system+0x7742e50>
 2bc:	02a80000 	0x2a80000
 2c0:	0007d90c 	syscall	0x1f64
 2c4:	0c02a900 	jal	aa400 <reboot_system+0xaa248>
 2c8:	00000ad0 	0xad0
 2cc:	e00c02aa 	sc	t4,682(zero)
 2d0:	ab000002 	swl	zero,2(t8)
 2d4:	02f60c02 	0x2f60c02
 2d8:	02ac0000 	0x2ac0000
 2dc:	00030c0c 	syscall	0xc30
 2e0:	0c02ad00 	jal	ab400 <reboot_system+0xab248>
 2e4:	00000322 	0x322
 2e8:	5d0c02ae 	0x5d0c02ae
 2ec:	af000003 	sw	zero,3(t8)
 2f0:	03730c02 	0x3730c02
 2f4:	02b00000 	0x2b00000
 2f8:	00075a0c 	syscall	0x1d68
 2fc:	0c02b100 	jal	ac400 <reboot_system+0xac248>
 300:	00000389 	0x389
 304:	9f0c02b2 	0x9f0c02b2
 308:	b3000003 	0xb3000003
 30c:	03b50c02 	0x3b50c02
 310:	02b40000 	0x2b40000
 314:	000d210c 	syscall	0x3484
 318:	0c048000 	jal	120000 <reboot_system+0x11fe48>
 31c:	00000e7a 	0xe7a
 320:	ba0c0481 	swr	t4,1153(s0)
 324:	82000009 	lb	zero,9(s0)
 328:	05570c04 	0x5570c04
 32c:	04830000 	bgezl	a0,330 <.debug_info+0x330>
 330:	0009590c 	syscall	0x2564
 334:	0c048400 	jal	121000 <reboot_system+0x120e48>
 338:	000009a8 	0x9a8
 33c:	c00c0485 	ll	t4,1157(zero)
 340:	8600000c 	lh	zero,12(s0)
 344:	0e8f0c04 	jal	a3c3010 <reboot_system+0xa3c2e58>
 348:	04870000 	0x4870000
 34c:	00065d0c 	syscall	0x1974
 350:	0c048800 	jal	122000 <reboot_system+0x121e48>
 354:	000006b9 	0x6b9
 358:	250c0489 	addiu	t4,t0,1161
 35c:	8a000004 	lwl	zero,4(s0)
 360:	870d0004 	lh	t5,4(t8)
 364:	03000008 	jr	t8
 368:	0143017a 	0x143017a
 36c:	7e090000 	0x7e090000
 370:	7d000003 	0x7d000003
 374:	0a000000 	j	8000000 <reboot_system+0x7fffe48>
 378:	000000ac 	0xac
 37c:	9c0e0005 	0x9c0e0005
 380:	1c000004 	bgtz	zero,394 <.debug_info+0x394>
 384:	0f013d07 	jal	c04f41c <reboot_system+0xc04f264>
 388:	000001b9 	0x1b9
 38c:	7d011807 	0x7d011807
 390:	02000000 	0x2000000
 394:	220f0023 	addi	t7,s0,35
 398:	07000009 	bltz	t8,3c0 <.debug_info+0x3c0>
 39c:	007d011a 	0x7d011a
 3a0:	23020000 	addi	v0,t8,0
 3a4:	0f3f0f01 	jal	cfc3c04 <reboot_system+0xcfc3a4c>
 3a8:	1c070000 	0x1c070000
 3ac:	00007d01 	0x7d01
 3b0:	02230200 	0x2230200
 3b4:	00045e0f 	0x45e0f
 3b8:	011e0700 	0x11e0700
 3bc:	0000007d 	0x7d
 3c0:	0f032302 	jal	c0c8c08 <reboot_system+0xc0c8a50>
 3c4:	00000541 	0x541
 3c8:	7d012307 	0x7d012307
 3cc:	02000000 	0x2000000
 3d0:	cb0f0423 	lwc2	$15,1059(t8)
 3d4:	07000003 	bltz	t8,3e4 <.debug_info+0x3e4>
 3d8:	007d0124 	0x7d0124
 3dc:	23020000 	addi	v0,t8,0
 3e0:	04dc1005 	0x4dc1005
 3e4:	25070000 	addiu	a3,t0,0
 3e8:	00007d01 	0x7d01
 3ec:	04040100 	0x4040100
 3f0:	10062302 	beq	zero,a2,8ffc <reboot_system+0x8e44>
 3f4:	00000bfa 	0xbfa
 3f8:	7d012607 	0x7d012607
 3fc:	01000000 	0x1000000
 400:	23020004 	addi	v0,t8,4
 404:	0beb0f06 	j	fac3c18 <reboot_system+0xfac3a60>
 408:	28070000 	slti	a3,zero,0
 40c:	00007d01 	0x7d01
 410:	07230200 	bgezl	t9,c14 <.debug_info+0xc14>
 414:	0007ea0f 	0x7ea0f
 418:	012b0700 	0x12b0700
 41c:	0000007d 	0x7d
 420:	0f082302 	jal	c208c08 <reboot_system+0xc208a50>
 424:	0000096e 	0x96e
 428:	7d012d07 	0x7d012d07
 42c:	02000000 	0x2000000
 430:	230f0923 	addi	t7,t8,2339
 434:	0700000c 	bltz	t8,468 <.debug_info+0x468>
 438:	007d0130 	tge	v1,sp,0x4
 43c:	23020000 	addi	v0,t8,0
 440:	0f610f0a 	jal	d843c28 <reboot_system+0xd843a70>
 444:	33070000 	andi	a3,t8,0x0
 448:	00002c01 	0x2c01
 44c:	0b230200 	j	c8c0800 <reboot_system+0xc8c0648>
 450:	0001c50f 	0x1c50f
 454:	01340700 	0x1340700
 458:	0000049c 	0x49c
 45c:	0f0c2302 	jal	c308c08 <reboot_system+0xc308a50>
 460:	00000d56 	0xd56
 464:	9c013707 	0x9c013707
 468:	02000004 	sllv	zero,zero,s0
 46c:	340f1023 	li	t7,0x1023
 470:	0700000b 	bltz	t8,4a0 <.debug_info+0x4a0>
 474:	049c0138 	0x49c0138
 478:	23020000 	addi	v0,t8,0
 47c:	0a700f14 	j	9c03c50 <reboot_system+0x9c03a98>
 480:	3b070000 	xori	a3,t8,0x0
 484:	00007d01 	0x7d01
 488:	18230200 	0x18230200
 48c:	0005c50f 	0x5c50f
 490:	013c0700 	0x13c0700
 494:	0000007d 	0x7d
 498:	00192302 	srl	a0,t9,0xc
 49c:	00450411 	0x450411
 4a0:	090d0000 	j	4340000 <reboot_system+0x433fe48>
 4a4:	07000007 	bltz	t8,4c4 <.debug_info+0x4c4>
 4a8:	037e013d 	0x37e013d
 4ac:	350e0000 	ori	t6,t0,0x0
 4b0:	18000006 	blez	zero,4cc <.debug_info+0x4cc>
 4b4:	0f017707 	jal	c05dc1c <reboot_system+0xc05da64>
 4b8:	00000021 	move	zero,zero
 4bc:	2c014607 	sltiu	at,zero,17927
 4c0:	02000000 	0x2000000
 4c4:	680f0023 	0x680f0023
 4c8:	0700000a 	bltz	t8,4f4 <.debug_info+0x4f4>
 4cc:	002c0148 	0x2c0148
 4d0:	23020000 	addi	v0,t8,0
 4d4:	0be10f01 	j	f843c04 <reboot_system+0xf843a4c>
 4d8:	4a070000 	c2	0x70000
 4dc:	00007d01 	0x7d01
 4e0:	02230200 	0x2230200
 4e4:	00011c0f 	0x11c0f
 4e8:	014c0700 	0x14c0700
 4ec:	0000007d 	0x7d
 4f0:	0f032302 	jal	c0c8c08 <reboot_system+0xc0c8a50>
 4f4:	00000675 	0x675
 4f8:	7d014e07 	0x7d014e07
 4fc:	02000000 	0x2000000
 500:	770f0423 	jalx	c3c108c <reboot_system+0xc3c0ed4>
 504:	0700000f 	bltz	t8,544 <.debug_info+0x544>
 508:	007d0150 	0x7d0150
 50c:	23020000 	addi	v0,t8,0
 510:	08bf0f05 	j	2fc3c14 <reboot_system+0x2fc3a5c>
 514:	52070000 	beql	s0,a3,518 <.debug_info+0x518>
 518:	00007d01 	0x7d01
 51c:	06230200 	bgezl	s1,d20 <.debug_info+0xd20>
 520:	000b210f 	0xb210f
 524:	01540700 	0x1540700
 528:	0000007d 	0x7d
 52c:	0f072302 	jal	c1c8c08 <reboot_system+0xc1c8a50>
 530:	000006d3 	0x6d3
 534:	2c015607 	sltiu	at,zero,22023
 538:	02000000 	0x2000000
 53c:	ed0f0823 	swc3	$15,2083(t0)
 540:	07000005 	bltz	t8,558 <.debug_info+0x558>
 544:	007d0158 	0x7d0158
 548:	23020000 	addi	v0,t8,0
 54c:	013f0f09 	0x13f0f09
 550:	5a070000 	0x5a070000
 554:	00007d01 	0x7d01
 558:	0a230200 	j	88c0800 <reboot_system+0x88c0648>
 55c:	00040d0f 	0x40d0f
 560:	015c0700 	0x15c0700
 564:	0000002c 	0x2c
 568:	100b2302 	beq	zero,t3,9174 <reboot_system+0x8fbc>
 56c:	0000056b 	0x56b
 570:	7d015e07 	0x7d015e07
 574:	01000000 	0x1000000
 578:	23020107 	addi	v0,t8,263
 57c:	05c5100c 	0x5c5100c
 580:	5f070000 	0x5f070000
 584:	00007d01 	0x7d01
 588:	00010100 	sll	zero,at,0x4
 58c:	0f0c2302 	jal	c308c08 <reboot_system+0xc308a50>
 590:	00000fa4 	0xfa4
 594:	7d016107 	0x7d016107
 598:	02000000 	0x2000000
 59c:	e50f0d23 	swc1	$f15,3363(t0)
 5a0:	0700000e 	bltz	t8,5dc <.debug_info+0x5dc>
 5a4:	002c0164 	0x2c0164
 5a8:	23020000 	addi	v0,t8,0
 5ac:	08a40f0e 	j	2903c38 <reboot_system+0x2903a80>
 5b0:	66070000 	0x66070000
 5b4:	00002c01 	0x2c01
 5b8:	0f230200 	jal	c8c0800 <reboot_system+0xc8c0648>
 5bc:	000dc40f 	0xdc40f
 5c0:	01680700 	0x1680700
 5c4:	0000002c 	0x2c
 5c8:	0f102302 	jal	c408c08 <reboot_system+0xc408a50>
 5cc:	00000b98 	0xb98
 5d0:	2c016a07 	sltiu	at,zero,27143
 5d4:	02000000 	0x2000000
 5d8:	6e0f1123 	0x6e0f1123
 5dc:	07000002 	bltz	t8,5e8 <.debug_info+0x5e8>
 5e0:	007d016c 	0x7d016c
 5e4:	23020000 	addi	v0,t8,0
 5e8:	01ad0f12 	0x1ad0f12
 5ec:	6e070000 	0x6e070000
 5f0:	00007d01 	0x7d01
 5f4:	13230200 	beq	t9,v1,df8 <reboot_system+0xc40>
 5f8:	000b7f0f 	0xb7f0f
 5fc:	01700700 	0x1700700
 600:	0000007d 	0x7d
 604:	0f142302 	jal	c508c08 <reboot_system+0xc508a50>
 608:	00000000 	nop
 60c:	7d017207 	0x7d017207
 610:	02000000 	0x2000000
 614:	f90f1523 	sdc2	$15,5411(t0)
 618:	0700000e 	bltz	t8,654 <.debug_info+0x654>
 61c:	007d0174 	teq	v1,sp,0x5
 620:	23020000 	addi	v0,t8,0
 624:	07b60f16 	0x7b60f16
 628:	76070000 	jalx	81c0000 <reboot_system+0x81bfe48>
 62c:	00007d01 	0x7d01
 630:	17230200 	bne	t9,v1,e34 <reboot_system+0xc7c>
 634:	0ea90d00 	jal	aa43400 <reboot_system+0xaa43248>
 638:	77070000 	jalx	c1c0000 <reboot_system+0xc1bfe48>
 63c:	0004ae01 	0x4ae01
 640:	06870e00 	0x6870e00
 644:	07040000 	0x7040000
 648:	8e0f0187 	lw	t7,391(s0)
 64c:	07000005 	bltz	t8,664 <.debug_info+0x664>
 650:	007d0180 	0x7d0180
 654:	23020000 	addi	v0,t8,0
 658:	0ac00f00 	j	b003c00 <reboot_system+0xb003a48>
 65c:	82070000 	lb	a3,0(s0)
 660:	00007d01 	0x7d01
 664:	01230200 	0x1230200
 668:	000f830f 	0xf830f
 66c:	01840700 	0x1840700
 670:	0000007d 	0x7d
 674:	0f022302 	jal	c088c08 <reboot_system+0xc088a50>
 678:	00000247 	0x247
 67c:	7d018607 	0x7d018607
 680:	02000000 	0x2000000
 684:	0d000323 	jal	4000c8c <reboot_system+0x4000ad4>
 688:	00000338 	0x338
 68c:	41018707 	bc0t	fffe22ac <reboot_system+0xfffe20f4>
 690:	0b000006 	j	c000018 <reboot_system+0xbfffe60>
 694:	000006ae 	0x6ae
 698:	0c490901 	jal	1242404 <reboot_system+0x124224c>
 69c:	00000bb7 	0xbb7
 6a0:	0fc50c00 	jal	f143000 <reboot_system+0xf142e48>
 6a4:	0c010000 	jal	40000 <reboot_system+0x3fe48>
 6a8:	0000007b 	0x7b
 6ac:	0e030002 	jal	80c0008 <reboot_system+0x80bfe50>
 6b0:	09000005 	j	4000014 <reboot_system+0x3fffe5c>
 6b4:	0006934d 	break	0x6,0x24d
 6b8:	06d00600 	bltzal	s6,1ebc <reboot_system+0x1d04>
 6bc:	09060000 	j	4180000 <reboot_system+0x417fe48>
 6c0:	0cf90853 	jal	3e4214c <reboot_system+0x3e41f94>
 6c4:	52090000 	beql	s0,t1,6c8 <.debug_info+0x6c8>
 6c8:	0000036e 	0x36e
 6cc:	00002302 	srl	a0,zero,0xc
 6d0:	000e2703 	sra	a0,t6,0x1c
 6d4:	b9530900 	swr	s3,2304(t2)
 6d8:	0b000006 	j	c000018 <reboot_system+0xbfffe60>
 6dc:	00000708 	0x708
 6e0:	0c8e0901 	jal	2382404 <reboot_system+0x238224c>
 6e4:	00000d6b 	0xd6b
 6e8:	0c190c00 	jal	643000 <reboot_system+0x642e48>
 6ec:	0c010000 	jal	40000 <reboot_system+0x3fe48>
 6f0:	00000d42 	srl	at,zero,0x15
 6f4:	02020c02 	0x2020c02
 6f8:	0c030000 	jal	c0000 <reboot_system+0xbfe48>
 6fc:	0000080b 	movn	at,zero,zero
 700:	0f490c04 	jal	d243010 <reboot_system+0xd242e58>
 704:	00050000 	sll	zero,a1,0x0
 708:	00095003 	sra	t2,t1,0x0
 70c:	db950900 	ldc2	$21,2304(gp)
 710:	06000006 	bltz	s0,72c <.debug_info+0x72c>
 714:	0000075d 	0x75d
 718:	08d10902 	j	3442408 <reboot_system+0x3442250>
 71c:	00000fee 	0xfee
 720:	007dcd09 	0x7dcd09
 724:	23020000 	addi	v0,t8,0
 728:	0bd01200 	j	f404800 <reboot_system+0xf404648>
 72c:	ce090000 	pref	0x9,0(s0)
 730:	0000007d 	0x7d
 734:	02070101 	0x2070101
 738:	91120123 	lbu	s2,291(t0)
 73c:	09000002 	j	4000008 <reboot_system+0x3fffe50>
 740:	00007dcf 	0x7dcf
 744:	06010100 	bgez	s0,b48 <.debug_info+0xb48>
 748:	12012302 	beq	s0,at,9354 <reboot_system+0x919c>
 74c:	0000015c 	0x15c
 750:	007dd009 	0x7dd009
 754:	01010000 	0x1010000
 758:	01230205 	0x1230205
 75c:	07c90600 	tgeiu	s8,1536
 760:	09040000 	j	4100000 <reboot_system+0x40ffe48>
 764:	0caa12dc 	jal	2a84b70 <reboot_system+0x2a849b8>
 768:	d4090000 	ldc1	$f9,0(zero)
 76c:	0000007d 	0x7d
 770:	02070101 	0x2070101
 774:	47120023 	c1	0x1120023
 778:	09000008 	j	4000020 <reboot_system+0x3fffe68>
 77c:	00007dd5 	0x7dd5
 780:	06010100 	bgez	s0,b84 <.debug_info+0xb84>
 784:	12002302 	beqz	s0,9390 <reboot_system+0x91d8>
 788:	0000002c 	0x2c
 78c:	007dd609 	0x7dd609
 790:	02010000 	0x2010000
 794:	00230204 	0x230204
 798:	00078212 	0x78212
 79c:	aed80900 	sw	t8,2304(s6)
 7a0:	01000006 	srlv	zero,zero,t0
 7a4:	23020202 	addi	v0,t8,514
 7a8:	0cb31200 	jal	2cc4800 <reboot_system+0x2cc4648>
 7ac:	da090000 	ldc2	$9,0(s0)
 7b0:	0000007d 	0x7d
 7b4:	02010101 	0x2010101
 7b8:	e0080023 	sc	t0,35(zero)
 7bc:	09000009 	j	4000024 <reboot_system+0x3fffe6c>
 7c0:	000088db 	0x88db
 7c4:	02230200 	0x2230200
 7c8:	08420600 	j	1081800 <reboot_system+0x1081648>
 7cc:	09120000 	j	4480000 <reboot_system+0x447fe48>
 7d0:	05e308e6 	bgezl	t7,2b6c <reboot_system+0x29b4>
 7d4:	c9090000 	lwc2	$9,0(t0)
 7d8:	0000007d 	0x7d
 7dc:	08002302 	j	8c08 <reboot_system+0x8a50>
 7e0:	000006dc 	0x6dc
 7e4:	06d0ca09 	bltzal	s6,ffff300c <reboot_system+0xffff2e54>
 7e8:	23020000 	addi	v0,t8,0
 7ec:	0d8f0801 	jal	63c2004 <reboot_system+0x63c1e4c>
 7f0:	d1090000 	0xd1090000
 7f4:	00000713 	0x713
 7f8:	08072302 	j	1c8c08 <reboot_system+0x1c8a50>
 7fc:	00000aa8 	0xaa8
 800:	075ddc09 	0x75ddc09
 804:	23020000 	addi	v0,t8,0
 808:	06a5080a 	0x6a5080a
 80c:	dd090000 	ldc3	$9,0(t0)
 810:	0000007d 	0x7d
 814:	080e2302 	j	388c08 <reboot_system+0x388a50>
 818:	000000a3 	0xa3
 81c:	007dde09 	0x7dde09
 820:	23020000 	addi	v0,t8,0
 824:	0650080f 	bltzal	s2,2864 <reboot_system+0x26ac>
 828:	df090000 	ldc3	$9,0(t8)
 82c:	0000007d 	0x7d
 830:	08102302 	j	408c08 <reboot_system+0x408a50>
 834:	00000dd4 	0xdd4
 838:	007de409 	0x7de409
 83c:	23020000 	addi	v0,t8,0
 840:	b0030011 	0xb0030011
 844:	0900000d 	j	4000034 <reboot_system+0x3fffe7c>
 848:	0007c9e6 	0x7c9e6
 84c:	09aa0e00 	j	6a83800 <reboot_system+0x6a83648>
 850:	093c0000 	j	4f00000 <reboot_system+0x4effe48>
 854:	62080104 	0x62080104
 858:	09000000 	j	4000000 <reboot_system+0x3fffe48>
 85c:	00007dea 	0x7dea
 860:	00230200 	0x230200
 864:	00069a08 	0x69a08
 868:	08eb0900 	j	3ac2400 <reboot_system+0x3ac2248>
 86c:	02000007 	srav	zero,zero,s0
 870:	9b080123 	lwr	t0,291(t8)
 874:	09000001 	j	4000004 <reboot_system+0x3fffe4c>
 878:	00007dec 	0x7dec
 87c:	02230200 	0x2230200
 880:	0002b208 	0x2b208
 884:	7ded0900 	0x7ded0900
 888:	02000000 	0x2000000
 88c:	7e080323 	0x7e080323
 890:	0900000c 	j	4000030 <reboot_system+0x3fffe78>
 894:	0009aaee 	0x9aaee
 898:	04230200 	bgezl	at,109c <reboot_system+0xee4>
 89c:	000df008 	0xdf008
 8a0:	7def0900 	0x7def0900
 8a4:	02000000 	0x2000000
 8a8:	6c082823 	0x6c082823
 8ac:	0900000e 	j	4000038 <reboot_system+0x3fffe80>
 8b0:	00007df0 	tge	zero,zero,0x1f7
 8b4:	29230200 	slti	v1,t1,512
 8b8:	0005d308 	0x5d308
 8bc:	7df10900 	0x7df10900
 8c0:	02000000 	0x2000000
 8c4:	f6082a23 	sdc1	$f8,10787(s0)
 8c8:	09000007 	j	400001c <reboot_system+0x3fffe64>
 8cc:	00007df2 	tlt	zero,zero,0x1f7
 8d0:	2b230200 	slti	v1,t9,512
 8d4:	00006e08 	0x6e08
 8d8:	7df30900 	0x7df30900
 8dc:	02000000 	0x2000000
 8e0:	3a082c23 	xori	t0,s0,0x2c23
 8e4:	09000002 	j	4000008 <reboot_system+0x3fffe50>
 8e8:	00007df4 	teq	zero,zero,0x1f7
 8ec:	2d230200 	sltiu	v1,t1,512
 8f0:	000c5508 	0xc5508
 8f4:	7df60900 	0x7df60900
 8f8:	02000000 	0x2000000
 8fc:	06082e23 	tgei	s0,11811
 900:	09000008 	j	4000020 <reboot_system+0x3fffe68>
 904:	00007df7 	0x7df7
 908:	2f230200 	sltiu	v1,t9,512
 90c:	000cff08 	0xcff08
 910:	7df80900 	0x7df80900
 914:	02000000 	0x2000000
 918:	10083023 	beq	zero,t0,c9a8 <reboot_system+0xc7f0>
 91c:	0900000d 	j	4000034 <reboot_system+0x3fffe7c>
 920:	00007df9 	0x7df9
 924:	31230200 	andi	v1,t1,0x200
 928:	00063f08 	0x63f08
 92c:	7dfa0900 	0x7dfa0900
 930:	02000000 	0x2000000
 934:	1e083223 	0x1e083223
 938:	09000008 	j	4000020 <reboot_system+0x3fffe68>
 93c:	00007dfb 	0x7dfb
 940:	33230200 	andi	v1,t9,0x200
 944:	000ab108 	0xab108
 948:	7dfc0900 	0x7dfc0900
 94c:	02000000 	0x2000000
 950:	7d083423 	0x7d083423
 954:	09000002 	j	4000008 <reboot_system+0x3fffe50>
 958:	00007dfd 	0x7dfd
 95c:	35230200 	ori	v1,t1,0x200
 960:	00079c08 	0x79c08
 964:	7dfe0900 	0x7dfe0900
 968:	02000000 	0x2000000
 96c:	68083623 	0x68083623
 970:	09000004 	j	4000010 <reboot_system+0x3fffe58>
 974:	00007dff 	0x7dff
 978:	37230200 	ori	v1,t9,0x200
 97c:	000ce70f 	0xce70f
 980:	01000900 	0x1000900
 984:	0000007d 	0x7d
 988:	0f382302 	jal	ce08c08 <reboot_system+0xce08a50>
 98c:	00000856 	0x856
 990:	7d010109 	0x7d010109
 994:	02000000 	0x2000000
 998:	300f3923 	andi	t7,zero,0x3923
 99c:	0900000e 	j	4000038 <reboot_system+0x3fffe80>
 9a0:	007d0103 	0x7d0103
 9a4:	23020000 	addi	v0,t8,0
 9a8:	ba09003a 	swr	t1,58(s0)
 9ac:	42000009 	c0	0x9
 9b0:	0a000008 	j	8000020 <reboot_system+0x7fffe68>
 9b4:	000000ac 	0xac
 9b8:	7f0d0001 	0x7f0d0001
 9bc:	0900000d 	j	4000034 <reboot_system+0x3fffe7c>
 9c0:	084d0104 	j	1340410 <reboot_system+0x1340258>
 9c4:	d6090000 	ldc1	$f9,0(s0)
 9c8:	7d000009 	0x7d000009
 9cc:	0a000000 	j	8000000 <reboot_system+0x7fffe48>
 9d0:	000000ac 	0xac
 9d4:	e609001f 	swc1	$f9,31(s0)
 9d8:	7d000009 	0x7d000009
 9dc:	0a000000 	j	8000000 <reboot_system+0x7fffe48>
 9e0:	000000ac 	0xac
 9e4:	4306001d 	c0	0x106001d
 9e8:	0e00000a 	jal	8000028 <reboot_system+0x7fffe70>
 9ec:	57082604 	bnel	t8,t0,a200 <reboot_system+0xa048>
 9f0:	04000000 	bltz	zero,9f4 <.debug_info+0x9f4>
 9f4:	0000f81f 	0xf81f
 9f8:	00230200 	0x230200
 9fc:	0008b008 	0x8b008
 a00:	88200400 	lwl	zero,1024(at)
 a04:	02000000 	0x2000000
 a08:	b1080823 	0xb1080823
 a0c:	04000006 	bltz	zero,a28 <.debug_info+0xa28>
 a10:	00007d21 	0x7d21
 a14:	0a230200 	j	88c0800 <reboot_system+0x88c0648>
 a18:	000e1808 	0xe1808
 a1c:	7d220400 	0x7d220400
 a20:	02000000 	0x2000000
 a24:	32080b23 	andi	t0,s0,0xb23
 a28:	0400000d 	bltz	zero,a60 <.debug_info+0xa60>
 a2c:	00007d24 	0x7d24
 a30:	0c230200 	jal	8c0800 <reboot_system+0x8c0648>
 a34:	00079308 	0x79308
 a38:	7d250400 	0x7d250400
 a3c:	02000000 	0x2000000
 a40:	03000d23 	0x3000d23
 a44:	00000a1d 	0xa1d
 a48:	09e62604 	j	7989810 <reboot_system+0x7989658>
 a4c:	73060000 	madd	t8,a2
 a50:	1000000a 	b	a7c <.debug_info+0xa7c>
 a54:	50082c04 	beql	zero,t0,ba68 <reboot_system+0xb8b0>
 a58:	04000004 	bltz	zero,a6c <.debug_info+0xa6c>
 a5c:	00007d2a 	0x7d2a
 a60:	00230200 	0x230200
 a64:	00079308 	0x79308
 a68:	732b0400 	0x732b0400
 a6c:	0200000a 	movz	zero,s0,zero
 a70:	09000123 	j	400048c <reboot_system+0x40002d4>
 a74:	00000a83 	sra	at,zero,0xa
 a78:	0000007d 	0x7d
 a7c:	0000ac0a 	0xac0a
 a80:	03000e00 	0x3000e00
 a84:	00000b11 	0xb11
 a88:	0a4e2c04 	j	938b010 <reboot_system+0x938ae58>
 a8c:	f9060000 	sdc2	$6,0(t0)
 a90:	1000000a 	b	abc <.debug_info+0xabc>
 a94:	50083804 	beql	zero,t0,eaa8 <reboot_system+0xe8f0>
 a98:	04000004 	bltz	zero,aac <.debug_info+0xaac>
 a9c:	00007d31 	tgeu	zero,zero,0x1f4
 aa0:	00230200 	0x230200
 aa4:	000a9908 	0xa9908
 aa8:	7d320400 	0x7d320400
 aac:	02000000 	0x2000000
 ab0:	b0080123 	0xb0080123
 ab4:	04000008 	bltz	zero,ad8 <.debug_info+0xad8>
 ab8:	00008833 	tltu	zero,zero,0x220
 abc:	02230200 	0x2230200
 ac0:	00091308 	0x91308
 ac4:	93340400 	lbu	s4,1024(t9)
 ac8:	02000000 	0x2000000
 acc:	b1080423 	0xb1080423
 ad0:	04000006 	bltz	zero,aec <.debug_info+0xaec>
 ad4:	00007d35 	0x7d35
 ad8:	08230200 	j	8c0800 <reboot_system+0x8c0648>
 adc:	000e1808 	0xe1808
 ae0:	7d360400 	0x7d360400
 ae4:	02000000 	0x2000000
 ae8:	e5080923 	swc1	$f8,2339(t0)
 aec:	0400000f 	bltz	zero,b2c <.debug_info+0xb2c>
 af0:	00036e37 	0x36e37
 af4:	0a230200 	j	88c0800 <reboot_system+0x88c0648>
 af8:	04180300 	0x4180300
 afc:	38040000 	xori	a0,zero,0x0
 b00:	00000a8e 	0xa8e
 b04:	000b6106 	0xb6106
 b08:	61043400 	0x61043400
 b0c:	00074b08 	0x74b08
 b10:	835b0400 	lb	k1,1024(k0)
 b14:	0200000a 	movz	zero,s0,zero
 b18:	44080023 	0x44080023
 b1c:	0400000a 	bltz	zero,b48 <.debug_info+0xb48>
 b20:	000af95c 	0xaf95c
 b24:	10230200 	beq	at,v1,1328 <reboot_system+0x1170>
 b28:	0007a608 	0x7a608
 b2c:	435d0400 	c0	0x15d0400
 b30:	0200000a 	movz	zero,s0,zero
 b34:	97082023 	lhu	t0,8227(t8)
 b38:	0400000c 	bltz	zero,b6c <.debug_info+0xb6c>
 b3c:	0000885e 	0x885e
 b40:	2e230200 	sltiu	v1,s1,512
 b44:	00068908 	0x68908
 b48:	885f0400 	lwl	ra,1024(v0)
 b4c:	02000000 	0x2000000
 b50:	ce083023 	pref	0x8,12323(s0)
 b54:	04000009 	bltz	zero,b7c <.debug_info+0xb7c>
 b58:	00007d60 	0x7d60
 b5c:	32230200 	andi	v1,s1,0x200
 b60:	00900300 	0x900300
 b64:	61040000 	0x61040000
 b68:	00000b04 	0xb04
 b6c:	000ba213 	0xba213
 b70:	0af00100 	j	bc00400 <reboot_system+0xbc00248>
 b74:	50010000 	beql	zero,at,b78 <.debug_info+0xb78>
 b78:	00009301 	0x9301
 b7c:	00000000 	nop
 b80:	00004000 	sll	t0,zero,0x0
 b84:	146d0100 	bne	v1,t5,f88 <reboot_system+0xdd0>
 b88:	00000c92 	0xc92
 b8c:	00b34f01 	0xb34f01
 b90:	54010000 	bnel	zero,at,b94 <.debug_info+0xb94>
 b94:	000b7214 	0xb7214
 b98:	7d4f0100 	0x7d4f0100
 b9c:	01000000 	0x1000000
 ba0:	f1130055 	0xf1130055
 ba4:	0100000b 	movn	zero,t0,zero
 ba8:	00000afd 	0xafd
 bac:	62013b01 	0x62013b01
 bb0:	00000003 	sra	zero,zero,0x0
 bb4:	88000000 	lwl	zero,0(zero)
 bb8:	01000000 	0x1000000
 bbc:	0c86146d 	jal	21851b4 <reboot_system+0x2184ffc>
 bc0:	3a010000 	xori	at,s0,0x0
 bc4:	00000093 	0x93
 bc8:	8c145401 	lw	s4,21505(zero)
 bcc:	0100000c 	syscall	0x40000
 bd0:	0000933a 	0x933a
 bd4:	15550100 	bne	t2,s5,fd8 <reboot_system+0xe20>
 bd8:	00000b49 	0xb49
 bdc:	09d63c01 	j	758f004 <reboot_system+0x758ee4c>
 be0:	91020000 	lbu	v0,0(t0)
 be4:	00f71618 	0xf71618
 be8:	3e010000 	0x3e010000
 bec:	00000bf1 	tgeu	zero,zero,0x2f
 bf0:	43041100 	c0	0x1041100
 bf4:	1300000a 	beqz	t8,c20 <.debug_info+0xc20>
 bf8:	00000c53 	0xc53
 bfc:	00004301 	0x4301
 c00:	011e0100 	0x11e0100
 c04:	00000362 	0x362
 c08:	00000000 	nop
 c0c:	00000104 	0x104
 c10:	86146d01 	lh	s4,27905(s0)
 c14:	0100000c 	syscall	0x40000
 c18:	0000931d 	0x931d
 c1c:	14540100 	bne	v0,s4,1020 <reboot_system+0xe68>
 c20:	00000c8c 	syscall	0x32
 c24:	00931d01 	0x931d01
 c28:	55010000 	bnel	t0,at,c2c <.debug_info+0xc2c>
 c2c:	000b4915 	0xb4915
 c30:	c61f0100 	lwc1	$f31,256(s0)
 c34:	02000009 	jalr	zero,s0
 c38:	f7151891 	sdc1	$f21,6289(t8)
 c3c:	01000000 	0x1000000
 c40:	000c5320 	0xc5320
 c44:	16600100 	bnez	s3,1048 <reboot_system+0xe90>
 c48:	00000f93 	0xf93
 c4c:	0c592101 	jal	1648404 <reboot_system+0x164824c>
 c50:	11000000 	beqz	t0,c54 <.debug_info+0xc54>
 c54:	000a8304 	0xa8304
 c58:	f9041100 	sdc2	$4,4352(t0)
 c5c:	1300000a 	beqz	t8,c88 <.debug_info+0xc88>
 c60:	00000c88 	0xc88
 c64:	000ed501 	0xed501
 c68:	01670100 	0x1670100
 c6c:	00000093 	0x93
 c70:	00000000 	nop
 c74:	00000174 	teq	zero,zero,0x5
 c78:	77146d01 	jalx	c51b404 <reboot_system+0xc51b24c>
 c7c:	0100000d 	break	0x100
 c80:	000c8866 	0xc8866
 c84:	00600100 	0x600100
 c88:	01380411 	0x1380411
 c8c:	dd130000 	ldc3	$19,0(t0)
 c90:	0100000c 	syscall	0x40000
 c94:	000003eb 	0x3eb
 c98:	62010e01 	0x62010e01
 c9c:	00000003 	sra	zero,zero,0x0
 ca0:	a4000000 	sh	zero,0(zero)
 ca4:	01000001 	movf	zero,t0,$fcc0
 ca8:	0c86146d 	jal	21851b4 <reboot_system+0x2184ffc>
 cac:	0d010000 	jal	4040000 <reboot_system+0x403fe48>
 cb0:	00000093 	0x93
 cb4:	8c145401 	lw	s4,21505(zero)
 cb8:	0100000c 	syscall	0x40000
 cbc:	0000930d 	break	0x0,0x24c
 cc0:	15550100 	bne	t2,s5,10c4 <reboot_system+0xf0c>
 cc4:	00000b49 	0xb49
 cc8:	09c61001 	j	7184004 <reboot_system+0x7183e4c>
 ccc:	91020000 	lbu	v0,0(t0)
 cd0:	00f71618 	0xf71618
 cd4:	11010000 	beq	t0,at,cd8 <.debug_info+0xcd8>
 cd8:	00000c88 	0xc88
 cdc:	0d021700 	jal	4085c00 <reboot_system+0x4085a48>
 ce0:	42010000 	c0	0x10000
 ce4:	01000009 	jalr	zero,t0
 ce8:	00000178 	0x178
 cec:	01cc0000 	0x1cc0000
 cf0:	6d010000 	0x6d010000
 cf4:	000c5e15 	0xc5e15
 cf8:	93790100 	lbu	t9,256(k1)
 cfc:	01000000 	0x1000000
 d00:	f4180052 	sdc1	$f24,82(zero)
 d04:	06000006 	bltz	s0,d20 <.debug_info+0xd20>
 d08:	00007d8a 	0x7d8a
 d0c:	19010100 	0x19010100
 d10:	000007c4 	0x7c4
 d14:	a2019b07 	sb	at,-25849(s0)
 d18:	01000004 	sllv	zero,zero,t0
 d1c:	100d1901 	beq	zero,t5,7124 <reboot_system+0x6f6c>
 d20:	a1070000 	sb	a3,0(t0)
 d24:	00068701 	0x68701
 d28:	19010100 	0x19010100
 d2c:	000008ec 	0x8ec
 d30:	3501a707 	ori	at,t0,0xa707
 d34:	01000006 	srlv	zero,zero,t0
 d38:	0ff91901 	jal	fe46404 <reboot_system+0xfe4624c>
 d3c:	12090000 	beq	s0,t1,d40 <.debug_info+0xd40>
 d40:	0009ba01 	0x9ba01
 d44:	18010100 	0x18010100
 d48:	000001f8 	0x1f8
 d4c:	0d546504 	jal	5519410 <reboot_system+0x5519258>
 d50:	01010000 	0x1010000
 d54:	0b610411 	j	d841044 <reboot_system+0xd840e8c>
 d58:	Address 0xd58 is out of bounds.

Disassembly of section .debug_line:

00000000 <.debug_line>:
   0:	00000154 	0x154
   4:	00fa0002 	0xfa0002
   8:	01010000 	0x1010000
   c:	000a0efb 	0xa0efb
  10:	01010101 	0x1010101
  14:	01000000 	0x1000000
  18:	2e2e2f2e 	sltiu	t6,s1,12078
  1c:	2f2e2e2f 	sltiu	t6,t9,11823
  20:	2e2f2e2e 	sltiu	t7,s1,11822
  24:	73702f2e 	0x73702f2e
  28:	65725f70 	0x65725f70
  2c:	6e692f6c 	0x6e692f6c
  30:	64756c63 	0x64756c63
  34:	2f2e0065 	sltiu	t6,t9,101
  38:	2e2f2e2e 	sltiu	t7,s1,11822
  3c:	2e2e2f2e 	sltiu	t6,s1,12078
  40:	636e692f 	0x636e692f
  44:	2e2f2e00 	sltiu	t7,s1,11776
  48:	2e2e2f2e 	sltiu	t6,s1,12078
  4c:	2f2e2e2f 	sltiu	t6,t9,11823
  50:	702f2e2e 	0x702f2e2e
  54:	725f7073 	0x725f7073
  58:	692f6c65 	0x692f6c65
  5c:	756c636e 	jalx	5b18db8 <reboot_system+0x5b18c00>
  60:	752f6564 	jalx	4bd9590 <reboot_system+0x4bd93d8>
  64:	00736f63 	0x736f63
  68:	61744f00 	0x61744f00
  6c:	7063725f 	udi15	v1,v1,t6,0x9
  70:	635f715f 	0x635f715f
  74:	645f646d 	0x645f646d
  78:	2e6c6165 	sltiu	t4,s3,24933
  7c:	00000063 	0x63
  80:	70797400 	0x70797400
  84:	74786565 	jalx	1e19594 <reboot_system+0x1e193dc>
  88:	0100682e 	0x100682e
  8c:	61630000 	0x61630000
  90:	745f6573 	jalx	17d95cc <reboot_system+0x17d9414>
  94:	2e657079 	sltiu	a1,s3,28793
  98:	00020068 	0x20068
  9c:	6d6f4300 	0x6d6f4300
  a0:	5f6e6f6d 	0x5f6e6f6d
  a4:	2e61746f 	sltiu	at,s3,29807
  a8:	00020068 	0x20068
  ac:	73797300 	0x73797300
  b0:	61746f5f 	0x61746f5f
  b4:	746e695f 	jalx	1b9a57c <reboot_system+0x1b9a3c4>
  b8:	61667265 	0x61667265
  bc:	682e6563 	0x682e6563
  c0:	00000100 	sll	zero,zero,0x4
  c4:	5f707061 	0x5f707061
  c8:	656d6974 	0x656d6974
  cc:	00682e72 	tlt	v1,t0,0xb9
  d0:	61000002 	0x61000002
  d4:	696c7070 	0x696c7070
  d8:	00682e62 	0x682e62
  dc:	75000002 	jalx	4000008 <reboot_system+0x3fffe50>
  e0:	5f736f63 	0x5f736f63
  e4:	65707974 	0x65707974
  e8:	00682e73 	tltu	v1,t0,0xb9
  ec:	62000003 	0x62000003
  f0:	61747374 	0x61747374
  f4:	635f6b63 	0x635f6b63
  f8:	6f6d6d6f 	0x6f6d6d6f
  fc:	00682e6e 	0x682e6e
 100:	00000002 	srl	zero,zero,0x0
 104:	01020500 	0x1020500
 108:	03000000 	0x3000000
 10c:	2b0100cf 	slti	at,t8,207
 110:	81d6492c 	lb	s6,18732(t6)
 114:	039dbd84 	0x39dbd84
 118:	8030ef56 	lb	s0,-4266(at)
 11c:	48462c9d 	0x48462c9d
 120:	03ba3080 	0x3ba3080
 124:	01340251 	0x1340251
 128:	3026b930 	andi	a2,at,0xb930
 12c:	bc648081 	cache	0x4,-32639(v1)
 130:	3303d880 	andi	v1,t8,0xd880
 134:	2d014202 	sltiu	at,t0,16898
 138:	4a642d29 	c2	0x642d29
 13c:	d6802e44 	ldc1	$f0,11844(s4)
 140:	ef7f9d03 	swc3	$31,-25341(k1)
 144:	d665b930 	ldc1	$f5,-18128(s3)
 148:	0800e203 	j	3880c <reboot_system+0x38654>
 14c:	2c2a2c8d 	sltiu	t2,at,11405
 150:	022c4848 	0x22c4848
 154:	01010007 	srav	zero,at,t0
Disassembly of section .debug_frame:

00000000 <.debug_frame>:
   0:	0000000c 	syscall
   4:	ffffffff 	sdc3	$31,-1(ra)
   8:	04010001 	b	10 <.debug_frame+0x10>
   c:	001d0c1f 	0x1d0c1f
  10:	0000001c 	0x1c
	...
  1c:	0000003f 	0x3f
  20:	0e040e42 	jal	8103908 <reboot_system+0x8103750>
  24:	11180e08 	beq	t0,t8,3848 <reboot_system+0x3690>
  28:	1f117e10 	0x1f117e10
  2c:	0000007f 	0x7f
  30:	00000014 	0x14
	...
  3c:	0000003b 	0x3b
  40:	0e040e42 	jal	8103908 <reboot_system+0x8103750>
  44:	7f1f1140 	0x7f1f1140
  48:	00000020 	add	zero,zero,zero
	...
  54:	0000004f 	0x4f
  58:	0e040e42 	jal	8103908 <reboot_system+0x8103750>
  5c:	0e0c0e08 	jal	8303820 <reboot_system+0x8303668>
  60:	7d101148 	0x7d101148
  64:	117e1111 	beq	t3,s8,44ac <reboot_system+0x42f4>
  68:	00007f1f 	0x7f1f
  6c:	00000020 	add	zero,zero,zero
	...
  78:	00000033 	tltu	zero,zero
  7c:	0e040e42 	jal	8103908 <reboot_system+0x8103750>
  80:	0e0c0e08 	jal	8303820 <reboot_system+0x8303668>
  84:	7d101120 	0x7d101120
  88:	117e1111 	beq	t3,s8,44d0 <reboot_system+0x4318>
  8c:	00007f1f 	0x7f1f
  90:	00000014 	0x14
	...
  9c:	00000027 	nor	zero,zero,zero
  a0:	0e040e42 	jal	8103908 <reboot_system+0x8103750>
  a4:	7f1f1140 	0x7f1f1140
  a8:	0000000c 	syscall
	...
  b4:	00000013 	mtlo	zero
Disassembly of section .debug_pubnames:

00000000 <.debug_pubnames>:
   0:	00000089 	0x89
   4:	00000002 	srl	zero,zero,0x0
   8:	0d5b0000 	jal	56c0000 <reboot_system+0x56bfe48>
   c:	0b6c0000 	j	db00000 <reboot_system+0xdaffe48>
  10:	656d0000 	0x656d0000
  14:	67617373 	0x67617373
  18:	6f635f65 	0x6f635f65
  1c:	a2007970 	sb	zero,31088(s0)
  20:	6f00000b 	0x6f00000b
  24:	655f6174 	0x655f6174
  28:	6975716e 	0x6975716e
  2c:	6d5f7972 	0x6d5f7972
  30:	61737365 	0x61737365
  34:	f7006567 	sdc1	$f0,25959(t8)
  38:	6f00000b 	0x6f00000b
  3c:	655f6174 	0x655f6174
  40:	6975716e 	0x6975716e
  44:	635f7972 	0x635f7972
  48:	656e6e6f 	0x656e6e6f
  4c:	5f007463 	bgtzl	t8,1d1dc <reboot_system+0x1d024>
  50:	6700000c 	0x6700000c
  54:	765f7465 	jalx	97dd194 <reboot_system+0x97dcfdc>
  58:	6d5f7265 	0x6d5f7265
  5c:	61737365 	0x61737365
  60:	8e006567 	lw	zero,25959(s0)
  64:	6f00000c 	0x6f00000c
  68:	675f6174 	0x675f6174
  6c:	765f7465 	jalx	97dd194 <reboot_system+0x97dcfdc>
  70:	6e5f7265 	0x6e5f7265
  74:	dd006d75 	ldc3	$0,28021(t0)
  78:	7200000c 	0x7200000c
  7c:	6f6f6265 	0x6f6f6265
  80:	79735f74 	0x79735f74
  84:	6d657473 	0x6d657473
  88:	00000000 	nop
	...
Disassembly of section .debug_aranges:

00000000 <.debug_aranges>:
   0:	0000001c 	0x1c
   4:	00000002 	srl	zero,zero,0x0
   8:	00040000 	sll	zero,a0,0x0
	...
  14:	000001d0 	0x1d0
	...
Disassembly of section .debug_str:

00000000 <.debug_str>:
       0:	69726576 	0x69726576
       4:	61636966 	0x61636966
       8:	6e6f6974 	0x6e6f6974
       c:	6174735f 	0x6174735f
      10:	00737574 	teq	v1,s3,0x1d5
      14:	69736e75 	0x69736e75
      18:	64656e67 	0x64656e67
      1c:	746e6920 	jalx	1b9a480 <reboot_system+0x1b9a2c8>
      20:	74756d00 	jalx	1d5b400 <reboot_system+0x1d5b248>
      24:	74735f65 	jalx	1cd7d94 <reboot_system+0x1cd7bdc>
      28:	00657461 	0x657461
      2c:	725f6270 	0x725f6270
      30:	6c757365 	0x6c757365
      34:	45520074 	0x45520074
      38:	544c5553 	bnel	v0,t4,15588 <reboot_system+0x153d0>
      3c:	4441525f 	0x4441525f
      40:	6f004f49 	0x6f004f49
      44:	655f6174 	0x655f6174
      48:	6975716e 	0x6975716e
      4c:	635f7972 	0x635f7972
      50:	656e6e6f 	0x656e6e6f
      54:	63007463 	0x63007463
      58:	755f7572 	jalx	57dd5c8 <reboot_system+0x57dd410>
      5c:	74616470 	jalx	18591c0 <reboot_system+0x1859008>
      60:	6f630061 	0x6f630061
      64:	735f6e6e 	0x735f6e6e
      68:	75746174 	jalx	5d185d0 <reboot_system+0x5d18418>
      6c:	70730073 	0x70730073
      70:	6f635f70 	0x6f635f70
      74:	6c665f6e 	0x6c665f6e
      78:	54006761 	bnezl	zero,19e00 <reboot_system+0x19c48>
      7c:	45455248 	0x45455248
      80:	5941575f 	0x5941575f
      84:	4c4f485f 	0x4c4f485f
      88:	58455f44 	0x58455f44
      8c:	00545349 	0x545349
      90:	5f41544f 	0x5f41544f
      94:	6c6c616d 	0x6c6c616d
      98:	705f636f 	0x705f636f
      9c:	6d617261 	0x6d617261
      a0:	6800745f 	0x6800745f
      a4:	735f7066 	0x735f7066
      a8:	75746174 	jalx	5d185d0 <reboot_system+0x5d18418>
      ac:	45520073 	0x45520073
      b0:	544c5553 	bnel	v0,t4,15600 <reboot_system+0x15448>
      b4:	4253555f 	c0	0x53555f
      b8:	4152545f 	0x4152545f
      bc:	5200534e 	beqzl	s0,14df8 <reboot_system+0x14c40>
      c0:	4c555345 	0x4c555345
      c4:	454b5f54 	0x454b5f54
      c8:	56455f59 	bnel	s2,a1,17e30 <reboot_system+0x17c78>
      cc:	5f544e45 	0x5f544e45
      d0:	45444552 	0x45444552
      d4:	425f4c41 	c0	0x5f4c41
      d8:	4f435f59 	c3	0x1435f59
      dc:	4e4f4d4d 	c3	0x4f4d4d
      e0:	53455200 	beql	k0,a1,148e4 <reboot_system+0x1472c>
      e4:	5f544c55 	0x5f544c55
      e8:	4f434552 	c3	0x1434552
      ec:	4d5f4452 	0x4d5f4452
      f0:	545f4349 	bnel	v0,ra,10e18 <reboot_system+0x10c60>
      f4:	7000434f 	0x7000434f
      f8:	6d6f635f 	0x6d6f635f
      fc:	7063725f 	udi15	v1,v1,t6,0x9
     100:	666e695f 	0x666e695f
     104:	4552006f 	0x4552006f
     108:	544c5553 	bnel	v0,t4,15658 <reboot_system+0x154a0>
     10c:	4345525f 	c0	0x145525f
     110:	5f44524f 	0x5f44524f
     114:	5f43494d 	0x5f43494d
     118:	00554f54 	0x554f54
     11c:	6b636162 	0x6b636162
     120:	6867696c 	0x6867696c
     124:	74735f74 	jalx	1cd7dd0 <reboot_system+0x1cd7c18>
     128:	00657461 	0x657461
     12c:	726f6873 	0x726f6873
     130:	6e752074 	0x6e752074
     134:	6e676973 	0x6e676973
     138:	69206465 	0x69206465
     13c:	6200746e 	0x6200746e
     140:	765f7461 	jalx	97dd184 <reboot_system+0x97dcfcc>
     144:	65756c61 	0x65756c61
     148:	53455200 	beql	k0,a1,1494c <reboot_system+0x14794>
     14c:	5f544c55 	0x5f544c55
     150:	52414c41 	beql	s2,at,13258 <reboot_system+0x130a0>
     154:	4c435f4d 	0x4c435f4d
     158:	0045534f 	0x45534f
     15c:	74647661 	jalx	191d984 <reboot_system+0x191d7cc>
     160:	61645f70 	0x61645f70
     164:	665f6174 	0x665f6174
     168:	0067616c 	0x67616c
     16c:	55534552 	bnel	t2,s3,116b8 <reboot_system+0x11500>
     170:	4d5f544c 	0x4d5f544c
     174:	41554e41 	0x41554e41
     178:	45535f4c 	0x45535f4c
     17c:	48435241 	0x48435241
     180:	0050555f 	0x50555f
     184:	55534552 	bnel	t2,s3,116d0 <reboot_system+0x11518>
     188:	425f544c 	c0	0x5f544c
     18c:	5445554c 	bnel	v0,a1,156c0 <reboot_system+0x15508>
     190:	48544545 	0x48544545
     194:	554f535f 	bnel	t2,t7,14f14 <reboot_system+0x14d5c>
     198:	6300444e 	0x6300444e
     19c:	72746e6f 	0x72746e6f
     1a0:	656c6c6f 	0x656c6c6f
     1a4:	74735f72 	jalx	1cd7dc8 <reboot_system+0x1cd7c10>
     1a8:	73757461 	0x73757461
     1ac:	72756300 	0x72756300
     1b0:	6e75665f 	0x6e75665f
     1b4:	64695f63 	0x64695f63
     1b8:	676e6500 	0x676e6500
     1bc:	5f656e69 	0x5f656e69
     1c0:	65707974 	0x65707974
     1c4:	655f7000 	0x655f7000
     1c8:	6772656e 	0x6772656e
     1cc:	61765f79 	0x61765f79
     1d0:	0065756c 	0x65756c
     1d4:	55534552 	bnel	t2,s3,11720 <reboot_system+0x11568>
     1d8:	4c5f544c 	0x4c5f544c
     1dc:	505f574f 	beql	v0,ra,15f1c <reboot_system+0x15d64>
     1e0:	5245574f 	beql	s2,a1,15f20 <reboot_system+0x15d68>
     1e4:	53455200 	beql	k0,a1,149e8 <reboot_system+0x14830>
     1e8:	5f544c55 	0x5f544c55
     1ec:	54534554 	bnel	v0,s3,11740 <reboot_system+0x11588>
     1f0:	515f5041 	beql	t2,ra,142f8 <reboot_system+0x14140>
     1f4:	00544955 	0x544955
     1f8:	544f5f67 	bnel	v0,t7,17f98 <reboot_system+0x17de0>
     1fc:	61765f41 	0x61765f41
     200:	54420072 	bnel	v0,v0,3cc <.debug_str+0x3cc>
     204:	5252455f 	beql	s2,s2,11784 <reboot_system+0x115cc>
     208:	4e4f435f 	c3	0x4f435f
     20c:	5443454e 	bnel	v0,v1,11748 <reboot_system+0x11590>
     210:	5f4e4f49 	0x5f4e4f49
     214:	454d4954 	0x454d4954
     218:	0054554f 	0x54554f
     21c:	55534552 	bnel	t2,s3,11768 <reboot_system+0x115b0>
     220:	415f544c 	0x415f544c
     224:	4d52414c 	0x4d52414c
     228:	4e49525f 	c3	0x49525f
     22c:	4f465f47 	c3	0x1465f47
     230:	5245444c 	beql	s2,a1,11364 <reboot_system+0x111ac>
     234:	4143535f 	0x4143535f
     238:	6c62004e 	0x6c62004e
     23c:	6f635f65 	0x6f635f65
     240:	6c665f6e 	0x6c665f6e
     244:	6c006761 	0x6c006761
     248:	5f747361 	0x5f747361
     24c:	735f6975 	0x735f6975
     250:	75746174 	jalx	5d185d0 <reboot_system+0x5d18418>
     254:	69750073 	0x69750073
     258:	0038746e 	0x38746e
     25c:	55534552 	bnel	t2,s3,117a8 <reboot_system+0x115f0>
     260:	535f544c 	beql	k0,ra,15394 <reboot_system+0x151dc>
     264:	454e4543 	0x454e4543
     268:	4958455f 	0x4958455f
     26c:	75630054 	jalx	58c0150 <reboot_system+0x58bff98>
     270:	75665f72 	jalx	5997dc8 <reboot_system+0x5997c10>
     274:	695f636e 	0x695f636e
     278:	7865646e 	0x7865646e
     27c:	73777400 	0x73777400
     280:	73616d5f 	udi15	k1,at,t5,0x15
     284:	5f726574 	0x5f726574
     288:	6e6f6870 	0x6e6f6870
     28c:	6e6f6365 	0x6e6f6365
     290:	72766100 	0x72766100
     294:	705f7063 	0x705f7063
     298:	65737561 	0x65737561
     29c:	616c665f 	0x616c665f
     2a0:	45520067 	0x45520067
     2a4:	544c5553 	bnel	v0,t4,157f4 <reboot_system+0x1563c>
     2a8:	49414d5f 	0x49414d5f
     2ac:	50415f4e 	beql	v0,at,17fe8 <reboot_system+0x17e30>
     2b0:	756e0050 	jalx	5b80140 <reboot_system+0x5b7ff88>
     2b4:	6f635f6d 	0x6f635f6d
     2b8:	63656e6e 	0x63656e6e
     2bc:	00646574 	teq	v1,a0,0x195
     2c0:	55534552 	bnel	t2,s3,1180c <reboot_system+0x11654>
     2c4:	535f544c 	beql	k0,ra,153f8 <reboot_system+0x15240>
     2c8:	4d5f5359 	0x4d5f5359
     2cc:	525f4753 	beql	s2,ra,1201c <reboot_system+0x11e64>
     2d0:	41454445 	0x41454445
     2d4:	59425f4c 	0x59425f4c
     2d8:	4d4f435f 	0x4d4f435f
     2dc:	004e4f4d 	break	0x4e,0x13d
     2e0:	55534552 	bnel	t2,s3,1182c <reboot_system+0x11674>
     2e4:	505f544c 	beql	v0,ra,15418 <reboot_system+0x15260>
     2e8:	5f59414c 	0x5f59414c
     2ec:	5f444453 	0x5f444453
     2f0:	31444946 	andi	a0,t2,0x4946
     2f4:	45520036 	0x45520036
     2f8:	544c5553 	bnel	v0,t4,15848 <reboot_system+0x15690>
     2fc:	414c505f 	0x414c505f
     300:	44535f59 	0x44535f59
     304:	49465f44 	0x49465f44
     308:	00373144 	0x373144
     30c:	55534552 	bnel	t2,s3,11858 <reboot_system+0x116a0>
     310:	505f544c 	beql	v0,ra,15444 <reboot_system+0x1528c>
     314:	5f59414c 	0x5f59414c
     318:	5f444453 	0x5f444453
     31c:	31444946 	andi	a0,t2,0x4946
     320:	45520038 	0x45520038
     324:	544c5553 	bnel	v0,t4,15874 <reboot_system+0x156bc>
     328:	414c505f 	0x414c505f
     32c:	44535f59 	0x44535f59
     330:	49465f44 	0x49465f44
     334:	00393144 	0x393144
     338:	5f707061 	0x5f707061
     33c:	7473616c 	jalx	1cd85b0 <reboot_system+0x1cd83f8>
     340:	6174735f 	0x6174735f
     344:	745f6574 	jalx	17d95d0 <reboot_system+0x17d9418>
     348:	53455200 	beql	k0,a1,14b4c <reboot_system+0x14994>
     34c:	5f544c55 	0x5f544c55
     350:	4f434552 	c3	0x1434552
     354:	555f4452 	bnel	t2,ra,114a0 <reboot_system+0x112e8>
     358:	59414c50 	0x59414c50
     35c:	53455200 	beql	k0,a1,14b60 <reboot_system+0x149a8>
     360:	5f544c55 	0x5f544c55
     364:	59414c50 	0x59414c50
     368:	4444535f 	0x4444535f
     36c:	4449465f 	0x4449465f
     370:	52003032 	beqzl	s0,c43c <reboot_system+0xc284>
     374:	4c555345 	0x4c555345
     378:	4c505f54 	0x4c505f54
     37c:	535f5941 	beql	k0,ra,16884 <reboot_system+0x166cc>
     380:	465f4444 	c1	0x5f4444
     384:	31324449 	andi	s2,t1,0x4449
     388:	53455200 	beql	k0,a1,14b8c <reboot_system+0x149d4>
     38c:	5f544c55 	0x5f544c55
     390:	59414c50 	0x59414c50
     394:	4444535f 	0x4444535f
     398:	4449465f 	0x4449465f
     39c:	52003332 	beqzl	s0,d068 <reboot_system+0xceb0>
     3a0:	4c555345 	0x4c555345
     3a4:	4c505f54 	0x4c505f54
     3a8:	535f5941 	beql	k0,ra,168b0 <reboot_system+0x166f8>
     3ac:	465f4444 	c1	0x5f4444
     3b0:	34324449 	ori	s2,at,0x4449
     3b4:	53455200 	beql	k0,a1,14bb8 <reboot_system+0x14a00>
     3b8:	5f544c55 	0x5f544c55
     3bc:	59414c50 	0x59414c50
     3c0:	4444535f 	0x4444535f
     3c4:	4449465f 	0x4449465f
     3c8:	67003532 	0x67003532
     3cc:	6e65735f 	0x6e65735f
     3d0:	78655f64 	0x78655f64
     3d4:	6d5f7469 	0x6d5f7469
     3d8:	745f6d6d 	jalx	17db5b4 <reboot_system+0x17db3fc>
     3dc:	52007374 	beqzl	s0,1d1b0 <reboot_system+0x1cff8>
     3e0:	4c555345 	0x4c555345
     3e4:	554e5f54 	bnel	t2,t6,18138 <reboot_system+0x17f80>
     3e8:	6f004c4c 	0x6f004c4c
     3ec:	675f6174 	0x675f6174
     3f0:	765f7465 	jalx	97dd194 <reboot_system+0x97dcfdc>
     3f4:	6e5f7265 	0x6e5f7265
     3f8:	6c006d75 	0x6c006d75
     3fc:	20676e6f 	addi	a3,v1,28271
     400:	69736e75 	0x69736e75
     404:	64656e67 	0x64656e67
     408:	746e6920 	jalx	1b9a480 <reboot_system+0x1b9a2c8>
     40c:	6e697200 	0x6e697200
     410:	6c615f67 	0x6c615f67
     414:	006d7261 	0x6d7261
     418:	5f61746f 	0x5f61746f
     41c:	6e696b62 	0x6e696b62
     420:	745f6f66 	jalx	17dbd98 <reboot_system+0x17dbbe0>
     424:	53455200 	beql	k0,a1,14c28 <reboot_system+0x14a70>
     428:	5f544c55 	0x5f544c55
     42c:	5f444948 	0x5f444948
     430:	444e4553 	0x444e4553
     434:	59454b5f 	0x59454b5f
     438:	4556455f 	0x4556455f
     43c:	5200544e 	beqzl	s0,15578 <reboot_system+0x153c0>
     440:	4c555345 	0x4c555345
     444:	53555f54 	beql	k0,s5,18198 <reboot_system+0x17fe0>
     448:	4f535f42 	c3	0x1535f42
     44c:	00444e55 	0x444e55
     450:	6e6e6f63 	0x6e6e6f63
     454:	5f746365 	0x5f746365
     458:	74617473 	jalx	185d1cc <reboot_system+0x185d014>
     45c:	69750065 	0x69750065
     460:	6174735f 	0x6174735f
     464:	00737574 	teq	v1,s3,0x1d5
     468:	5f6d6973 	0x5f6d6973
     46c:	6e655f61 	0x6e655f61
     470:	79632f00 	0x79632f00
     474:	69726467 	0x69726467
     478:	642f6576 	0x642f6576
     47c:	7463612f 	jalx	18d84bc <reboot_system+0x18d8304>
     480:	736e6f69 	0x736e6f69
     484:	6474732f 	0x6474732f
     488:	2f6b6473 	sltiu	t3,k1,25715
     48c:	325f7075 	andi	ra,s2,0x7075
     490:	62333238 	0x62333238
     494:	646f635f 	0x646f635f
     498:	73752f65 	0x73752f65
     49c:	61323832 	0x61323832
     4a0:	3731765f 	ori	s1,t9,0x765f
     4a4:	632f706d 	0x632f706d
     4a8:	2f657361 	sltiu	a1,k1,29537
     4ac:	632f7061 	0x632f7061
     4b0:	6f6d6d6f 	0x6f6d6d6f
     4b4:	6f632f6e 	0x6f632f6e
     4b8:	6e6f6d6d 	0x6e6f6d6d
     4bc:	61746f5f 	0x61746f5f
     4c0:	53455200 	beql	k0,a1,14cc4 <reboot_system+0x14b0c>
     4c4:	5f544c55 	0x5f544c55
     4c8:	4b434142 	c2	0x1434142
     4cc:	4543535f 	0x4543535f
     4d0:	445f454e 	0x445f454e
     4d4:	41505349 	0x41505349
     4d8:	00484354 	0x484354
     4dc:	65776f70 	0x65776f70
     4e0:	6e6f5f72 	0x6e6f5f72
     4e4:	616c665f 	0x616c665f
     4e8:	6e750067 	0x6e750067
     4ec:	6e676973 	0x6e676973
     4f0:	63206465 	0x63206465
     4f4:	00726168 	0x726168
     4f8:	55534552 	bnel	t2,s3,11a44 <reboot_system+0x1188c>
     4fc:	415f544c 	0x415f544c
     500:	515f5050 	beql	t2,ra,14644 <reboot_system+0x1448c>
     504:	00544955 	0x544955
     508:	616f6c66 	0x616f6c66
     50c:	74620074 	jalx	18801d0 <reboot_system+0x1880018>
     510:	6177335f 	0x6177335f
     514:	74735f79 	jalx	1cd7de4 <reboot_system+0x1cd7c2c>
     518:	73757461 	0x73757461
     51c:	53455200 	beql	k0,a1,14d20 <reboot_system+0x14b68>
     520:	5f544c55 	0x5f544c55
     524:	45554c42 	0x45554c42
     528:	54454554 	bnel	v0,a1,11a7c <reboot_system+0x118c4>
     52c:	41435f48 	0x41435f48
     530:	6c004c4c 	0x6c004c4c
     534:	20676e6f 	addi	a3,v1,28271
     538:	676e6f6c 	0x676e6f6c
     53c:	746e6920 	jalx	1b9a480 <reboot_system+0x1b9a2c8>
     540:	6e5f6700 	0x6e5f6700
     544:	75735f6f 	jalx	5cd7dbc <reboot_system+0x5cd7c04>
     548:	726f7070 	0x726f7070
     54c:	74745f74 	jalx	1d17dd0 <reboot_system+0x1d17c18>
     550:	6c665f73 	0x6c665f73
     554:	52006761 	beqzl	s0,1a2dc <reboot_system+0x1a124>
     558:	4c555345 	0x4c555345
     55c:	49445f54 	0x49445f54
     560:	474f4c41 	c1	0x14f4c41
     564:	5445525f 	bnel	v0,a1,14ee4 <reboot_system+0x14d2c>
     568:	73005952 	udi2	t8,zero,t3,0x5
     56c:	5f627574 	0x5f627574
     570:	6c6f6f74 	0x6c6f6f74
     574:	79745f73 	0x79745f73
     578:	52006570 	beqzl	s0,19b3c <reboot_system+0x19984>
     57c:	4c555345 	0x4c555345
     580:	554d5f54 	bnel	t2,t5,182d4 <reboot_system+0x1811c>
     584:	5f434953 	0x5f434953
     588:	414c5055 	0x414c5055
     58c:	616c0059 	0x616c0059
     590:	645f7473 	0x645f7473
     594:	006b7369 	0x6b7369
     598:	73726556 	udi6	k1,s2,t4,0x15
     59c:	006e6f69 	0x6e6f69
     5a0:	20554e47 	addi	s5,v0,20039
     5a4:	2e332043 	sltiu	s3,s1,8259
     5a8:	20342e34 	addi	s4,at,11828
     5ac:	7370696d 	0x7370696d
     5b0:	2d656473 	sltiu	a1,t3,25715
     5b4:	36302e36 	ori	s0,s1,0x2e36
     5b8:	2d31302e 	sltiu	s1,t1,12334
     5bc:	37303032 	ori	s0,t9,0x3032
     5c0:	30323430 	andi	s2,at,0x3430
     5c4:	75747300 	jalx	5d1cc00 <reboot_system+0x5d1ca48>
     5c8:	68705f62 	0x68705f62
     5cc:	79745f79 	0x79745f79
     5d0:	68006570 	0x68006570
     5d4:	655f7066 	0x655f7066
     5d8:	62617473 	0x62617473
     5dc:	6873696c 	0x6873696c
     5e0:	73006465 	0x73006465
     5e4:	5f767265 	0x5f767265
     5e8:	6e6e6f63 	0x6e6e6f63
     5ec:	61686300 	0x61686300
     5f0:	5f656772 	0x5f656772
     5f4:	74617473 	jalx	185d1cc <reboot_system+0x185d014>
     5f8:	45520065 	0x45520065
     5fc:	544c5553 	bnel	v0,t4,15b4c <reboot_system+0x15994>
     600:	4345525f 	c0	0x145525f
     604:	5f44524f 	0x5f44524f
     608:	454e494c 	0x454e494c
     60c:	545f4e49 	bnel	v0,ra,13f34 <reboot_system+0x13d7c>
     610:	5200434f 	beqzl	s0,11350 <reboot_system+0x11198>
     614:	4c555345 	0x4c555345
     618:	43525f54 	c0	0x1525f54
     61c:	434c5f50 	c0	0x14c5f50
     620:	4941575f 	0x4941575f
     624:	45520054 	0x45520054
     628:	544c5553 	bnel	v0,t4,15b78 <reboot_system+0x159c0>
     62c:	4345525f 	c0	0x145525f
     630:	5f44524f 	0x5f44524f
     634:	454e494c 	0x454e494c
     638:	545f4e49 	bnel	v0,ra,13f60 <reboot_system+0x13da8>
     63c:	7400554f 	jalx	1553c <reboot_system+0x15384>
     640:	685f7377 	0x685f7377
     644:	635f7066 	0x635f7066
     648:	665f6e6f 	0x665f6e6f
     64c:	0067616c 	0x67616c
     650:	66696e73 	0x66696e73
     654:	74735f66 	jalx	1cd7d98 <reboot_system+0x1cd7be0>
     658:	73757461 	0x73757461
     65c:	53455200 	beql	k0,a1,14e60 <reboot_system+0x14ca8>
     660:	5f544c55 	0x5f544c55
     664:	4c414944 	0x4c414944
     668:	555f474f 	bnel	t2,ra,123a8 <reboot_system+0x121f0>
     66c:	535f4253 	beql	k0,ra,10fbc <reboot_system+0x10e04>
     670:	444e554f 	0x444e554f
     674:	72616300 	0x72616300
     678:	74735f64 	jalx	1cd7d90 <reboot_system+0x1cd7bd8>
     67c:	00657461 	0x657461
     680:	565f7746 	bnel	s2,ra,1e39c <reboot_system+0x1e1e4>
     684:	745f7265 	jalx	17dc994 <reboot_system+0x17dc7dc>
     688:	635f6700 	0x635f6700
     68c:	705f7572 	0x705f7572
     690:	5f6b6361 	0x5f6b6361
     694:	6e756f63 	0x6e756f63
     698:	72650074 	0x72650074
     69c:	74735f72 	jalx	1cd7dc8 <reboot_system+0x1cd7c10>
     6a0:	73757461 	0x73757461
     6a4:	64326100 	0x64326100
     6a8:	74735f70 	jalx	1cd7dc0 <reboot_system+0x1cd7c08>
     6ac:	73757461 	0x73757461
     6b0:	72617000 	0x72617000
     6b4:	64695f74 	0x64695f74
     6b8:	53455200 	beql	k0,a1,14ebc <reboot_system+0x14d04>
     6bc:	5f544c55 	0x5f544c55
     6c0:	4c414944 	0x4c414944
     6c4:	4f5f474f 	c3	0x15f474f
     6c8:	5f594c4e 	0x5f594c4e
     6cc:	52414843 	beql	s2,at,127dc <reboot_system+0x12624>
     6d0:	68004547 	0x68004547
     6d4:	74735f70 	jalx	1cd7dc0 <reboot_system+0x1cd7c08>
     6d8:	00657461 	0x657461
     6dc:	72646461 	0x72646461
     6e0:	53455200 	beql	k0,a1,14ee4 <reboot_system+0x14d2c>
     6e4:	5f544c55 	0x5f544c55
     6e8:	504f5453 	beql	v0,t7,15838 <reboot_system+0x15680>
     6ec:	4145535f 	0x4145535f
     6f0:	00484352 	0x484352
     6f4:	68745f67 	0x68745f67
     6f8:	615f7369 	0x615f7369
     6fc:	745f7070 	jalx	17dc1c0 <reboot_system+0x17dc008>
     700:	72656d69 	0x72656d69
     704:	6761745f 	0x6761745f
     708:	70706100 	0x70706100
     70c:	666e695f 	0x666e695f
     710:	74735f6f 	jalx	1cd7dbc <reboot_system+0x1cd7c04>
     714:	5f657461 	0x5f657461
     718:	5f6c6c61 	0x5f6c6c61
     71c:	4e490074 	c3	0x490074
     720:	00553854 	0x553854
     724:	55534552 	bnel	t2,s3,11c70 <reboot_system+0x11ab8>
     728:	455f544c 	0x455f544c
     72c:	5245544e 	beql	s2,a1,15868 <reboot_system+0x156b0>
     730:	4750555f 	c1	0x150555f
     734:	45444152 	0x45444152
     738:	53455200 	beql	k0,a1,14f3c <reboot_system+0x14d84>
     73c:	5f544c55 	0x5f544c55
     740:	454e4f4e 	0x454e4f4e
     744:	4556455f 	0x4556455f
     748:	6700544e 	0x6700544e
     74c:	6e6f635f 	0x6e6f635f
     750:	7463656e 	jalx	18d95b8 <reboot_system+0x18d9400>
     754:	7065725f 	udi15	v1,a1,t6,0x9
     758:	45520079 	0x45520079
     75c:	544c5553 	bnel	v0,t4,15cac <reboot_system+0x15af4>
     760:	414c505f 	0x414c505f
     764:	44535f59 	0x44535f59
     768:	49465f44 	0x49465f44
     76c:	00323244 	0x323244
     770:	55534552 	bnel	t2,s3,11cbc <reboot_system+0x11b04>
     774:	4d5f544c 	0x4d5f544c
     778:	43495355 	c0	0x1495355
     77c:	414c505f 	0x414c505f
     780:	68740059 	0x68740059
     784:	5f656572 	0x5f656572
     788:	5f796177 	0x5f796177
     78c:	74617473 	jalx	185d1cc <reboot_system+0x185d014>
     790:	72007375 	0x72007375
     794:	72657365 	0x72657365
     798:	00646576 	tne	v1,a0,0x195
     79c:	6c5f6473 	0x6c5f6473
     7a0:	6f5f7369 	0x6f5f7369
     7a4:	5f670076 	0x5f670076
     7a8:	5f727563 	0x5f727563
     7ac:	5f636572 	0x5f636572
     7b0:	74617473 	jalx	185d1cc <reboot_system+0x185d014>
     7b4:	78650065 	0x78650065
     7b8:	6e726574 	0x6e726574
     7bc:	7461625f 	jalx	185897c <reboot_system+0x18587c4>
     7c0:	006e695f 	0x6e695f
     7c4:	70615f67 	0x70615f67
     7c8:	6e695f70 	0x6e695f70
     7cc:	735f6f66 	0x735f6f66
     7d0:	65746174 	0x65746174
     7d4:	6c6c615f 	0x6c6c615f
     7d8:	53455200 	beql	k0,a1,14fdc <reboot_system+0x14e24>
     7dc:	5f544c55 	0x5f544c55
     7e0:	454c4449 	0x454c4449
     7e4:	444f4d5f 	0x444f4d5f
     7e8:	6f730045 	0x6f730045
     7ec:	5f646e75 	0x5f646e75
     7f0:	74617473 	jalx	185d1cc <reboot_system+0x185d014>
     7f4:	65640065 	0x65640065
     7f8:	69645f76 	0x69645f76
     7fc:	6e6f6373 	0x6e6f6373
     800:	636f6c5f 	0x636f6c5f
     804:	6170006b 	0x6170006b
     808:	42007269 	c0	0x7269
     80c:	52455f54 	beql	s2,a1,18560 <reboot_system+0x183a8>
     810:	494c5f52 	0x494c5f52
     814:	59454b4e 	0x59454b4e
     818:	53494d5f 	beql	k0,t1,13d98 <reboot_system+0x13be0>
     81c:	77740053 	jalx	dd0014c <reboot_system+0xdcfff94>
     820:	65645f73 	0x65645f73
     824:	69645f76 	0x69645f76
     828:	6e6f6373 	0x6e6f6373
     82c:	53455200 	beql	k0,a1,15030 <reboot_system+0x14e78>
     830:	5f544c55 	0x5f544c55
     834:	464e4f43 	c1	0x4e4f43
     838:	435f4749 	c0	0x15f4749
     83c:	47524148 	c1	0x1524148
     840:	55515f45 	bnel	t2,s1,18558 <reboot_system+0x183a0>
     844:	62005449 	0x62005449
     848:	5f747461 	0x5f747461
     84c:	70707573 	0x70707573
     850:	6574726f 	0x6574726f
     854:	77740064 	jalx	dd00190 <reboot_system+0xdcfffd8>
     858:	61705f73 	0x61705f73
     85c:	735f7269 	0x735f7269
     860:	75746174 	jalx	5d185d0 <reboot_system+0x5d18418>
     864:	45520073 	0x45520073
     868:	544c5553 	bnel	v0,t4,15db8 <reboot_system+0x15c00>
     86c:	554c425f 	bnel	t2,t4,111ec <reboot_system+0x11034>
     870:	45455445 	0x45455445
     874:	435f4854 	c0	0x15f4854
     878:	5f4c4c41 	0x5f4c4c41
     87c:	4b434142 	c2	0x1434142
     880:	554f5247 	bnel	t2,t7,151a0 <reboot_system+0x14fe8>
     884:	6100444e 	0x6100444e
     888:	725f7070 	0x725f7070
     88c:	6c757365 	0x6c757365
     890:	00655f74 	teq	v1,a1,0x17d
     894:	565f7746 	bnel	s2,ra,1e5b0 <reboot_system+0x1e3f8>
     898:	4d5f7265 	0x4d5f7265
     89c:	6c75646f 	0x6c75646f
     8a0:	00745f65 	0x745f65
     8a4:	705f7462 	0x705f7462
     8a8:	7265776f 	0x7265776f
     8ac:	006e6f5f 	0x6e6f5f
     8b0:	5f757263 	0x5f757263
     8b4:	6b636170 	0x6b636170
     8b8:	756f635f 	jalx	5bd8d7c <reboot_system+0x5bd8bc4>
     8bc:	6c00746e 	0x6c00746e
     8c0:	69656e69 	0x69656e69
     8c4:	74735f6e 	jalx	1cd7db8 <reboot_system+0x1cd7c00>
     8c8:	00657461 	0x657461
     8cc:	6e676973 	0x6e676973
     8d0:	63206465 	0x63206465
     8d4:	00726168 	0x726168
     8d8:	55534552 	bnel	t2,s3,11e24 <reboot_system+0x11c6c>
     8dc:	525f544c 	beql	s2,ra,15a10 <reboot_system+0x15858>
     8e0:	524f4345 	beql	s2,t7,115f8 <reboot_system+0x11440>
     8e4:	50435f44 	beql	v0,v1,185f8 <reboot_system+0x18440>
     8e8:	0059414c 	syscall	0x16505
     8ec:	70615f67 	0x70615f67
     8f0:	6e695f70 	0x6e695f70
     8f4:	735f6f66 	0x735f6f66
     8f8:	65746174 	0x65746174
     8fc:	53455200 	beql	k0,a1,15100 <reboot_system+0x14f48>
     900:	5f544c55 	0x5f544c55
     904:	54535953 	bnel	v0,s3,16e54 <reboot_system+0x16c9c>
     908:	455f4d45 	0x455f4d45
     90c:	5f544958 	0x5f544958
     910:	72003353 	udi3	s0,zero,a2,0xd
     914:	6f646e61 	0x6f646e61
     918:	70755f6d 	0x70755f6d
     91c:	656b5f67 	0x656b5f67
     920:	6e650079 	0x6e650079
     924:	656e6967 	0x656e6967
     928:	6174735f 	0x6174735f
     92c:	52006574 	beqzl	s0,19f00 <reboot_system+0x19d48>
     930:	4c555345 	0x4c555345
     934:	4e455f54 	c3	0x455f54
     938:	5f524554 	0x5f524554
     93c:	52414c41 	beql	s2,at,13a44 <reboot_system+0x1388c>
     940:	6572004d 	0x6572004d
     944:	746f6f62 	jalx	1bdbd88 <reboot_system+0x1bdbbd0>
     948:	7379735f 	udi15	k1,t9,t6,0xd
     94c:	006d6574 	teq	v1,t5,0x195
     950:	655f7462 	0x655f7462
     954:	655f7272 	0x655f7272
     958:	53455200 	beql	k0,a1,1515c <reboot_system+0x14fa4>
     95c:	5f544c55 	0x5f544c55
     960:	4c414944 	0x4c414944
     964:	495f474f 	0x495f474f
     968:	524f4e47 	beql	s2,t7,14288 <reboot_system+0x140d0>
     96c:	69660045 	0x69660045
     970:	61735f78 	0x61735f78
     974:	656c706d 	0x656c706d
     978:	7461725f 	jalx	185c97c <reboot_system+0x185c7c4>
     97c:	6c665f65 	0x6c665f65
     980:	6d006761 	0x6d006761
     984:	6c75646f 	0x6c75646f
     988:	45520065 	0x45520065
     98c:	544c5553 	bnel	v0,t4,15edc <reboot_system+0x15d24>
     990:	5252455f 	beql	s2,s2,11f10 <reboot_system+0x11d58>
     994:	5200524f 	beqzl	s0,152d4 <reboot_system+0x1511c>
     998:	4c555345 	0x4c555345
     99c:	4f505f54 	c3	0x1505f54
     9a0:	5f524557 	0x5f524557
     9a4:	0046464f 	0x46464f
     9a8:	55534552 	bnel	t2,s3,11ef4 <reboot_system+0x11d3c>
     9ac:	445f544c 	0x445f544c
     9b0:	4f4c4149 	c3	0x14c4149
     9b4:	45595f47 	0x45595f47
     9b8:	45520053 	0x45520053
     9bc:	544c5553 	bnel	v0,t4,15f0c <reboot_system+0x15d54>
     9c0:	4149445f 	0x4149445f
     9c4:	5f474f4c 	0x5f474f4c
     9c8:	524f4241 	beql	s2,t7,112d0 <reboot_system+0x11118>
     9cc:	5f670054 	0x5f670054
     9d0:	646e6573 	0x646e6573
     9d4:	7272655f 	udi15	s3,s2,t4,0x15
     9d8:	6f635f6f 	0x6f635f6f
     9dc:	00746e75 	0x746e75
     9e0:	5f726961 	0x5f726961
     9e4:	5f746b70 	0x5f746b70
     9e8:	006e656c 	0x6e656c
     9ec:	676e6f6c 	0x676e6f6c
     9f0:	746e6920 	jalx	1b9a480 <reboot_system+0x1b9a2c8>
     9f4:	53455200 	beql	k0,a1,151f8 <reboot_system+0x15040>
     9f8:	5f544c55 	0x5f544c55
     9fc:	5458454e 	bnel	v0,t8,11f38 <reboot_system+0x11d80>
     a00:	4e55465f 	c3	0x55465f
     a04:	4f495443 	c3	0x1495443
     a08:	4552004e 	0x4552004e
     a0c:	544c5553 	bnel	v0,t4,15f5c <reboot_system+0x15da4>
     a10:	53554d5f 	beql	k0,s5,13f90 <reboot_system+0x13dd8>
     a14:	435f4349 	c0	0x15f4349
     a18:	59414c50 	0x59414c50
     a1c:	716e6500 	0x716e6500
     a20:	79726975 	0x79726975
     a24:	73656d5f 	udi15	k1,a1,t5,0x15
     a28:	65676173 	0x65676173
     a2c:	5200745f 	beqzl	s0,1dbac <reboot_system+0x1d9f4>
     a30:	4c555345 	0x4c555345
     a34:	45525f54 	0x45525f54
     a38:	44524f43 	0x44524f43
     a3c:	5f4d465f 	0x5f4d465f
     a40:	00434f54 	0x434f54
     a44:	65725f67 	0x65725f67
     a48:	5f796c70 	0x5f796c70
     a4c:	6e696b62 	0x6e696b62
     a50:	52006f66 	beqzl	s0,1c7ec <reboot_system+0x1c634>
     a54:	4c555345 	0x4c555345
     a58:	45525f54 	0x45525f54
     a5c:	44524f43 	0x44524f43
     a60:	5f4d465f 	0x5f4d465f
     a64:	00554f54 	0x554f54
     a68:	6d5f6170 	0x6d5f6170
     a6c:	0065646f 	0x65646f
     a70:	62757473 	0x62757473
     a74:	5f63705f 	0x5f63705f
     a78:	6c6f6f74 	0x6c6f6f74
     a7c:	79745f73 	0x79745f73
     a80:	52006570 	beqzl	s0,1a044 <reboot_system+0x19e8c>
     a84:	4c555345 	0x4c555345
     a88:	4f435f54 	c3	0x1435f54
     a8c:	4e4f4d4d 	c3	0x4f4d4d
     a90:	5345525f 	beql	k0,a1,15410 <reboot_system+0x15258>
     a94:	45565245 	0x45565245
     a98:	73657200 	0x73657200
     a9c:	64767265 	0x64767265
     aa0:	6e697500 	0x6e697500
     aa4:	00363174 	teq	at,s6,0xc5
     aa8:	5f706668 	0x5f706668
     aac:	72747461 	0x72747461
     ab0:	616c7000 	0x616c7000
     ab4:	6e615f79 	0x6e615f79
     ab8:	61705f64 	0x61705f64
     abc:	00657375 	0x657375
     ac0:	7473616c 	jalx	1cd85b0 <reboot_system+0x1cd83f8>
     ac4:	6e75665f 	0x6e75665f
     ac8:	6e695f63 	0x6e695f63
     acc:	00786564 	0x786564
     ad0:	55534552 	bnel	t2,s3,1201c <reboot_system+0x11e64>
     ad4:	455f544c 	0x455f544c
     ad8:	5245544e 	beql	s2,a1,15c14 <reboot_system+0x15a5c>
     adc:	41544f5f 	0x41544f5f
     ae0:	4e4f535f 	c3	0x4f535f
     ae4:	45545f47 	0x45545f47
     ae8:	63005453 	0x63005453
     aec:	00726168 	0x726168
     af0:	7373656d 	0x7373656d
     af4:	5f656761 	0x5f656761
     af8:	79706f63 	0x79706f63
     afc:	61746f00 	0x61746f00
     b00:	716e655f 	udi15	t3,t6,t4,0x15
     b04:	79726975 	0x79726975
     b08:	73656d5f 	udi15	k1,a1,t5,0x15
     b0c:	65676173 	0x65676173
     b10:	6e6f6300 	0x6e6f6300
     b14:	7463656e 	jalx	18d95b8 <reboot_system+0x18d9400>
     b18:	7065725f 	udi15	v1,a1,t6,0x9
     b1c:	745f796c 	jalx	17de5b0 <reboot_system+0x17de3f8>
     b20:	62616300 	0x62616300
     b24:	735f656c 	0x735f656c
     b28:	65746174 	0x65746174
     b2c:	6e697500 	0x6e697500
     b30:	00323374 	teq	at,s2,0xcd
     b34:	6e655f70 	0x6e655f70
     b38:	79677265 	0x79677265
     b3c:	6c61765f 	0x6c61765f
     b40:	665f6575 	0x665f6575
     b44:	73716572 	0x73716572
     b48:	706d7400 	0x706d7400
     b4c:	6d6f635f 	0x6d6f635f
     b50:	7063725f 	udi15	v1,v1,t6,0x9
     b54:	666e695f 	0x666e695f
     b58:	4552006f 	0x4552006f
     b5c:	544c5553 	bnel	v0,t4,160ac <reboot_system+0x15ef4>
     b60:	544e455f 	bnel	v0,t6,120e0 <reboot_system+0x11f28>
     b64:	535f5245 	beql	k0,ra,1547c <reboot_system+0x152c4>
     b68:	5f425554 	0x5f425554
     b6c:	55424544 	bnel	t2,v0,12080 <reboot_system+0x11ec8>
     b70:	656d0047 	0x656d0047
     b74:	67617373 	0x67617373
     b78:	79745f65 	0x79745f65
     b7c:	61006570 	0x61006570
     b80:	735f6b70 	0x735f6b70
     b84:	75746174 	jalx	5d185d0 <reboot_system+0x5d18418>
     b88:	45520073 	0x45520073
     b8c:	544c5553 	bnel	v0,t4,160dc <reboot_system+0x15f24>
     b90:	4e47495f 	c3	0x47495f
     b94:	0045524f 	0x45524f
     b98:	6574756f 	0x6574756f
     b9c:	61705f72 	0x61705f72
     ba0:	006e6f5f 	0x6e6f5f
     ba4:	55534552 	bnel	t2,s3,120f0 <reboot_system+0x11f38>
     ba8:	455f544c 	0x455f544c
     bac:	5245544e 	beql	s2,a1,15ce8 <reboot_system+0x15b30>
     bb0:	4553555f 	0x4553555f
     bb4:	54003152 	bnezl	zero,d100 <reboot_system+0xcf48>
     bb8:	45455248 	0x45455248
     bbc:	5941575f 	0x5941575f
     bc0:	4c4f485f 	0x4c4f485f
     bc4:	4f4e5f44 	c3	0x14e5f44
     bc8:	58455f54 	0x58455f54
     bcc:	00545349 	0x545349
     bd0:	79616c70 	0x79616c70
     bd4:	6174735f 	0x6174735f
     bd8:	5f737574 	0x5f737574
     bdc:	67616c66 	0x67616c66
     be0:	756f6100 	jalx	5bd8400 <reboot_system+0x5bd8248>
     be4:	6f6d5f74 	0x6f6d5f74
     be8:	67006564 	0x67006564
     bec:	5f70685f 	0x5f70685f
     bf0:	5f64656c 	0x5f64656c
     bf4:	74617473 	jalx	185d1cc <reboot_system+0x185d014>
     bf8:	74730065 	jalx	1cc0194 <reboot_system+0x1cbffdc>
     bfc:	6d5f6275 	0x6d5f6275
     c00:	5f65646f 	0x5f65646f
     c04:	67616c66 	0x67616c66
     c08:	53455200 	beql	k0,a1,1540c <reboot_system+0x15254>
     c0c:	5f544c55 	0x5f544c55
     c10:	5453414c 	bnel	v0,s3,11144 <reboot_system+0x10f8c>
     c14:	59414c50 	0x59414c50
     c18:	5f544200 	0x5f544200
     c1c:	5f525245 	0x5f525245
     c20:	62005748 	0x62005748
     c24:	65747461 	0x65747461
     c28:	725f7972 	0x725f7972
     c2c:	726f7065 	0x726f7065
     c30:	6e655f74 	0x6e655f74
     c34:	656c6261 	0x656c6261
     c38:	756f6400 	jalx	5bd9000 <reboot_system+0x5bd8e48>
     c3c:	00656c62 	0x656c62
     c40:	55534552 	bnel	t2,s3,1218c <reboot_system+0x11fd4>
     c44:	435f544c 	c0	0x15f544c
     c48:	49464e4f 	0x49464e4f
     c4c:	48435f47 	0x48435f47
     c50:	45475241 	0x45475241
     c54:	76656400 	jalx	9959000 <reboot_system+0x9958e48>
     c58:	6c6f725f 	0x6c6f725f
     c5c:	64770065 	0x64770065
     c60:	6c74635f 	0x6c74635f
     c64:	706d745f 	udi15	v1,t5,t6,0x11
     c68:	61744f00 	0x61744f00
     c6c:	7063725f 	udi15	v1,v1,t6,0x9
     c70:	635f715f 	0x635f715f
     c74:	645f646d 	0x645f646d
     c78:	2e6c6165 	sltiu	t4,s3,24933
     c7c:	6d720063 	0x6d720063
     c80:	65645f74 	0x65645f74
     c84:	61640076 	0x61640076
     c88:	00316174 	teq	at,s1,0x185
     c8c:	61746164 	0x61746164
     c90:	61640032 	0x61640032
     c94:	67006174 	0x67006174
     c98:	6361625f 	0x6361625f
     c9c:	5f70756b 	0x5f70756b
     ca0:	74726170 	jalx	1c985c0 <reboot_system+0x1c98408>
     ca4:	6464615f 	0x6464615f
     ca8:	63730072 	0x63730072
     cac:	696c5f6f 	0x696c5f6f
     cb0:	6f006b6e 	0x6f006b6e
     cb4:	735f646c 	0x735f646c
     cb8:	6c5f6f63 	0x6c5f6f63
     cbc:	006b6e69 	0x6b6e69
     cc0:	55534552 	bnel	t2,s3,1220c <reboot_system+0x12054>
     cc4:	445f544c 	0x445f544c
     cc8:	4f4c4149 	c3	0x14c4149
     ccc:	4f4e5f47 	c3	0x14e5f47
     cd0:	53455200 	beql	k0,a1,154d4 <reboot_system+0x1531c>
     cd4:	5f544c55 	0x5f544c55
     cd8:	43524f46 	c0	0x1524f46
     cdc:	54545f45 	bnel	v0,s4,189f4 <reboot_system+0x1883c>
     ce0:	54535f53 	bnel	v0,s3,18a30 <reboot_system+0x18878>
     ce4:	6400504f 	0x6400504f
     ce8:	645f7665 	0x645f7665
     cec:	6f637369 	0x6f637369
     cf0:	63656e6e 	0x63656e6e
     cf4:	676e6974 	0x676e6974
     cf8:	74796200 	jalx	1e58800 <reboot_system+0x1e58648>
     cfc:	70007365 	0x70007365
     d00:	656e6f68 	0x656e6f68
     d04:	616d6f74 	0x616d6f74
     d08:	72657473 	0x72657473
     d0c:	006e6f63 	0x6e6f63
     d10:	6e6f6870 	0x6e6f6870
     d14:	6d6f7465 	0x6d6f7465
     d18:	65747361 	0x65747361
     d1c:	73696472 	0x73696472
     d20:	53455200 	beql	k0,a1,15524 <reboot_system+0x1536c>
     d24:	5f544c55 	0x5f544c55
     d28:	4c414944 	0x4c414944
     d2c:	4f5f474f 	c3	0x15f474f
     d30:	7774004b 	jalx	dd0012c <reboot_system+0xdcfff74>
     d34:	6f635f73 	0x6f635f73
     d38:	63656e6e 	0x63656e6e
     d3c:	74735f74 	jalx	1cd7dd0 <reboot_system+0x1cd7c18>
     d40:	54420061 	bnel	v0,v0,ec8 <.debug_str+0xec8>
     d44:	5252455f 	beql	s2,s2,122c4 <reboot_system+0x1210c>
     d48:	4741505f 	c1	0x141505f
     d4c:	49545f45 	0x49545f45
     d50:	554f454d 	bnel	t2,t7,12288 <reboot_system+0x120d0>
     d54:	5f700054 	0x5f700054
     d58:	72656e65 	0x72656e65
     d5c:	765f7967 	jalx	97de59c <reboot_system+0x97de3e4>
     d60:	65756c61 	0x65756c61
     d64:	6e61625f 	0x6e61625f
     d68:	42007364 	c0	0x7364
     d6c:	52455f54 	beql	s2,a1,18ac0 <reboot_system+0x18908>
     d70:	4f4e5f52 	c3	0x14e5f52
     d74:	7600454e 	jalx	8011538 <reboot_system+0x8011380>
     d78:	625f7265 	0x625f7265
     d7c:	62006675 	0x62006675
     d80:	74735f74 	jalx	1cd7dd0 <reboot_system+0x1cd7c18>
     d84:	5f6b6361 	0x5f6b6361
     d88:	6f666e69 	0x6f666e69
     d8c:	6100745f 	0x6100745f
     d90:	5f706432 	0x5f706432
     d94:	72747461 	0x72747461
     d98:	6e6f6c00 	0x6e6f6c00
     d9c:	6f6c2067 	0x6f6c2067
     da0:	7520676e 	jalx	4819db8 <reboot_system+0x4819c00>
     da4:	6769736e 	0x6769736e
     da8:	2064656e 	addi	a0,v1,25966
     dac:	00746e69 	0x746e69
     db0:	735f7462 	0x735f7462
     db4:	6b636174 	0x6b636174
     db8:	6275735f 	0x6275735f
     dbc:	666e695f 	0x666e695f
     dc0:	00745f6f 	0x745f6f
     dc4:	656e6e69 	0x656e6e69
     dc8:	61705f72 	0x61705f72
     dcc:	696e695f 	0x696e695f
     dd0:	00646574 	teq	v1,a0,0x195
     dd4:	5f766564 	0x5f766564
     dd8:	65707974 	0x65707974
     ddc:	53455200 	beql	k0,a1,155e0 <reboot_system+0x15428>
     de0:	5f544c55 	0x5f544c55
     de4:	5f445345 	0x5f445345
     de8:	54534552 	bnel	v0,s3,12334 <reboot_system+0x1217c>
     dec:	00545241 	0x545241
     df0:	70643261 	0x70643261
     df4:	7463615f 	jalx	18d857c <reboot_system+0x18d83c4>
     df8:	5f657669 	0x5f657669
     dfc:	52006469 	beqzl	s0,19fa4 <reboot_system+0x19dec>
     e00:	4c555345 	0x4c555345
     e04:	4e455f54 	c3	0x455f54
     e08:	5f524554 	0x5f524554
     e0c:	5f41544f 	0x5f41544f
     e10:	52475055 	beql	s2,a3,14f68 <reboot_system+0x14db0>
     e14:	00454441 	0x454441
     e18:	5f636572 	0x5f636572
     e1c:	61746164 	0x61746164
     e20:	6174735f 	0x6174735f
     e24:	74006574 	jalx	195d0 <reboot_system+0x19418>
     e28:	6164625f 	0x6164625f
     e2c:	00726464 	0x726464
     e30:	5f647365 	0x5f647365
     e34:	65736572 	0x65736572
     e38:	6c665f74 	0x6c665f74
     e3c:	45520061 	0x45520061
     e40:	544c5553 	bnel	v0,t4,16390 <reboot_system+0x161d8>
     e44:	544e455f 	bnel	v0,t6,123c4 <reboot_system+0x1220c>
     e48:	415f5245 	0x415f5245
     e4c:	5f545153 	0x5f545153
     e50:	545f4648 	bnel	v0,ra,12774 <reboot_system+0x125bc>
     e54:	00545345 	0x545345
     e58:	55534552 	bnel	t2,s3,123a4 <reboot_system+0x121ec>
     e5c:	455f544c 	0x455f544c
     e60:	5245544e 	beql	s2,a1,15f9c <reboot_system+0x15de4>
     e64:	4e494c5f 	c3	0x494c5f
     e68:	004e4945 	0x4e4945
     e6c:	5f706668 	0x5f706668
     e70:	69746361 	0x69746361
     e74:	695f6576 	0x695f6576
     e78:	45520064 	0x45520064
     e7c:	544c5553 	bnel	v0,t4,163cc <reboot_system+0x16214>
     e80:	4149445f 	0x4149445f
     e84:	5f474f4c 	0x5f474f4c
     e88:	434e4143 	c0	0x14e4143
     e8c:	52004c45 	beqzl	s0,13fa4 <reboot_system+0x13dec>
     e90:	4c555345 	0x4c555345
     e94:	49445f54 	0x49445f54
     e98:	474f4c41 	c1	0x14f4c41
     e9c:	4e41435f 	c3	0x41435f
     ea0:	5f4c4543 	0x5f4c4543
     ea4:	4f545541 	c3	0x1545541
     ea8:	70706100 	0x70706100
     eac:	666e695f 	0x666e695f
     eb0:	74735f6f 	jalx	1cd7dbc <reboot_system+0x1cd7c04>
     eb4:	5f657461 	0x5f657461
     eb8:	45520074 	0x45520074
     ebc:	544c5553 	bnel	v0,t4,1640c <reboot_system+0x16254>
     ec0:	414c415f 	0x414c415f
     ec4:	535f4d52 	beql	k0,ra,14410 <reboot_system+0x14258>
     ec8:	5a4f4f4e 	0x5a4f4f4e
     ecc:	77660045 	jalx	d980114 <reboot_system+0xd97ff5c>
     ed0:	7265765f 	udi15	s3,a1,t6,0x19
     ed4:	74656700 	jalx	1959c00 <reboot_system+0x1959a48>
     ed8:	7265765f 	udi15	s3,a1,t6,0x19
     edc:	73656d5f 	udi15	k1,a1,t5,0x15
     ee0:	65676173 	0x65676173
     ee4:	74617000 	jalx	185c000 <reboot_system+0x185be48>
     ee8:	645f6863 	0x645f6863
     eec:	6c6e776f 	0x6c6e776f
     ef0:	5f64616f 	0x5f64616f
     ef4:	67616c66 	0x67616c66
     ef8:	65656e00 	0x65656e00
     efc:	70755f64 	0x70755f64
     f00:	65746164 	0x65746164
     f04:	616c705f 	0x616c705f
     f08:	73696c79 	0x73696c79
     f0c:	45520074 	0x45520074
     f10:	544c5553 	bnel	v0,t4,16460 <reboot_system+0x162a8>
     f14:	4e414d5f 	c3	0x414d5f
     f18:	5f4c4155 	0x5f4c4155
     f1c:	52414553 	beql	s2,at,1246c <reboot_system+0x122b4>
     f20:	445f4843 	0x445f4843
     f24:	004e574f 	0x4e574f
     f28:	55534552 	bnel	t2,s3,12474 <reboot_system+0x122bc>
     f2c:	535f544c 	beql	k0,ra,16060 <reboot_system+0x15ea8>
     f30:	45545359 	0x45545359
     f34:	4e455f4d 	c3	0x455f4d
     f38:	5f524554 	0x5f524554
     f3c:	61003353 	0x61003353
     f40:	735f7070 	0x735f7070
     f44:	65746174 	0x65746174
     f48:	5f544200 	0x5f544200
     f4c:	5f525245 	0x5f525245
     f50:	5f544f4e 	0x5f544f4e
     f54:	55504f50 	bnel	t2,s0,14c98 <reboot_system+0x14ae0>
     f58:	49575f50 	0x49575f50
     f5c:	574f444e 	bnel	k0,t7,12098 <reboot_system+0x11ee0>
     f60:	656e6500 	0x656e6500
     f64:	5f796772 	0x5f796772
     f68:	69617661 	0x69617661
     f6c:	6c62616c 	0x6c62616c
     f70:	6c665f65 	0x6c665f65
     f74:	75006761 	jalx	4019d84 <reboot_system+0x4019bcc>
     f78:	74736f68 	jalx	1cdbda0 <reboot_system+0x1cdbbe8>
     f7c:	6174735f 	0x6174735f
     f80:	6c006574 	0x6c006574
     f84:	5f747361 	0x5f747361
     f88:	5f737973 	0x5f737973
     f8c:	74617473 	jalx	185d1cc <reboot_system+0x185d014>
     f90:	70007375 	0x70007375
     f94:	6d6f635f 	0x6d6f635f
     f98:	7063725f 	udi15	v1,v1,t6,0x9
     f9c:	696b625f 	0x696b625f
     fa0:	006f666e 	0x6f666e
     fa4:	6f747561 	0x6f747561
     fa8:	74736574 	jalx	1cd95d0 <reboot_system+0x1cd9418>
     fac:	646f6d5f 	0x646f6d5f
     fb0:	45520065 	0x45520065
     fb4:	544c5553 	bnel	v0,t4,16504 <reboot_system+0x1634c>
     fb8:	5455415f 	bnel	v0,s5,11538 <reboot_system+0x11380>
     fbc:	45535f4f 	0x45535f4f
     fc0:	48435241 	0x48435241
     fc4:	52485400 	beql	s2,t0,15fc8 <reboot_system+0x15e10>
     fc8:	575f4545 	bnel	k0,ra,124e0 <reboot_system+0x12328>
     fcc:	4e5f5941 	c3	0x5f5941
     fd0:	435f5745 	c0	0x15f5745
     fd4:	5f4c4c41 	0x5f4c4c41
     fd8:	73004e49 	0x73004e49
     fdc:	74726f68 	jalx	1c9bda0 <reboot_system+0x1c9bbe8>
     fe0:	746e6920 	jalx	1b9a480 <reboot_system+0x1b9a2c8>
     fe4:	73657200 	0x73657200
     fe8:	64767265 	0x64767265
     fec:	656d0032 	0x656d0032
     ff0:	5f616964 	0x5f616964
     ff4:	65707974 	0x65707974
     ff8:	625f6700 	0x625f6700
     ffc:	74735f74 	jalx	1cd7dd0 <reboot_system+0x1cd7c18>
    1000:	5f6b6361 	0x5f6b6361
    1004:	5f727563 	0x5f727563
    1008:	6f666e69 	0x6f666e69
    100c:	615f6700 	0x615f6700
    1010:	6c5f7070 	0x6c5f7070
    1014:	5f747361 	0x5f747361
    1018:	74617473 	jalx	185d1cc <reboot_system+0x185d014>
    101c:	Address 0x101c is out of bounds.

Disassembly of section .comment:

00000000 <.comment>:
   0:	43434700 	c0	0x1434700
   4:	4728203a 	c1	0x128203a
   8:	2029554e 	addi	t1,at,21838
   c:	2e342e33 	sltiu	s4,s1,11827
  10:	696d2034 	0x696d2034
  14:	64737370 	0x64737370
  18:	2e362d65 	sltiu	s6,s1,11621
  1c:	302e3630 	andi	t6,at,0x3630
  20:	30322d31 	andi	s2,at,0x2d31
  24:	34303730 	ori	s0,at,0x3730
  28:	Address 0x28 is out of bounds.


Ota_rcp_reboot_cmd.o:     file format elf32-tradlittlemips

Disassembly of section .text:

00000000 <ota_restart_to_upgrade>:
   0:	64f4      	save	32,ra,s0-s1
   2:	b00b      	lw	s0,2c <ota_restart_to_upgrade+0x2c>
   4:	b10c      	lw	s1,34 <ota_restart_to_upgrade+0x34>
   6:	b50b      	lw	a1,30 <ota_restart_to_upgrade+0x30>
   8:	6790      	move	a0,s0
   a:	6e14      	li	a2,20
   c:	e940      	jalr	s1
   e:	6f12      	li	a3,18
  10:	b508      	lw	a1,30 <ota_restart_to_upgrade+0x30>
  12:	6a01      	li	v0,1
  14:	6790      	move	a0,s0
  16:	6e14      	li	a2,20
  18:	6f13      	li	a3,19
  1a:	e940      	jalr	s1
  1c:	c04a      	sb	v0,10(s0)
  1e:	1800 0000 	jal	0 <ota_restart_to_upgrade>
  22:	6500      	nop
  24:	6a00      	li	v0,0
  26:	6474      	restore	32,ra,s0-s1
  28:	e8a0      	jrc	ra
	...
  32:	0015      	addiu	s0,sp,84
  34:	0000      	addiu	s0,sp,0
	...

00000038 <ota_restart_to_clean_data>:
  38:	64f4      	save	32,ra,s0-s1
  3a:	6d00      	li	a1,0
  3c:	b120      	lw	s1,bc <ota_restart_to_clean_data+0x84>
  3e:	67c5      	move	a2,a1
  40:	0c11      	la	a0,84 <ota_restart_to_clean_data+0x4c>
  42:	e940      	jalr	s1
  44:	6f4b      	li	a3,75
  46:	b01f      	lw	s0,c0 <ota_restart_to_clean_data+0x88>
  48:	b51f      	lw	a1,c4 <ota_restart_to_clean_data+0x8c>
  4a:	6790      	move	a0,s0
  4c:	6e14      	li	a2,20
  4e:	e940      	jalr	s1
  50:	6f12      	li	a3,18
  52:	6b00      	li	v1,0
  54:	6d00      	li	a1,0
  56:	b21d      	lw	v0,c8 <ota_restart_to_clean_data+0x90>
  58:	c063      	sb	v1,3(s0)
  5a:	c062      	sb	v1,2(s0)
  5c:	c069      	sb	v1,9(s0)
  5e:	6c11      	li	a0,17
  60:	67c5      	move	a2,a1
  62:	ea40      	jalr	v0
  64:	6f06      	li	a3,6
  66:	2a05      	bnez	v0,72 <ota_restart_to_clean_data+0x3a>
  68:	0c0f      	la	a0,a4 <ota_restart_to_clean_data+0x6c>
  6a:	67a2      	move	a1,v0
  6c:	67c2      	move	a2,v0
  6e:	e940      	jalr	s1
  70:	6f4b      	li	a3,75
  72:	b515      	lw	a1,c4 <ota_restart_to_clean_data+0x8c>
  74:	6790      	move	a0,s0
  76:	6e14      	li	a2,20
  78:	e940      	jalr	s1
  7a:	6f13      	li	a3,19
  7c:	6a00      	li	v0,0
  7e:	6474      	restore	32,ra,s0-s1
  80:	e8a0      	jrc	ra
  82:	0000      	addiu	s0,sp,0
  84:	6572      	move	s3,v0
  86:	6563      	move	v1,v1
  88:	7669      	cmpi	a2,105
  8a:	2065      	beqz	s0,156 <ota_send_complete+0x8a>
  8c:	6572      	move	s3,v0
  8e:	7473      	cmpi	a0,115
  90:	7461      	cmpi	a0,97
  92:	6320      	addiu	sp,256
  94:	656c      	move	t3,a0
  96:	6e61      	li	a2,97
  98:	645f      	restore	120,ra,s1
  9a:	7461      	cmpi	a0,97
  9c:	2061      	beqz	s0,160 <ota_send_complete+0x94>
  9e:	4d43      	addiu	a1,67
  a0:	2144      	beqz	s1,12a <ota_send_complete+0x5e>
  a2:	0000      	addiu	s0,sp,0
  a4:	6c63      	li	a0,99
  a6:	6165      	btnez	172 <ota_send_complete+0xa6>
  a8:	2072      	beqz	s0,18e <ota_send_complete+0xc2>
  aa:	544f      	slti	a0,79
  ac:	2041      	beqz	s0,130 <ota_send_complete+0x64>
  ae:	6164      	btnez	178 <ota_send_complete+0xac>
  b0:	6174      	btnez	19a <ota_send_complete+0xce>
  b2:	6620      	0x6620
  b4:	6961      	li	s1,97
  b6:	216c      	beqz	s1,190 <ota_send_complete+0xc4>
  b8:	0021      	addiu	s0,sp,132
	...
  c6:	0015      	addiu	s0,sp,84
  c8:	0000      	addiu	s0,sp,0
	...

000000cc <ota_send_complete>:
  cc:	64f4      	save	32,ra,s0-s1
  ce:	b112      	lw	s1,114 <ota_send_complete+0x48>
  d0:	6d00      	li	a1,0
  d2:	67c5      	move	a2,a1
  d4:	0c0c      	la	a0,104 <ota_send_complete+0x38>
  d6:	e940      	jalr	s1
  d8:	6f4b      	li	a3,75
  da:	b010      	lw	s0,118 <ota_send_complete+0x4c>
  dc:	b510      	lw	a1,11c <ota_send_complete+0x50>
  de:	6790      	move	a0,s0
  e0:	6e14      	li	a2,20
  e2:	e940      	jalr	s1
  e4:	6f12      	li	a3,18
  e6:	b40f      	lw	a0,120 <ota_send_complete+0x54>
  e8:	6b02      	li	v1,2
  ea:	9c40      	lw	v0,0(a0)
  ec:	b50c      	lw	a1,11c <ota_send_complete+0x50>
  ee:	c062      	sb	v1,2(s0)
  f0:	6790      	move	a0,s0
  f2:	f020 c26b 	sb	v1,43(v0)
  f6:	6e14      	li	a2,20
  f8:	e940      	jalr	s1
  fa:	6f13      	li	a3,19
  fc:	6a00      	li	v0,0
  fe:	6474      	restore	32,ra,s0-s1
 100:	e8a0      	jrc	ra
 102:	0000      	addiu	s0,sp,0
 104:	6573      	move	s3,v1
 106:	646e      	restore	112,ra,s0
 108:	6320      	addiu	sp,256
 10a:	6d6f      	li	a1,111
 10c:	6c70      	li	a0,112
 10e:	7465      	cmpi	a0,101
 110:	0065      	addiu	s0,sp,404
	...
 11e:	0015      	addiu	s0,sp,84
 120:	0000      	addiu	s0,sp,0
	...
Disassembly of section .reginfo:

00000000 <.reginfo>:
   0:	800100ff 	lb	at,255(zero)
	...
Disassembly of section .pdr:

00000000 <.pdr>:
   0:	00000000 	nop
   4:	80030000 	lb	v1,0(zero)
   8:	fffffffc 	sdc3	$31,-4(ra)
	...
  14:	00000020 	add	zero,zero,zero
  18:	0000001d 	0x1d
  1c:	0000001f 	0x1f
  20:	00000000 	nop
  24:	80030000 	lb	v1,0(zero)
  28:	fffffffc 	sdc3	$31,-4(ra)
	...
  34:	00000020 	add	zero,zero,zero
  38:	0000001d 	0x1d
  3c:	0000001f 	0x1f
  40:	00000000 	nop
  44:	80030000 	lb	v1,0(zero)
  48:	fffffffc 	sdc3	$31,-4(ra)
	...
  54:	00000020 	add	zero,zero,zero
  58:	0000001d 	0x1d
  5c:	0000001f 	0x1f
Disassembly of section .debug_abbrev:

00000000 <.debug_abbrev>:
   0:	10011101 	beq	zero,at,4408 <ota_send_complete+0x433c>
   4:	11011206 	beq	t0,at,4820 <ota_send_complete+0x4754>
   8:	130e2501 	beq	t8,t6,9410 <ota_send_complete+0x9344>
   c:	1b0e030b 	0x1b0e030b
  10:	0200000e 	0x200000e
  14:	0e030024 	jal	80c0090 <ota_send_complete+0x80bffc4>
  18:	0b3e0b0b 	j	cf82c2c <ota_send_complete+0xcf82b60>
  1c:	16030000 	bne	s0,v1,20 <.debug_abbrev+0x20>
  20:	3a0e0300 	xori	t6,s0,0x300
  24:	490b3b0b 	bc2tl	$cc2,ec54 <ota_send_complete+0xeb88>
  28:	04000013 	bltz	zero,78 <.debug_abbrev+0x78>
  2c:	08030024 	j	c0090 <ota_send_complete+0xbffc4>
  30:	0b3e0b0b 	j	cf82c2c <ota_send_complete+0xcf82b60>
  34:	0f050000 	jal	c140000 <ota_send_complete+0xc13ff34>
  38:	000b0b00 	sll	at,t3,0xc
  3c:	01130600 	0x1130600
  40:	0b0b1301 	j	c2c4c04 <ota_send_complete+0xc2c4b38>
  44:	0b3b0b3a 	j	cec2ce8 <ota_send_complete+0xcec2c1c>
  48:	0d070000 	jal	41c0000 <ota_send_complete+0x41bff34>
  4c:	3a080300 	xori	t0,s0,0x300
  50:	490b3b0b 	bc2tl	$cc2,ec80 <ota_send_complete+0xebb4>
  54:	000a3813 	0xa3813
  58:	000d0800 	sll	at,t5,0x0
  5c:	0b3a0e03 	j	ce8380c <ota_send_complete+0xce83740>
  60:	13490b3b 	beq	k0,t1,2d50 <ota_send_complete+0x2c84>
  64:	00000a38 	0xa38
  68:	01010109 	0x1010109
  6c:	00134913 	0x134913
  70:	00210a00 	0x210a00
  74:	0b2f1349 	j	cbc4d24 <ota_send_complete+0xcbc4c58>
  78:	040b0000 	tltiu	zero,0
  7c:	0b130101 	j	c4c0404 <ota_send_complete+0xc4c0338>
  80:	3b0b3a0b 	xori	t3,t8,0x3a0b
  84:	0c00000b 	jal	2c <.debug_abbrev+0x2c>
  88:	0e030028 	jal	80c00a0 <ota_send_complete+0x80bffd4>
  8c:	00000d1c 	0xd1c
  90:	0300160d 	break	0x300,0x58
  94:	3b0b3a0e 	xori	t3,t8,0x3a0e
  98:	00134905 	0x134905
  9c:	01130e00 	0x1130e00
  a0:	0b0b1301 	j	c2c4c04 <ota_send_complete+0xc2c4b38>
  a4:	053b0b3a 	0x53b0b3a
  a8:	0d0f0000 	jal	43c0000 <ota_send_complete+0x43bff34>
  ac:	3a0e0300 	xori	t6,s0,0x300
  b0:	49053b0b 	bc2t	$cc1,ece0 <ota_send_complete+0xec14>
  b4:	000a3813 	0xa3813
  b8:	000d1000 	sll	v0,t5,0x0
  bc:	0b3a0e03 	j	ce8380c <ota_send_complete+0xce83740>
  c0:	1349053b 	beq	k0,t1,15b0 <ota_send_complete+0x14e4>
  c4:	0b0d0b0b 	j	c342c2c <ota_send_complete+0xc342b60>
  c8:	0a380b0c 	j	8e02c30 <ota_send_complete+0x8e02b64>
  cc:	0f110000 	jal	c440000 <ota_send_complete+0xc43ff34>
  d0:	490b0b00 	bc2tl	$cc2,2cd4 <ota_send_complete+0x2c08>
  d4:	12000013 	beqz	s0,124 <.debug_abbrev+0x124>
  d8:	1301012e 	beq	t8,at,594 <ota_send_complete+0x4c8>
  dc:	0e030c3f 	jal	80c30fc <ota_send_complete+0x80c3030>
  e0:	0b3b0b3a 	j	cec2ce8 <ota_send_complete+0xcec2c1c>
  e4:	13490c27 	beq	k0,t1,3184 <ota_send_complete+0x30b8>
  e8:	01120111 	0x1120111
  ec:	00000a40 	sll	at,zero,0x9
  f0:	03000513 	0x3000513
  f4:	3b0b3a0e 	xori	t3,t8,0x3a0e
  f8:	0213490b 	0x213490b
  fc:	1400000a 	bnez	zero,128 <.debug_abbrev+0x128>
 100:	08030034 	j	c00d0 <ota_send_complete+0xc0004>
 104:	0b3b0b3a 	j	cec2ce8 <ota_send_complete+0xcec2c1c>
 108:	0a021349 	j	8084d24 <ota_send_complete+0x8084c58>
 10c:	34150000 	li	s5,0x0
 110:	3a0e0300 	xori	t6,s0,0x300
 114:	490b3b0b 	bc2tl	$cc2,ed44 <ota_send_complete+0xec78>
 118:	3c0c3f13 	lui	t4,0x3f13
 11c:	1600000c 	bnez	s0,150 <ota_send_complete+0x84>
 120:	0e030034 	jal	80c00d0 <ota_send_complete+0x80c0004>
 124:	053b0b3a 	0x53b0b3a
 128:	0c3f1349 	jal	fc4d24 <ota_send_complete+0xfc4c58>
 12c:	00000c3c 	0xc3c
	...
Disassembly of section .debug_info:

00000000 <.debug_info>:
   0:	000009da 	0x9da
   4:	00000002 	srl	zero,zero,0x0
   8:	01040000 	0x1040000
   c:	00000000 	nop
  10:	00000124 	0x124
  14:	00000000 	nop
  18:	000004fe 	0x4fe
  1c:	00059b01 	0x59b01
  20:	0003cc00 	sll	t9,v1,0x10
  24:	04450200 	0x4450200
  28:	08010000 	j	40000 <ota_send_complete+0x3ff34>
  2c:	00066d03 	sra	t5,a2,0x14
  30:	250f0600 	addiu	t7,t0,1536
  34:	02000000 	0x2000000
  38:	000007a0 	0x7a0
  3c:	f3020601 	0xf3020601
  40:	02000000 	0x2000000
  44:	0cb90207 	jal	2e4081c <ota_send_complete+0x2e40750>
  48:	05020000 	bltzl	t0,4c <.debug_info+0x4c>
  4c:	00035402 	srl	t2,v1,0x10
  50:	02070400 	0x2070400
  54:	00000896 	0x896
  58:	63020504 	0x63020504
  5c:	04000004 	bltz	zero,70 <.debug_info+0x70>
  60:	0a630204 	j	98c0810 <ota_send_complete+0x98c0744>
  64:	04080000 	tgei	zero,0
  68:	000b0902 	srl	at,t3,0x4
  6c:	02070800 	0x2070800
  70:	0000047f 	0x47f
  74:	14020508 	bne	zero,v0,1498 <ota_send_complete+0x13cc>
  78:	04000000 	bltz	zero,7c <.debug_info+0x7c>
  7c:	01db0307 	0x1db0307
  80:	15030000 	bne	t0,v1,84 <.debug_info+0x84>
  84:	00000025 	move	zero,zero
  88:	00094b03 	sra	t1,t1,0xc
  8c:	3e1d0300 	0x3e1d0300
  90:	03000000 	0x3000000
  94:	0000099e 	0x99e
  98:	00762503 	0x762503
  9c:	69040000 	0x69040000
  a0:	0400746e 	bltz	zero,1d25c <ota_send_complete+0x1d190>
  a4:	097d0205 	j	5f40814 <ota_send_complete+0x5f40748>
  a8:	06010000 	bgez	s0,ac <.debug_info+0xac>
  ac:	00035402 	srl	t2,v1,0x10
  b0:	05070400 	0x5070400
  b4:	00e80604 	0xe80604
  b8:	08080000 	j	200000 <ota_send_complete+0x1fff34>
  bc:	49500778 	0x49500778
  c0:	75080044 	jalx	4200110 <ota_send_complete+0x4200044>
  c4:	0000003e 	0x3e
  c8:	07002302 	bltz	t8,8cd4 <ota_send_complete+0x8c08>
  cc:	00444956 	0x444956
  d0:	003e7608 	0x3e7608
  d4:	23020000 	addi	v0,t8,0
  d8:	04e40802 	0x4e40802
  dc:	77080000 	jalx	c200000 <ota_send_complete+0xc1fff34>
  e0:	000000e8 	0xe8
  e4:	00042302 	srl	a0,a0,0xc
  e8:	0000f809 	jalr	zero
  ec:	0000a500 	sll	s4,zero,0x14
  f0:	00ac0a00 	0xac0a00
  f4:	00030000 	sll	zero,v1,0x0
  f8:	0005bb03 	sra	s7,a1,0xc
  fc:	b5780800 	0xb5780800
 100:	06000000 	bltz	s0,104 <.debug_info+0x104>
 104:	00000198 	0x198
 108:	088f0814 	j	23c2050 <ota_send_complete+0x23c1f84>
 10c:	00000744 	0x744
 110:	00888408 	0x888408
 114:	23020000 	addi	v0,t8,0
 118:	06000800 	bltz	s0,211c <ota_send_complete+0x2050>
 11c:	85080000 	lh	t0,0(t0)
 120:	0000007d 	0x7d
 124:	08022302 	j	88c08 <ota_send_complete+0x88b3c>
 128:	00000610 	0x610
 12c:	007d8608 	0x7d8608
 130:	23020000 	addi	v0,t8,0
 134:	09d20803 	j	748200c <ota_send_complete+0x7481f40>
 138:	87080000 	lh	t0,0(t8)
 13c:	00000088 	0x88
 140:	08042302 	j	108c08 <ota_send_complete+0x108b3c>
 144:	0000065b 	0x65b
 148:	00888808 	0x888808
 14c:	23020000 	addi	v0,t8,0
 150:	05d50806 	0x5d50806
 154:	89080000 	lwl	t0,0(t0)
 158:	0000007d 	0x7d
 15c:	08082302 	j	208c08 <ota_send_complete+0x208b3c>
 160:	0000019d 	0x19d
 164:	007d8a08 	0x7d8a08
 168:	23020000 	addi	v0,t8,0
 16c:	03980809 	0x3980809
 170:	8b080000 	lwl	t0,0(t8)
 174:	0000007d 	0x7d
 178:	080a2302 	j	288c08 <ota_send_complete+0x288b3c>
 17c:	000006d1 	0x6d1
 180:	01988c08 	0x1988c08
 184:	23020000 	addi	v0,t8,0
 188:	004c080b 	movn	at,v0,t4
 18c:	8d080000 	lw	t0,0(t0)
 190:	000000f8 	0xf8
 194:	000c2302 	srl	a0,t4,0xc
 198:	0001a809 	0x1a809
 19c:	00007d00 	sll	t7,zero,0x14
 1a0:	00ac0a00 	0xac0a00
 1a4:	00000000 	nop
 1a8:	000b6b03 	sra	t5,t3,0xc
 1ac:	038f0800 	0x38f0800
 1b0:	0b000001 	j	c000004 <ota_send_complete+0xbffff38>
 1b4:	000003d2 	0x3d2
 1b8:	0ce00202 	jal	3800808 <ota_send_complete+0x380073c>
 1bc:	00000348 	0x348
 1c0:	09e80c00 	j	7a03000 <ota_send_complete+0x7a02f34>
 1c4:	0c010000 	jal	40000 <ota_send_complete+0x3ff34>
 1c8:	00000688 	0x688
 1cc:	05570c02 	0x5570c02
 1d0:	0c030000 	jal	c0000 <ota_send_complete+0xbff34>
 1d4:	0000092d 	0x92d
 1d8:	08400c20 	j	1003080 <ota_send_complete+0x1002fb4>
 1dc:	01800000 	0x1800000
 1e0:	00041c0c 	syscall	0x1070
 1e4:	0c018100 	jal	60400 <ota_send_complete+0x60334>
 1e8:	000001e1 	0x1e1
 1ec:	950c0182 	lhu	t4,386(t0)
 1f0:	83000000 	lb	zero,0(t8)
 1f4:	02290c01 	0x2290c01
 1f8:	01840000 	0x1840000
 1fc:	000ab40c 	syscall	0x2ad0
 200:	0c018500 	jal	61400 <ota_send_complete+0x61334>
 204:	00000b43 	sra	at,zero,0xd
 208:	8a0c01a1 	lwl	t4,417(s0)
 20c:	ff000001 	sdc3	$0,1(t8)
 210:	04530c01 	bgezall	v0,3218 <ota_send_complete+0x314c>
 214:	02800000 	0x2800000
 218:	0006bf0c 	syscall	0x1afc
 21c:	0c028100 	jal	a0400 <ota_send_complete+0xa0334>
 220:	000008b4 	teq	zero,zero,0x22
 224:	c70c0282 	lwc1	$f12,642(t8)
 228:	83000004 	lb	zero,4(t8)
 22c:	0b9a0c02 	j	e683008 <ota_send_complete+0xe682f3c>
 230:	02840000 	0x2840000
 234:	00002c0c 	syscall	0xb0
 238:	0c028500 	jal	a1400 <ota_send_complete+0xa1334>
 23c:	0000013b 	0x13b
 240:	690c0286 	0x690c0286
 244:	87000004 	lh	zero,4(t8)
 248:	074a0c02 	tlti	k0,3074
 24c:	02880000 	0x2880000
 250:	0003a30c 	syscall	0xe8c
 254:	0c028900 	jal	a2400 <ota_send_complete+0xa2334>
 258:	0000084d 	break	0x0,0x21
 25c:	790c028a 	0x790c028a
 260:	8b000001 	lwl	zero,1(t8)
 264:	00840c02 	0x840c02
 268:	028c0000 	0x28c0000
 26c:	0007ac0c 	syscall	0x1eb0
 270:	0c028d00 	jal	a3400 <ota_send_complete+0xa3334>
 274:	000002b2 	tlt	zero,zero,0xa
 278:	3e0c028e 	0x3e0c028e
 27c:	8f000005 	lw	zero,5(t8)
 280:	08d90c02 	j	3643008 <ota_send_complete+0x3642f3c>
 284:	02900000 	0x2900000
 288:	0000b70c 	syscall	0x2dc
 28c:	0c029100 	jal	a4400 <ota_send_complete+0xa4334>
 290:	0000056a 	0x56a
 294:	fd0c0292 	sdc3	$12,658(t0)
 298:	93000008 	lbu	zero,8(t8)
 29c:	00cd0c02 	0xcd0c02
 2a0:	02940000 	0x2940000
 2a4:	000a3d0c 	syscall	0x28f4
 2a8:	0c029500 	jal	a5400 <ota_send_complete+0xa5334>
 2ac:	0000089f 	0x89f
 2b0:	730c0296 	udi6	t8,t4,zero,0xa
 2b4:	97000006 	lhu	zero,6(t8)
 2b8:	02190c02 	0x2190c02
 2bc:	02980000 	0x2980000
 2c0:	0008030c 	syscall	0x200c
 2c4:	0c029900 	jal	a6400 <ota_send_complete+0xa6334>
 2c8:	00000bee 	0xbee
 2cc:	100c029a 	beq	zero,t4,d38 <ota_send_complete+0xc6c>
 2d0:	9b000001 	lwr	zero,1(t8)
 2d4:	01ae0c02 	0x1ae0c02
 2d8:	029c0000 	0x29c0000
 2dc:	000ca60c 	syscall	0x3298
 2e0:	0c029d00 	jal	a7400 <ota_send_complete+0xa7334>
 2e4:	00000123 	0x123
 2e8:	2b0c029e 	slti	t4,t8,670
 2ec:	9f00000c 	0x9f00000c
 2f0:	061e0c02 	0x61e0c02
 2f4:	02a00000 	0x2a00000
 2f8:	000a6a0c 	syscall	0x29a8
 2fc:	0c02a100 	jal	a8400 <ota_send_complete+0xa8334>
 300:	0000072a 	0x72a
 304:	800c02a2 	lb	t4,674(zero)
 308:	a300000b 	sb	zero,11(t8)
 30c:	0a020c02 	j	8083008 <ota_send_complete+0x8082f3c>
 310:	02a40000 	0x2a40000
 314:	000c450c 	syscall	0x3114
 318:	0c02a500 	jal	a9400 <ota_send_complete+0xa9334>
 31c:	000007d1 	0x7d1
 320:	ba0c02a6 	swr	t4,678(s0)
 324:	a7000009 	sh	zero,9(t8)
 328:	0b300c02 	j	cc03008 <ota_send_complete+0xcc02f3c>
 32c:	02a80000 	0x2a80000
 330:	00070d0c 	syscall	0x1c34
 334:	0c02a900 	jal	aa400 <ota_send_complete+0xaa334>
 338:	00000962 	0x962
 33c:	490c02aa 	bc2f	$cc3,de8 <ota_send_complete+0xd1c>
 340:	ab000002 	swl	zero,2(t8)
 344:	025f0c02 	0x25f0c02
 348:	02ac0000 	0x2ac0000
 34c:	0002750c 	syscall	0x9d4
 350:	0c02ad00 	jal	ab400 <ota_send_complete+0xab334>
 354:	0000028b 	0x28b
 358:	c60c02ae 	lwc1	$f12,686(s0)
 35c:	af000002 	sw	zero,2(t8)
 360:	02dc0c02 	0x2dc0c02
 364:	02b00000 	0x2b00000
 368:	0006a90c 	syscall	0x1aa4
 36c:	0c02b100 	jal	ac400 <ota_send_complete+0xac334>
 370:	000002f2 	tlt	zero,zero,0xb
 374:	080c02b2 	j	300ac8 <ota_send_complete+0x3009fc>
 378:	b3000003 	0xb3000003
 37c:	031e0c02 	0x31e0c02
 380:	02b40000 	0x2b40000
 384:	000ad30c 	syscall	0x2b4c
 388:	0c048000 	jal	120000 <ota_send_complete+0x11ff34>
 38c:	00000bae 	0xbae
 390:	700c0481 	pperm	zero,t4
 394:	82000008 	lb	zero,8(s0)
 398:	04a30c04 	bgezl	a1,33ac <ota_send_complete+0x32e0>
 39c:	04830000 	bgezl	a0,3a0 <.debug_info+0x3a0>
 3a0:	0008160c 	syscall	0x2058
 3a4:	0c048400 	jal	121000 <ota_send_complete+0x120f34>
 3a8:	0000085e 	0x85e
 3ac:	a30c0485 	sb	t4,1157(t8)
 3b0:	8600000a 	lh	zero,10(s0)
 3b4:	0bc30c04 	j	f0c3010 <ota_send_complete+0xf0c2f44>
 3b8:	04870000 	0x4870000
 3bc:	0005830c 	syscall	0x160c
 3c0:	0c048800 	jal	122000 <ota_send_complete+0x121f34>
 3c4:	000005dd 	0x5dd
 3c8:	7e0c0489 	0x7e0c0489
 3cc:	8a000003 	lwl	zero,3(s0)
 3d0:	6b0d0004 	0x6b0d0004
 3d4:	02000007 	srav	zero,zero,s0
 3d8:	01b3017a 	0x1b3017a
 3dc:	ee090000 	swc3	$9,0(s0)
 3e0:	7d000003 	0x7d000003
 3e4:	0a000000 	j	8000000 <ota_send_complete+0x7ffff34>
 3e8:	000000ac 	0xac
 3ec:	0c0e0005 	jal	380014 <ota_send_complete+0x37ff48>
 3f0:	1c000005 	bgtz	zero,408 <.debug_info+0x408>
 3f4:	0f013d05 	jal	c04f414 <ota_send_complete+0xc04f348>
 3f8:	0000015e 	0x15e
 3fc:	7d011805 	0x7d011805
 400:	02000000 	0x2000000
 404:	f60f0023 	sdc1	$f15,35(s0)
 408:	05000007 	bltz	t0,428 <.debug_info+0x428>
 40c:	007d011a 	0x7d011a
 410:	23020000 	addi	v0,t8,0
 414:	0c5c0f01 	jal	1703c04 <ota_send_complete+0x1703b38>
 418:	1c050000 	0x1c050000
 41c:	00007d01 	0x7d01
 420:	02230200 	0x2230200
 424:	0003c20f 	0x3c20f
 428:	011e0500 	0x11e0500
 42c:	0000007d 	0x7d
 430:	0f032302 	jal	c0c8c08 <ota_send_complete+0xc0c8b3c>
 434:	0000048d 	break	0x0,0x12
 438:	7d012305 	0x7d012305
 43c:	02000000 	0x2000000
 440:	340f0423 	li	t7,0x423
 444:	05000003 	bltz	t0,454 <.debug_info+0x454>
 448:	007d0124 	0x7d0124
 44c:	23020000 	addi	v0,t8,0
 450:	04371005 	0x4371005
 454:	25050000 	addiu	a1,t0,0
 458:	00007d01 	0x7d01
 45c:	04040100 	0x4040100
 460:	10062302 	beq	zero,a2,906c <ota_send_complete+0x8fa0>
 464:	00000a2e 	0xa2e
 468:	7d012605 	0x7d012605
 46c:	01000000 	0x1000000
 470:	23020004 	addi	v0,t8,4
 474:	0a1f0f06 	j	87c3c18 <ota_send_complete+0x87c3b4c>
 478:	28050000 	slti	a1,zero,0
 47c:	00007d01 	0x7d01
 480:	07230200 	bgezl	t9,c84 <ota_send_complete+0xbb8>
 484:	00071e0f 	0x71e0f
 488:	012b0500 	0x12b0500
 48c:	0000007d 	0x7d
 490:	0f082302 	jal	c208c08 <ota_send_complete+0xc208b3c>
 494:	0000082b 	sltu	at,zero,zero
 498:	7d012d05 	0x7d012d05
 49c:	02000000 	0x2000000
 4a0:	4d0f0923 	0x4d0f0923
 4a4:	0500000a 	bltz	t0,4d0 <.debug_info+0x4d0>
 4a8:	007d0130 	tge	v1,sp,0x4
 4ac:	23020000 	addi	v0,t8,0
 4b0:	0c660f0a 	jal	1983c28 <ota_send_complete+0x1983b5c>
 4b4:	33050000 	andi	a1,t8,0x0
 4b8:	00002c01 	0x2c01
 4bc:	0b230200 	j	c8c0800 <ota_send_complete+0xc8c0734>
 4c0:	00016a0f 	0x16a0f
 4c4:	01340500 	0x1340500
 4c8:	0000050c 	syscall	0x14
 4cc:	0f0c2302 	jal	c308c08 <ota_send_complete+0xc308b3c>
 4d0:	00000af4 	teq	zero,zero,0x2b
 4d4:	0c013705 	jal	4dc14 <ota_send_complete+0x4db48>
 4d8:	02000005 	0x2000005
 4dc:	a50f1023 	sh	t7,4131(t0)
 4e0:	05000009 	bltz	t0,508 <.debug_info+0x508>
 4e4:	050c0138 	teqi	t0,312
 4e8:	23020000 	addi	v0,t8,0
 4ec:	091a0f14 	j	4683c50 <ota_send_complete+0x4683b84>
 4f0:	3b050000 	xori	a1,t8,0x0
 4f4:	00007d01 	0x7d01
 4f8:	18230200 	0x18230200
 4fc:	0005230f 	0x5230f
 500:	013c0500 	0x13c0500
 504:	0000007d 	0x7d
 508:	00192302 	srl	a0,t9,0xc
 50c:	00450411 	0x450411
 510:	460d0000 	add.s	$f0,$f0,$f13
 514:	05000006 	bltz	t0,530 <.debug_info+0x530>
 518:	03ee013d 	0x3ee013d
 51c:	a50e0000 	sh	t6,0(t0)
 520:	18000006 	blez	zero,53c <.debug_info+0x53c>
 524:	0f017705 	jal	c05dc14 <ota_send_complete+0xc05db48>
 528:	00000021 	move	zero,zero
 52c:	2c014605 	sltiu	at,zero,17925
 530:	02000000 	0x2000000
 534:	120f0023 	beq	s0,t7,5c4 <.debug_info+0x5c4>
 538:	05000009 	bltz	t0,560 <.debug_info+0x560>
 53c:	002c0148 	0x2c0148
 540:	23020000 	addi	v0,t8,0
 544:	0a150f01 	j	8543c04 <ota_send_complete+0x8543b38>
 548:	4a050000 	c2	0x50000
 54c:	00007d01 	0x7d01
 550:	02230200 	0x2230200
 554:	0000e30f 	0xe30f
 558:	014c0500 	0x14c0500
 55c:	0000007d 	0x7d
 560:	0f032302 	jal	c0c8c08 <ota_send_complete+0xc0c8b3c>
 564:	000005b0 	tge	zero,zero,0x16
 568:	7d014e05 	0x7d014e05
 56c:	02000000 	0x2000000
 570:	7c0f0423 	0x7c0f0423
 574:	0500000c 	bltz	t0,5a8 <.debug_info+0x5a8>
 578:	007d0150 	0x7d0150
 57c:	23020000 	addi	v0,t8,0
 580:	07930f05 	bgezall	gp,4198 <ota_send_complete+0x40cc>
 584:	52050000 	beql	s0,a1,588 <.debug_info+0x588>
 588:	00007d01 	0x7d01
 58c:	06230200 	bgezl	s1,d90 <ota_send_complete+0xcc4>
 590:	0009920f 	0x9920f
 594:	01540500 	0x1540500
 598:	0000007d 	0x7d
 59c:	0f072302 	jal	c1c8c08 <ota_send_complete+0xc1c8b3c>
 5a0:	000005f7 	0x5f7
 5a4:	2c015605 	sltiu	at,zero,22021
 5a8:	02000000 	0x2000000
 5ac:	310f0823 	andi	t7,t0,0x823
 5b0:	05000005 	bltz	t0,5c8 <.debug_info+0x5c8>
 5b4:	007d0158 	0x7d0158
 5b8:	23020000 	addi	v0,t8,0
 5bc:	01060f09 	0x1060f09
 5c0:	5a050000 	0x5a050000
 5c4:	00007d01 	0x7d01
 5c8:	0a230200 	j	88c0800 <ota_send_complete+0x88c0734>
 5cc:	0003660f 	0x3660f
 5d0:	015c0500 	0x15c0500
 5d4:	0000002c 	0x2c
 5d8:	100b2302 	beq	zero,t3,91e4 <ota_send_complete+0x9118>
 5dc:	000004b7 	0x4b7
 5e0:	7d015e05 	0x7d015e05
 5e4:	01000000 	0x1000000
 5e8:	23020107 	addi	v0,t8,263
 5ec:	0523100c 	bgezl	t1,4620 <ota_send_complete+0x4554>
 5f0:	5f050000 	0x5f050000
 5f4:	00007d01 	0x7d01
 5f8:	00010100 	sll	zero,at,0x4
 5fc:	0f0c2302 	jal	c308c08 <ota_send_complete+0xc308b3c>
 600:	00000c98 	0xc98
 604:	7d016105 	0x7d016105
 608:	02000000 	0x2000000
 60c:	020f0d23 	0x20f0d23
 610:	0500000c 	bltz	t0,644 <.debug_info+0x644>
 614:	002c0164 	0x2c0164
 618:	23020000 	addi	v0,t8,0
 61c:	07780f0e 	0x7780f0e
 620:	66050000 	0x66050000
 624:	00002c01 	0x2c01
 628:	0f230200 	jal	c8c0800 <ota_send_complete+0xc8c0734>
 62c:	000b200f 	0xb200f
 630:	01680500 	0x1680500
 634:	0000002c 	0x2c
 638:	0f102302 	jal	c408c08 <ota_send_complete+0xc408b3c>
 63c:	000009f6 	tne	zero,zero,0x27
 640:	2c016a05 	sltiu	at,zero,27141
 644:	02000000 	0x2000000
 648:	f30f1123 	0xf30f1123
 64c:	05000001 	bltz	t0,654 <.debug_info+0x654>
 650:	007d016c 	0x7d016c
 654:	23020000 	addi	v0,t8,0
 658:	01520f12 	0x1520f12
 65c:	6e050000 	0x6e050000
 660:	00007d01 	0x7d01
 664:	13230200 	beq	t9,v1,e68 <ota_send_complete+0xd9c>
 668:	0009dd0f 	0x9dd0f
 66c:	01700500 	0x1700500
 670:	0000007d 	0x7d
 674:	0f142302 	jal	c508c08 <ota_send_complete+0xc508b3c>
 678:	00000000 	nop
 67c:	7d017205 	0x7d017205
 680:	02000000 	0x2000000
 684:	160f1523 	bne	s0,t7,5b14 <ota_send_complete+0x5a48>
 688:	0500000c 	bltz	t0,6bc <.debug_info+0x6bc>
 68c:	007d0174 	teq	v1,sp,0x5
 690:	23020000 	addi	v0,t8,0
 694:	06ea0f16 	tlti	s7,3862
 698:	76050000 	jalx	8140000 <ota_send_complete+0x813ff34>
 69c:	00007d01 	0x7d01
 6a0:	17230200 	bne	t9,v1,ea4 <ota_send_complete+0xdd8>
 6a4:	0bdd0d00 	j	f743400 <ota_send_complete+0xf743334>
 6a8:	77050000 	jalx	c140000 <ota_send_complete+0xc13ff34>
 6ac:	00051e01 	0x51e01
 6b0:	06f70e00 	0x6f70e00
 6b4:	05040000 	0x5040000
 6b8:	da0f0187 	ldc2	$15,391(s0)
 6bc:	05000004 	bltz	t0,6d0 <.debug_info+0x6d0>
 6c0:	007d0180 	0x7d0180
 6c4:	23020000 	addi	v0,t8,0
 6c8:	09520f00 	j	5483c00 <ota_send_complete+0x5483b34>
 6cc:	82050000 	lb	a1,0(s0)
 6d0:	00007d01 	0x7d01
 6d4:	01230200 	0x1230200
 6d8:	000c880f 	0xc880f
 6dc:	01840500 	0x1840500
 6e0:	0000007d 	0x7d
 6e4:	0f022302 	jal	c088c08 <ota_send_complete+0xc088b3c>
 6e8:	000001cc 	syscall	0x7
 6ec:	7d018605 	0x7d018605
 6f0:	02000000 	0x2000000
 6f4:	0d000323 	jal	4000c8c <ota_send_complete+0x4000bc0>
 6f8:	000002a1 	0x2a1
 6fc:	b1018705 	0xb1018705
 700:	06000006 	bltz	s0,71c <.debug_info+0x71c>
 704:	00000760 	0x760
 708:	0826070e 	j	981c38 <ota_send_complete+0x981b6c>
 70c:	0000004c 	syscall	0x1
 710:	00f81f07 	0xf81f07
 714:	23020000 	addi	v0,t8,0
 718:	07840800 	0x7840800
 71c:	20070000 	addi	a3,zero,0
 720:	00000088 	0x88
 724:	08082302 	j	208c08 <ota_send_complete+0x208b3c>
 728:	000005d5 	0x5d5
 72c:	007d2107 	0x7d2107
 730:	23020000 	addi	v0,t8,0
 734:	0b5c080a 	j	d702028 <ota_send_complete+0xd701f5c>
 738:	22070000 	addi	a3,s0,0
 73c:	0000007d 	0x7d
 740:	080b2302 	j	2c8c08 <ota_send_complete+0x2c8b3c>
 744:	00000ae4 	0xae4
 748:	007d2407 	0x7d2407
 74c:	23020000 	addi	v0,t8,0
 750:	06d1080c 	bgezal	s6,2784 <ota_send_complete+0x26b8>
 754:	25070000 	addiu	a3,t0,0
 758:	0000007d 	0x7d
 75c:	000d2302 	srl	a0,t5,0xc
 760:	0008c703 	sra	t8,t0,0x1c
 764:	03260700 	0x3260700
 768:	06000007 	bltz	s0,788 <.debug_info+0x788>
 76c:	00000790 	0x790
 770:	082c0710 	j	b01c40 <ota_send_complete+0xb01b74>
 774:	000003b4 	teq	zero,zero,0xe
 778:	007d2a07 	0x7d2a07
 77c:	23020000 	addi	v0,t8,0
 780:	06d10800 	bgezal	s6,2784 <ota_send_complete+0x26b8>
 784:	2b070000 	slti	a3,t8,0
 788:	00000790 	0x790
 78c:	00012302 	srl	a0,at,0xc
 790:	0007a009 	0x7a009
 794:	00007d00 	sll	t7,zero,0x14
 798:	00ac0a00 	0xac0a00
 79c:	000e0000 	sll	zero,t6,0x0
 7a0:	00098203 	sra	s0,t1,0x8
 7a4:	6b2c0700 	0x6b2c0700
 7a8:	06000007 	bltz	s0,7c8 <.debug_info+0x7c8>
 7ac:	00000816 	0x816
 7b0:	08380710 	j	e01c40 <ota_send_complete+0xe01b74>
 7b4:	000003b4 	teq	zero,zero,0xe
 7b8:	007d3107 	0x7d3107
 7bc:	23020000 	addi	v0,t8,0
 7c0:	09430800 	j	50c2000 <ota_send_complete+0x50c1f34>
 7c4:	32070000 	andi	a3,s0,0x0
 7c8:	0000007d 	0x7d
 7cc:	08012302 	j	48c08 <ota_send_complete+0x48b3c>
 7d0:	00000784 	0x784
 7d4:	00883307 	0x883307
 7d8:	23020000 	addi	v0,t8,0
 7dc:	07e70802 	0x7e70802
 7e0:	34070000 	li	a3,0x0
 7e4:	00000093 	0x93
 7e8:	08042302 	j	108c08 <ota_send_complete+0x108b3c>
 7ec:	000005d5 	0x5d5
 7f0:	007d3507 	0x7d3507
 7f4:	23020000 	addi	v0,t8,0
 7f8:	0b5c0808 	j	d702020 <ota_send_complete+0xd701f54>
 7fc:	36070000 	ori	a3,s0,0x0
 800:	0000007d 	0x7d
 804:	08092302 	j	248c08 <ota_send_complete+0x248b3c>
 808:	00000cc3 	sra	at,zero,0x13
 80c:	03de3707 	0x3de3707
 810:	23020000 	addi	v0,t8,0
 814:	7103000a 	0x7103000a
 818:	07000003 	bltz	t8,828 <.debug_info+0x828>
 81c:	0007ab38 	0x7ab38
 820:	087e0600 	j	1f81800 <ota_send_complete+0x1f81734>
 824:	07340000 	0x7340000
 828:	069a0861 	0x69a0861
 82c:	5b070000 	0x5b070000
 830:	000007a0 	0x7a0
 834:	08002302 	j	8c08 <ota_send_complete+0x8b3c>
 838:	000008ee 	0x8ee
 83c:	08165c07 	j	59701c <ota_send_complete+0x596f50>
 840:	23020000 	addi	v0,t8,0
 844:	06da0810 	0x6da0810
 848:	5d070000 	0x5d070000
 84c:	00000760 	0x760
 850:	08202302 	j	808c08 <ota_send_complete+0x808b3c>
 854:	00000a90 	0xa90
 858:	00885e07 	0x885e07
 85c:	23020000 	addi	v0,t8,0
 860:	05c4082e 	0x5c4082e
 864:	5f070000 	0x5f070000
 868:	00000088 	0x88
 86c:	08302302 	j	c08c08 <ota_send_complete+0xc08b3c>
 870:	00000884 	0x884
 874:	007d6007 	srav	t4,sp,v1
 878:	23020000 	addi	v0,t8,0
 87c:	57030032 	bnel	t8,v1,948 <.debug_info+0x948>
 880:	07000000 	bltz	t8,884 <.debug_info+0x884>
 884:	00082161 	0x82161
 888:	08d91200 	j	3644800 <ota_send_complete+0x3644734>
 88c:	02010000 	0x2010000
 890:	01000002 	0x1000002
 894:	03d2010f 	0x3d2010f
 898:	00000000 	nop
 89c:	002c0000 	0x2c0000
 8a0:	6d010000 	0x6d010000
 8a4:	000a7f13 	0xa7f13
 8a8:	930e0100 	lbu	t6,256(t8)
 8ac:	01000000 	0x1000000
 8b0:	0a851354 	j	a144d50 <ota_send_complete+0xa144c84>
 8b4:	0e010000 	jal	8040000 <ota_send_complete+0x803ff34>
 8b8:	00000093 	0x93
 8bc:	8b135501 	lwl	s3,21761(t8)
 8c0:	0100000a 	movz	zero,t0,zero
 8c4:	0000b30e 	0xb30e
 8c8:	13560100 	beq	k0,s6,ccc <ota_send_complete+0xc00>
 8cc:	00000aca 	0xaca
 8d0:	00880e01 	0x880e01
 8d4:	57010000 	bnel	t8,at,8d8 <.debug_info+0x8d8>
 8d8:	09361200 	j	4d84800 <ota_send_complete+0x4d84734>
 8dc:	6a010000 	0x6a010000
 8e0:	01000000 	0x1000000
 8e4:	03d20124 	0x3d20124
 8e8:	00000000 	nop
 8ec:	00840000 	0x840000
 8f0:	6d010000 	0x6d010000
 8f4:	000a7f13 	0xa7f13
 8f8:	93230100 	lbu	v1,256(t9)
 8fc:	01000000 	0x1000000
 900:	0a851354 	j	a144d50 <ota_send_complete+0xa144c84>
 904:	23010000 	addi	at,t8,0
 908:	00000093 	0x93
 90c:	8b135501 	lwl	s3,21761(t8)
 910:	0100000a 	movz	zero,t0,zero
 914:	0000b323 	0xb323
 918:	13560100 	beq	k0,s6,d1c <ota_send_complete+0xc50>
 91c:	00000aca 	0xaca
 920:	00882301 	0x882301
 924:	57010000 	bnel	t8,at,928 <.debug_info+0x928>
 928:	74657214 	jalx	195c850 <ota_send_complete+0x195c784>
 92c:	93260100 	lbu	a2,256(t9)
 930:	01000000 	0x1000000
 934:	86120052 	lh	s2,82(s0)
 938:	01000009 	jalr	zero,t0
 93c:	000004ec 	0x4ec
 940:	d2013901 	0xd2013901
 944:	00000003 	sra	zero,zero,0x0
 948:	04000000 	bltz	zero,94c <.debug_info+0x94c>
 94c:	01000001 	movf	zero,t0,$fcc0
 950:	0a7f136d 	j	9fc4db4 <ota_send_complete+0x9fc4ce8>
 954:	38010000 	xori	at,zero,0x0
 958:	00000093 	0x93
 95c:	85135401 	lh	s3,21505(t0)
 960:	0100000a 	movz	zero,t0,zero
 964:	00009338 	0x9338
 968:	13550100 	beq	k0,s5,d6c <ota_send_complete+0xca0>
 96c:	00000a8b 	0xa8b
 970:	00b33801 	0xb33801
 974:	56010000 	bnel	s0,at,978 <.debug_info+0x978>
 978:	000aca13 	0xaca13
 97c:	88380100 	lwl	t8,256(at)
 980:	01000000 	0x1000000
 984:	31150057 	andi	s5,t0,0x57
 988:	04000006 	bltz	zero,9a4 <.debug_info+0x9a4>
 98c:	00007d8a 	0x7d8a
 990:	16010100 	bne	s0,at,d94 <ota_send_complete+0xcc8>
 994:	000006f8 	0x6f8
 998:	12019b05 	beq	s0,at,fffe75b0 <ota_send_complete+0xfffe74e4>
 99c:	01000005 	0x1000005
 9a0:	0ccc1601 	jal	3305804 <ota_send_complete+0x3305738>
 9a4:	a1050000 	sb	a1,0(t0)
 9a8:	0006f701 	0x6f701
 9ac:	16010100 	bne	s0,at,db0 <ota_send_complete+0xce4>
 9b0:	000007c0 	sll	zero,zero,0x1f
 9b4:	a501a705 	sh	at,-22779(t0)
 9b8:	01000006 	srlv	zero,zero,t0
 9bc:	00391501 	0x391501
 9c0:	64070000 	0x64070000
 9c4:	000001a8 	0x1a8
 9c8:	a4150101 	sh	s5,257(zero)
 9cc:	07000001 	bltz	t8,9d4 <.debug_info+0x9d4>
 9d0:	0009d765 	0x9d765
 9d4:	11010100 	beq	t0,at,dd8 <ota_send_complete+0xd0c>
 9d8:	00087e04 	0x87e04
	...
Disassembly of section .debug_line:

00000000 <.debug_line>:
   0:	00000120 	0x120
   4:	00e60002 	0xe60002
   8:	01010000 	0x1010000
   c:	000a0efb 	0xa0efb
  10:	01010101 	0x1010101
  14:	01000000 	0x1000000
  18:	2e2e2f2e 	sltiu	t6,s1,12078
  1c:	2f2e2e2f 	sltiu	t6,t9,11823
  20:	692f2e2e 	0x692f2e2e
  24:	2e00636e 	sltiu	zero,s0,25454
  28:	2f2e2e2f 	sltiu	t6,t9,11823
  2c:	2e2f2e2e 	sltiu	t7,s1,11822
  30:	2e2e2f2e 	sltiu	t6,s1,12078
  34:	7073702f 	0x7073702f
  38:	6c65725f 	0x6c65725f
  3c:	636e692f 	0x636e692f
  40:	6564756c 	0x6564756c
  44:	2e2f2e00 	sltiu	t7,s1,11776
  48:	2e2e2f2e 	sltiu	t6,s1,12078
  4c:	2f2e2e2f 	sltiu	t6,t9,11823
  50:	702f2e2e 	0x702f2e2e
  54:	725f7073 	0x725f7073
  58:	692f6c65 	0x692f6c65
  5c:	756c636e 	jalx	5b18db8 <ota_send_complete+0x5b18cec>
  60:	752f6564 	jalx	4bd9590 <ota_send_complete+0x4bd94c4>
  64:	00736f63 	0x736f63
  68:	61744f00 	0x61744f00
  6c:	7063725f 	udi15	v1,v1,t6,0x9
  70:	6265725f 	0x6265725f
  74:	5f746f6f 	0x5f746f6f
  78:	2e646d63 	sltiu	a0,s3,28003
  7c:	00000063 	0x63
  80:	73616300 	0x73616300
  84:	79745f65 	0x79745f65
  88:	682e6570 	0x682e6570
  8c:	00000100 	sll	zero,zero,0x4
  90:	65707974 	0x65707974
  94:	2e747865 	sltiu	s4,s3,30821
  98:	00020068 	0x20068
  9c:	70706100 	0x70706100
  a0:	6d69745f 	0x6d69745f
  a4:	682e7265 	0x682e7265
  a8:	00000100 	sll	zero,zero,0x4
  ac:	6c707061 	0x6c707061
  b0:	682e6269 	0x682e6269
  b4:	00000100 	sll	zero,zero,0x4
  b8:	736f6375 	0x736f6375
  bc:	7079745f 	udi15	v1,t9,t6,0x11
  c0:	682e7365 	0x682e7365
  c4:	00000300 	sll	zero,zero,0xc
  c8:	6d6d6f43 	0x6d6d6f43
  cc:	6f5f6e6f 	0x6f5f6e6f
  d0:	682e6174 	0x682e6174
  d4:	00000100 	sll	zero,zero,0x4
  d8:	5f737973 	0x5f737973
  dc:	5f61746f 	0x5f61746f
  e0:	65746e69 	0x65746e69
  e4:	63616672 	0x63616672
  e8:	00682e65 	0x682e65
  ec:	00000002 	srl	zero,zero,0x0
  f0:	01020500 	0x1020500
  f4:	03000000 	0x3000000
  f8:	d52d010e 	ldc1	$f13,270(t1)
  fc:	03632c2a 	0x3632c2a
 100:	0865470a 	j	1951c28 <ota_send_complete+0x1951b5c>
 104:	b8b82e3e 	swr	t8,11838(a1)
 108:	2c2c442e 	sltiu	t4,at,17454
 10c:	9d2d802c 	0x9d2d802c
 110:	1350029f 	beq	k0,s0,b90 <ota_send_complete+0xac4>
 114:	2ab9b82c 	slti	t9,s5,-18388
 118:	2d292c2c 	sltiu	t1,t1,11308
 11c:	0266482a 	slt	t1,s3,a2
 120:	01010027 	nor	zero,t0,at
Disassembly of section .debug_frame:

00000000 <.debug_frame>:
   0:	0000000c 	syscall
   4:	ffffffff 	sdc3	$31,-1(ra)
   8:	04010001 	b	10 <.debug_frame+0x10>
   c:	001d0c1f 	0x1d0c1f
  10:	00000020 	add	zero,zero,zero
	...
  1c:	0000002b 	sltu	zero,zero,zero
  20:	0e040e42 	jal	8103908 <ota_send_complete+0x810383c>
  24:	0e0c0e08 	jal	8303820 <ota_send_complete+0x8303754>
  28:	7d101120 	0x7d101120
  2c:	117e1111 	beq	t3,s8,4474 <ota_send_complete+0x43a8>
  30:	00007f1f 	0x7f1f
  34:	00000020 	add	zero,zero,zero
	...
  40:	0000004b 	0x4b
  44:	0e040e42 	jal	8103908 <ota_send_complete+0x810383c>
  48:	0e0c0e08 	jal	8303820 <ota_send_complete+0x8303754>
  4c:	7d101120 	0x7d101120
  50:	117e1111 	beq	t3,s8,4498 <ota_send_complete+0x43cc>
  54:	00007f1f 	0x7f1f
  58:	00000020 	add	zero,zero,zero
	...
  64:	00000037 	0x37
  68:	0e040e42 	jal	8103908 <ota_send_complete+0x810383c>
  6c:	0e0c0e08 	jal	8303820 <ota_send_complete+0x8303754>
  70:	7d101120 	0x7d101120
  74:	117e1111 	beq	t3,s8,44bc <ota_send_complete+0x43f0>
  78:	00007f1f 	0x7f1f
Disassembly of section .debug_pubnames:

00000000 <.debug_pubnames>:
   0:	0000005d 	0x5d
   4:	00000002 	srl	zero,zero,0x0
   8:	09de0000 	j	7780000 <ota_send_complete+0x777ff34>
   c:	08890000 	j	2240000 <ota_send_complete+0x223ff34>
  10:	746f0000 	jalx	1bc0000 <ota_send_complete+0x1bbff34>
  14:	65725f61 	0x65725f61
  18:	72617473 	0x72617473
  1c:	6f745f74 	0x6f745f74
  20:	6770755f 	0x6770755f
  24:	65646172 	0x65646172
  28:	0008d900 	sll	k1,t0,0x4
  2c:	61746f00 	0x61746f00
  30:	7365725f 	udi15	k1,a1,t6,0x9
  34:	74726174 	jalx	1c985d0 <ota_send_complete+0x1c98504>
  38:	5f6f745f 	0x5f6f745f
  3c:	61656c63 	0x61656c63
  40:	61645f6e 	0x61645f6e
  44:	36006174 	ori	zero,s0,0x6174
  48:	6f000009 	0x6f000009
  4c:	735f6174 	0x735f6174
  50:	5f646e65 	0x5f646e65
  54:	706d6f63 	0x706d6f63
  58:	6574656c 	0x6574656c
  5c:	00000000 	nop
	...
Disassembly of section .debug_aranges:

00000000 <.debug_aranges>:
   0:	0000001c 	0x1c
   4:	00000002 	srl	zero,zero,0x0
   8:	00040000 	sll	zero,a0,0x0
	...
  14:	00000124 	0x124
	...
Disassembly of section .debug_str:

00000000 <.debug_str>:
   0:	69726576 	0x69726576
   4:	61636966 	0x61636966
   8:	6e6f6974 	0x6e6f6974
   c:	6174735f 	0x6174735f
  10:	00737574 	teq	v1,s3,0x1d5
  14:	69736e75 	0x69736e75
  18:	64656e67 	0x64656e67
  1c:	746e6920 	jalx	1b9a480 <ota_send_complete+0x1b9a3b4>
  20:	74756d00 	jalx	1d5b400 <ota_send_complete+0x1d5b334>
  24:	74735f65 	jalx	1cd7d94 <ota_send_complete+0x1cd7cc8>
  28:	00657461 	0x657461
  2c:	55534552 	bnel	t2,s3,11578 <ota_send_complete+0x114ac>
  30:	525f544c 	beql	s2,ra,15164 <ota_send_complete+0x15098>
  34:	4f494441 	c3	0x1494441
  38:	6f5f6700 	0x6f5f6700
  3c:	725f6174 	0x725f6174
  40:	6f747365 	0x6f747365
  44:	645f6572 	0x645f6572
  48:	00617461 	0x617461
  4c:	5f757263 	0x5f757263
  50:	61647075 	0x61647075
  54:	4f006174 	c3	0x1006174
  58:	6d5f4154 	0x6d5f4154
  5c:	6f6c6c61 	0x6f6c6c61
  60:	61705f63 	0x61705f63
  64:	5f6d6172 	0x5f6d6172
  68:	746f0074 	jalx	1bc01d0 <ota_send_complete+0x1bc0104>
  6c:	65725f61 	0x65725f61
  70:	72617473 	0x72617473
  74:	6f745f74 	0x6f745f74
  78:	656c635f 	0x656c635f
  7c:	645f6e61 	0x645f6e61
  80:	00617461 	0x617461
  84:	55534552 	bnel	t2,s3,115d0 <ota_send_complete+0x11504>
  88:	555f544c 	bnel	t2,ra,151bc <ota_send_complete+0x150f0>
  8c:	545f4253 	bnel	v0,ra,109dc <ota_send_complete+0x10910>
  90:	534e4152 	beql	k0,t6,105dc <ota_send_complete+0x10510>
  94:	53455200 	beql	k0,a1,14898 <ota_send_complete+0x147cc>
  98:	5f544c55 	0x5f544c55
  9c:	5f59454b 	0x5f59454b
  a0:	4e455645 	c3	0x455645
  a4:	45525f54 	0x45525f54
  a8:	4c414544 	0x4c414544
  ac:	5f59425f 	0x5f59425f
  b0:	4d4d4f43 	0x4d4d4f43
  b4:	52004e4f 	beqzl	s0,139f4 <ota_send_complete+0x13928>
  b8:	4c555345 	0x4c555345
  bc:	45525f54 	0x45525f54
  c0:	44524f43 	0x44524f43
  c4:	43494d5f 	c0	0x1494d5f
  c8:	434f545f 	c0	0x14f545f
  cc:	53455200 	beql	k0,a1,148d0 <ota_send_complete+0x14804>
  d0:	5f544c55 	0x5f544c55
  d4:	4f434552 	c3	0x1434552
  d8:	4d5f4452 	0x4d5f4452
  dc:	545f4349 	bnel	v0,ra,10e04 <ota_send_complete+0x10d38>
  e0:	6200554f 	0x6200554f
  e4:	6c6b6361 	0x6c6b6361
  e8:	74686769 	jalx	1a19da4 <ota_send_complete+0x1a19cd8>
  ec:	6174735f 	0x6174735f
  f0:	73006574 	0x73006574
  f4:	74726f68 	jalx	1c9bda0 <ota_send_complete+0x1c9bcd4>
  f8:	736e7520 	0x736e7520
  fc:	656e6769 	0x656e6769
 100:	6e692064 	0x6e692064
 104:	61620074 	0x61620074
 108:	61765f74 	0x61765f74
 10c:	0065756c 	0x65756c
 110:	55534552 	bnel	t2,s3,1165c <ota_send_complete+0x11590>
 114:	415f544c 	0x415f544c
 118:	4d52414c 	0x4d52414c
 11c:	4f4c435f 	c3	0x14c435f
 120:	52004553 	beqzl	s0,11670 <ota_send_complete+0x115a4>
 124:	4c555345 	0x4c555345
 128:	414d5f54 	0x414d5f54
 12c:	4c41554e 	0x4c41554e
 130:	4145535f 	0x4145535f
 134:	5f484352 	0x5f484352
 138:	52005055 	beqzl	s0,14290 <ota_send_complete+0x141c4>
 13c:	4c555345 	0x4c555345
 140:	4c425f54 	0x4c425f54
 144:	45544555 	0x45544555
 148:	5f485445 	0x5f485445
 14c:	4e554f53 	c3	0x554f53
 150:	75630044 	jalx	58c0110 <ota_send_complete+0x58c0044>
 154:	75665f72 	jalx	5997dc8 <ota_send_complete+0x5997cfc>
 158:	695f636e 	0x695f636e
 15c:	6e650064 	0x6e650064
 160:	656e6967 	0x656e6967
 164:	7079745f 	udi15	v1,t9,t6,0x11
 168:	5f700065 	0x5f700065
 16c:	72656e65 	0x72656e65
 170:	765f7967 	jalx	97de59c <ota_send_complete+0x97de4d0>
 174:	65756c61 	0x65756c61
 178:	53455200 	beql	k0,a1,1497c <ota_send_complete+0x148b0>
 17c:	5f544c55 	0x5f544c55
 180:	5f574f4c 	0x5f574f4c
 184:	45574f50 	0x45574f50
 188:	45520052 	0x45520052
 18c:	544c5553 	bnel	v0,t4,156dc <ota_send_complete+0x15610>
 190:	5345545f 	beql	k0,a1,15310 <ota_send_complete+0x15244>
 194:	5f504154 	0x5f504154
 198:	54495551 	bnel	v0,t1,156e0 <ota_send_complete+0x15614>
 19c:	5f647500 	0x5f647500
 1a0:	00747461 	0x747461
 1a4:	544f5f67 	bnel	v0,t7,17f44 <ota_send_complete+0x17e78>
 1a8:	61765f41 	0x61765f41
 1ac:	45520072 	0x45520072
 1b0:	544c5553 	bnel	v0,t4,15700 <ota_send_complete+0x15634>
 1b4:	414c415f 	0x414c415f
 1b8:	525f4d52 	beql	s2,ra,13704 <ota_send_complete+0x13638>
 1bc:	5f474e49 	0x5f474e49
 1c0:	444c4f46 	0x444c4f46
 1c4:	535f5245 	beql	k0,ra,14adc <ota_send_complete+0x14a10>
 1c8:	004e4143 	0x4e4143
 1cc:	7473616c 	jalx	1cd85b0 <ota_send_complete+0x1cd84e4>
 1d0:	5f69755f 	0x5f69755f
 1d4:	74617473 	jalx	185d1cc <ota_send_complete+0x185d100>
 1d8:	75007375 	jalx	401cdd4 <ota_send_complete+0x401cd08>
 1dc:	38746e69 	xori	s4,v1,0x6e69
 1e0:	53455200 	beql	k0,a1,149e4 <ota_send_complete+0x14918>
 1e4:	5f544c55 	0x5f544c55
 1e8:	4e454353 	c3	0x454353
 1ec:	58455f45 	0x58455f45
 1f0:	63005449 	0x63005449
 1f4:	665f7275 	0x665f7275
 1f8:	5f636e75 	0x5f636e75
 1fc:	65646e69 	0x65646e69
 200:	746f0078 	jalx	1bc01e0 <ota_send_complete+0x1bc0114>
 204:	65725f61 	0x65725f61
 208:	72617473 	0x72617473
 20c:	6f745f74 	0x6f745f74
 210:	6770755f 	0x6770755f
 214:	65646172 	0x65646172
 218:	53455200 	beql	k0,a1,14a1c <ota_send_complete+0x14950>
 21c:	5f544c55 	0x5f544c55
 220:	4e49414d 	c3	0x49414d
 224:	5050415f 	beql	v0,s0,107a4 <ota_send_complete+0x106d8>
 228:	53455200 	beql	k0,a1,14a2c <ota_send_complete+0x14960>
 22c:	5f544c55 	0x5f544c55
 230:	5f535953 	0x5f535953
 234:	5f47534d 	0x5f47534d
 238:	45444552 	0x45444552
 23c:	425f4c41 	c0	0x5f4c41
 240:	4f435f59 	c3	0x1435f59
 244:	4e4f4d4d 	c3	0x4f4d4d
 248:	53455200 	beql	k0,a1,14a4c <ota_send_complete+0x14980>
 24c:	5f544c55 	0x5f544c55
 250:	59414c50 	0x59414c50
 254:	4444535f 	0x4444535f
 258:	4449465f 	0x4449465f
 25c:	52003631 	beqzl	s0,db24 <ota_send_complete+0xda58>
 260:	4c555345 	0x4c555345
 264:	4c505f54 	0x4c505f54
 268:	535f5941 	beql	k0,ra,16770 <ota_send_complete+0x166a4>
 26c:	465f4444 	c1	0x5f4444
 270:	37314449 	ori	s1,t9,0x4449
 274:	53455200 	beql	k0,a1,14a78 <ota_send_complete+0x149ac>
 278:	5f544c55 	0x5f544c55
 27c:	59414c50 	0x59414c50
 280:	4444535f 	0x4444535f
 284:	4449465f 	0x4449465f
 288:	52003831 	beqzl	s0,e350 <ota_send_complete+0xe284>
 28c:	4c555345 	0x4c555345
 290:	4c505f54 	0x4c505f54
 294:	535f5941 	beql	k0,ra,1679c <ota_send_complete+0x166d0>
 298:	465f4444 	c1	0x5f4444
 29c:	39314449 	xori	s1,t1,0x4449
 2a0:	70706100 	0x70706100
 2a4:	73616c5f 	udi15	k1,at,t5,0x11
 2a8:	74735f74 	jalx	1cd7dd0 <ota_send_complete+0x1cd7d04>
 2ac:	5f657461 	0x5f657461
 2b0:	45520074 	0x45520074
 2b4:	544c5553 	bnel	v0,t4,15804 <ota_send_complete+0x15738>
 2b8:	4345525f 	c0	0x145525f
 2bc:	5f44524f 	0x5f44524f
 2c0:	414c5055 	0x414c5055
 2c4:	45520059 	0x45520059
 2c8:	544c5553 	bnel	v0,t4,15818 <ota_send_complete+0x1574c>
 2cc:	414c505f 	0x414c505f
 2d0:	44535f59 	0x44535f59
 2d4:	49465f44 	0x49465f44
 2d8:	00303244 	0x303244
 2dc:	55534552 	bnel	t2,s3,11828 <ota_send_complete+0x1175c>
 2e0:	505f544c 	beql	v0,ra,15414 <ota_send_complete+0x15348>
 2e4:	5f59414c 	0x5f59414c
 2e8:	5f444453 	0x5f444453
 2ec:	32444946 	andi	a0,s2,0x4946
 2f0:	45520031 	0x45520031
 2f4:	544c5553 	bnel	v0,t4,15844 <ota_send_complete+0x15778>
 2f8:	414c505f 	0x414c505f
 2fc:	44535f59 	0x44535f59
 300:	49465f44 	0x49465f44
 304:	00333244 	0x333244
 308:	55534552 	bnel	t2,s3,11854 <ota_send_complete+0x11788>
 30c:	505f544c 	beql	v0,ra,15440 <ota_send_complete+0x15374>
 310:	5f59414c 	0x5f59414c
 314:	5f444453 	0x5f444453
 318:	32444946 	andi	a0,s2,0x4946
 31c:	45520034 	0x45520034
 320:	544c5553 	bnel	v0,t4,15870 <ota_send_complete+0x157a4>
 324:	414c505f 	0x414c505f
 328:	44535f59 	0x44535f59
 32c:	49465f44 	0x49465f44
 330:	00353244 	0x353244
 334:	65735f67 	0x65735f67
 338:	655f646e 	0x655f646e
 33c:	5f746978 	0x5f746978
 340:	5f6d6d6d 	0x5f6d6d6d
 344:	00737474 	teq	v1,s3,0x1d1
 348:	55534552 	bnel	t2,s3,11894 <ota_send_complete+0x117c8>
 34c:	4e5f544c 	c3	0x5f544c
 350:	004c4c55 	0x4c4c55
 354:	676e6f6c 	0x676e6f6c
 358:	736e7520 	0x736e7520
 35c:	656e6769 	0x656e6769
 360:	6e692064 	0x6e692064
 364:	69720074 	0x69720074
 368:	615f676e 	0x615f676e
 36c:	6d72616c 	0x6d72616c
 370:	61746f00 	0x61746f00
 374:	696b625f 	0x696b625f
 378:	5f6f666e 	0x5f6f666e
 37c:	45520074 	0x45520074
 380:	544c5553 	bnel	v0,t4,158d0 <ota_send_complete+0x15804>
 384:	4449485f 	0x4449485f
 388:	4e45535f 	c3	0x45535f
 38c:	454b5f44 	0x454b5f44
 390:	56455f59 	bnel	s2,a1,180f8 <ota_send_complete+0x1802c>
 394:	00544e45 	0x544e45
 398:	6f626572 	0x6f626572
 39c:	665f746f 	0x665f746f
 3a0:	5200676c 	beqzl	s0,1a154 <ota_send_complete+0x1a088>
 3a4:	4c555345 	0x4c555345
 3a8:	53555f54 	beql	k0,s5,180fc <ota_send_complete+0x18030>
 3ac:	4f535f42 	c3	0x1535f42
 3b0:	00444e55 	0x444e55
 3b4:	6e6e6f63 	0x6e6e6f63
 3b8:	5f746365 	0x5f746365
 3bc:	74617473 	jalx	185d1cc <ota_send_complete+0x185d100>
 3c0:	69750065 	0x69750065
 3c4:	6174735f 	0x6174735f
 3c8:	00737574 	teq	v1,s3,0x1d5
 3cc:	6779632f 	0x6779632f
 3d0:	76697264 	jalx	9a5c990 <ota_send_complete+0x9a5c8c4>
 3d4:	2f642f65 	sltiu	a0,k1,12133
 3d8:	69746361 	0x69746361
 3dc:	2f736e6f 	sltiu	s3,k1,28271
 3e0:	73647473 	0x73647473
 3e4:	752f6b64 	jalx	4bdad90 <ota_send_complete+0x4bdacc4>
 3e8:	38325f70 	xori	s2,at,0x5f70
 3ec:	5f623332 	0x5f623332
 3f0:	65646f63 	0x65646f63
 3f4:	3273752f 	andi	s3,s3,0x752f
 3f8:	5f613238 	0x5f613238
 3fc:	6d373176 	0x6d373176
 400:	61632f70 	0x61632f70
 404:	612f6573 	0x612f6573
 408:	6f632f70 	0x6f632f70
 40c:	6e6f6d6d 	0x6e6f6d6d
 410:	6d6f632f 	0x6d6f632f
 414:	5f6e6f6d 	0x5f6e6f6d
 418:	0061746f 	0x61746f
 41c:	55534552 	bnel	t2,s3,11968 <ota_send_complete+0x1189c>
 420:	425f544c 	c0	0x5f544c
 424:	5f4b4341 	0x5f4b4341
 428:	4e454353 	c3	0x454353
 42c:	49445f45 	0x49445f45
 430:	54415053 	bnel	v0,at,14580 <ota_send_complete+0x144b4>
 434:	70004843 	0x70004843
 438:	7265776f 	0x7265776f
 43c:	5f6e6f5f 	0x5f6e6f5f
 440:	67616c66 	0x67616c66
 444:	736e7500 	0x736e7500
 448:	656e6769 	0x656e6769
 44c:	68632064 	0x68632064
 450:	52007261 	beqzl	s0,1cdd8 <ota_send_complete+0x1cd0c>
 454:	4c555345 	0x4c555345
 458:	50415f54 	beql	v0,at,181ac <ota_send_complete+0x180e0>
 45c:	55515f50 	bnel	t2,s1,181a0 <ota_send_complete+0x180d4>
 460:	66005449 	0x66005449
 464:	74616f6c 	jalx	185bdb0 <ota_send_complete+0x185bce4>
 468:	53455200 	beql	k0,a1,14c6c <ota_send_complete+0x14ba0>
 46c:	5f544c55 	0x5f544c55
 470:	45554c42 	0x45554c42
 474:	54454554 	bnel	v0,a1,119c8 <ota_send_complete+0x118fc>
 478:	41435f48 	0x41435f48
 47c:	6c004c4c 	0x6c004c4c
 480:	20676e6f 	addi	a3,v1,28271
 484:	676e6f6c 	0x676e6f6c
 488:	746e6920 	jalx	1b9a480 <ota_send_complete+0x1b9a3b4>
 48c:	6e5f6700 	0x6e5f6700
 490:	75735f6f 	jalx	5cd7dbc <ota_send_complete+0x5cd7cf0>
 494:	726f7070 	0x726f7070
 498:	74745f74 	jalx	1d17dd0 <ota_send_complete+0x1d17d04>
 49c:	6c665f73 	0x6c665f73
 4a0:	52006761 	beqzl	s0,1a228 <ota_send_complete+0x1a15c>
 4a4:	4c555345 	0x4c555345
 4a8:	49445f54 	0x49445f54
 4ac:	474f4c41 	c1	0x14f4c41
 4b0:	5445525f 	bnel	v0,a1,14e30 <ota_send_complete+0x14d64>
 4b4:	73005952 	udi2	t8,zero,t3,0x5
 4b8:	5f627574 	0x5f627574
 4bc:	6c6f6f74 	0x6c6f6f74
 4c0:	79745f73 	0x79745f73
 4c4:	52006570 	beqzl	s0,19a88 <ota_send_complete+0x199bc>
 4c8:	4c555345 	0x4c555345
 4cc:	554d5f54 	bnel	t2,t5,18220 <ota_send_complete+0x18154>
 4d0:	5f434953 	0x5f434953
 4d4:	414c5055 	0x414c5055
 4d8:	616c0059 	0x616c0059
 4dc:	645f7473 	0x645f7473
 4e0:	006b7369 	0x6b7369
 4e4:	73726556 	udi6	k1,s2,t4,0x15
 4e8:	006e6f69 	0x6e6f69
 4ec:	5f61746f 	0x5f61746f
 4f0:	646e6573 	0x646e6573
 4f4:	6d6f635f 	0x6d6f635f
 4f8:	74656c70 	jalx	195b1c0 <ota_send_complete+0x195b0f4>
 4fc:	4e470065 	c3	0x470065
 500:	20432055 	addi	v1,v0,8277
 504:	2e342e33 	sltiu	s4,s1,11827
 508:	696d2034 	0x696d2034
 50c:	64737370 	0x64737370
 510:	2e362d65 	sltiu	s6,s1,11621
 514:	302e3630 	andi	t6,at,0x3630
 518:	30322d31 	andi	s2,at,0x2d31
 51c:	34303730 	ori	s0,at,0x3730
 520:	73003032 	0x73003032
 524:	5f627574 	0x5f627574
 528:	5f796870 	0x5f796870
 52c:	65707974 	0x65707974
 530:	61686300 	0x61686300
 534:	5f656772 	0x5f656772
 538:	74617473 	jalx	185d1cc <ota_send_complete+0x185d100>
 53c:	45520065 	0x45520065
 540:	544c5553 	bnel	v0,t4,15a90 <ota_send_complete+0x159c4>
 544:	4345525f 	c0	0x145525f
 548:	5f44524f 	0x5f44524f
 54c:	454e494c 	0x454e494c
 550:	545f4e49 	bnel	v0,ra,13e78 <ota_send_complete+0x13dac>
 554:	5200434f 	beqzl	s0,11294 <ota_send_complete+0x111c8>
 558:	4c555345 	0x4c555345
 55c:	43525f54 	c0	0x1525f54
 560:	434c5f50 	c0	0x14c5f50
 564:	4941575f 	0x4941575f
 568:	45520054 	0x45520054
 56c:	544c5553 	bnel	v0,t4,15abc <ota_send_complete+0x159f0>
 570:	4345525f 	c0	0x145525f
 574:	5f44524f 	0x5f44524f
 578:	454e494c 	0x454e494c
 57c:	545f4e49 	bnel	v0,ra,13ea4 <ota_send_complete+0x13dd8>
 580:	5200554f 	beqzl	s0,15ac0 <ota_send_complete+0x159f4>
 584:	4c555345 	0x4c555345
 588:	49445f54 	0x49445f54
 58c:	474f4c41 	c1	0x14f4c41
 590:	4253555f 	c0	0x53555f
 594:	554f535f 	bnel	t2,t7,15314 <ota_send_complete+0x15248>
 598:	4f00444e 	c3	0x100444e
 59c:	725f6174 	0x725f6174
 5a0:	725f7063 	0x725f7063
 5a4:	6f6f6265 	0x6f6f6265
 5a8:	6d635f74 	0x6d635f74
 5ac:	00632e64 	0x632e64
 5b0:	64726163 	0x64726163
 5b4:	6174735f 	0x6174735f
 5b8:	46006574 	c1	0x6574
 5bc:	65565f77 	0x65565f77
 5c0:	00745f72 	tlt	v1,s4,0x17d
 5c4:	72635f67 	0x72635f67
 5c8:	61705f75 	0x61705f75
 5cc:	635f6b63 	0x635f6b63
 5d0:	746e756f 	jalx	1b9d5bc <ota_send_complete+0x1b9d4f0>
 5d4:	72617000 	0x72617000
 5d8:	64695f74 	0x64695f74
 5dc:	53455200 	beql	k0,a1,14de0 <ota_send_complete+0x14d14>
 5e0:	5f544c55 	0x5f544c55
 5e4:	4c414944 	0x4c414944
 5e8:	4f5f474f 	c3	0x15f474f
 5ec:	5f594c4e 	0x5f594c4e
 5f0:	52414843 	beql	s2,at,12700 <ota_send_complete+0x12634>
 5f4:	68004547 	0x68004547
 5f8:	74735f70 	jalx	1cd7dc0 <ota_send_complete+0x1cd7cf4>
 5fc:	00657461 	0x657461
 600:	6d776f64 	0x6d776f64
 604:	64616f6c 	0x64616f6c
 608:	6174735f 	0x6174735f
 60c:	00657574 	teq	v1,a1,0x1d5
 610:	61647075 	0x61647075
 614:	735f6174 	0x735f6174
 618:	75746174 	jalx	5d185d0 <ota_send_complete+0x5d18504>
 61c:	45520065 	0x45520065
 620:	544c5553 	bnel	v0,t4,15b70 <ota_send_complete+0x15aa4>
 624:	4f54535f 	c3	0x154535f
 628:	45535f50 	0x45535f50
 62c:	48435241 	0x48435241
 630:	745f6700 	jalx	17d9c00 <ota_send_complete+0x17d9b34>
 634:	5f736968 	0x5f736968
 638:	5f707061 	0x5f707061
 63c:	656d6974 	0x656d6974
 640:	61745f72 	0x61745f72
 644:	70610067 	0x70610067
 648:	6e695f70 	0x6e695f70
 64c:	735f6f66 	0x735f6f66
 650:	65746174 	0x65746174
 654:	6c6c615f 	0x6c6c615f
 658:	6300745f 	0x6300745f
 65c:	6c706d6f 	0x6c706d6f
 660:	5f657465 	0x5f657465
 664:	646e6573 	0x646e6573
 668:	6d756e5f 	0x6d756e5f
 66c:	544e4900 	bnel	v0,t6,12a70 <ota_send_complete+0x129a4>
 670:	52005538 	beqzl	s0,15b54 <ota_send_complete+0x15a88>
 674:	4c555345 	0x4c555345
 678:	4e455f54 	c3	0x455f54
 67c:	5f524554 	0x5f524554
 680:	52475055 	beql	s2,a3,147d8 <ota_send_complete+0x1470c>
 684:	00454441 	0x454441
 688:	55534552 	bnel	t2,s3,11bd4 <ota_send_complete+0x11b08>
 68c:	4e5f544c 	c3	0x5f544c
 690:	5f454e4f 	0x5f454e4f
 694:	4e455645 	c3	0x455645
 698:	5f670054 	0x5f670054
 69c:	6e6e6f63 	0x6e6e6f63
 6a0:	5f746365 	0x5f746365
 6a4:	79706572 	0x79706572
 6a8:	53455200 	beql	k0,a1,14eac <ota_send_complete+0x14de0>
 6ac:	5f544c55 	0x5f544c55
 6b0:	59414c50 	0x59414c50
 6b4:	4444535f 	0x4444535f
 6b8:	4449465f 	0x4449465f
 6bc:	52003232 	beqzl	s0,cf88 <ota_send_complete+0xcebc>
 6c0:	4c555345 	0x4c555345
 6c4:	554d5f54 	bnel	t2,t5,18418 <ota_send_complete+0x1834c>
 6c8:	5f434953 	0x5f434953
 6cc:	59414c50 	0x59414c50
 6d0:	73657200 	0x73657200
 6d4:	65767265 	0x65767265
 6d8:	5f670064 	0x5f670064
 6dc:	5f727563 	0x5f727563
 6e0:	5f636572 	0x5f636572
 6e4:	74617473 	jalx	185d1cc <ota_send_complete+0x185d100>
 6e8:	78650065 	0x78650065
 6ec:	6e726574 	0x6e726574
 6f0:	7461625f 	jalx	185897c <ota_send_complete+0x18588b0>
 6f4:	006e695f 	0x6e695f
 6f8:	70615f67 	0x70615f67
 6fc:	6e695f70 	0x6e695f70
 700:	735f6f66 	0x735f6f66
 704:	65746174 	0x65746174
 708:	6c6c615f 	0x6c6c615f
 70c:	53455200 	beql	k0,a1,14f10 <ota_send_complete+0x14e44>
 710:	5f544c55 	0x5f544c55
 714:	454c4449 	0x454c4449
 718:	444f4d5f 	0x444f4d5f
 71c:	6f730045 	0x6f730045
 720:	5f646e75 	0x5f646e75
 724:	74617473 	jalx	185d1cc <ota_send_complete+0x185d100>
 728:	45520065 	0x45520065
 72c:	544c5553 	bnel	v0,t4,15c7c <ota_send_complete+0x15bb0>
 730:	4e4f435f 	c3	0x4f435f
 734:	5f474946 	0x5f474946
 738:	52414843 	beql	s2,at,12848 <ota_send_complete+0x1277c>
 73c:	515f4547 	beql	t2,ra,11c5c <ota_send_complete+0x11b90>
 740:	00544955 	0x544955
 744:	6967616d 	0x6967616d
 748:	45520063 	0x45520063
 74c:	544c5553 	bnel	v0,t4,15c9c <ota_send_complete+0x15bd0>
 750:	554c425f 	bnel	t2,t4,110d0 <ota_send_complete+0x11004>
 754:	45455445 	0x45455445
 758:	435f4854 	c0	0x15f4854
 75c:	5f4c4c41 	0x5f4c4c41
 760:	4b434142 	c2	0x1434142
 764:	554f5247 	bnel	t2,t7,15084 <ota_send_complete+0x14fb8>
 768:	6100444e 	0x6100444e
 76c:	725f7070 	0x725f7070
 770:	6c757365 	0x6c757365
 774:	00655f74 	teq	v1,a1,0x17d
 778:	705f7462 	0x705f7462
 77c:	7265776f 	0x7265776f
 780:	006e6f5f 	0x6e6f5f
 784:	5f757263 	0x5f757263
 788:	6b636170 	0x6b636170
 78c:	756f635f 	jalx	5bd8d7c <ota_send_complete+0x5bd8cb0>
 790:	6c00746e 	0x6c00746e
 794:	69656e69 	0x69656e69
 798:	74735f6e 	jalx	1cd7db8 <ota_send_complete+0x1cd7cec>
 79c:	00657461 	0x657461
 7a0:	6e676973 	0x6e676973
 7a4:	63206465 	0x63206465
 7a8:	00726168 	0x726168
 7ac:	55534552 	bnel	t2,s3,11cf8 <ota_send_complete+0x11c2c>
 7b0:	525f544c 	beql	s2,ra,158e4 <ota_send_complete+0x15818>
 7b4:	524f4345 	beql	s2,t7,114cc <ota_send_complete+0x11400>
 7b8:	50435f44 	beql	v0,v1,184cc <ota_send_complete+0x18400>
 7bc:	0059414c 	syscall	0x16505
 7c0:	70615f67 	0x70615f67
 7c4:	6e695f70 	0x6e695f70
 7c8:	735f6f66 	0x735f6f66
 7cc:	65746174 	0x65746174
 7d0:	53455200 	beql	k0,a1,14fd4 <ota_send_complete+0x14f08>
 7d4:	5f544c55 	0x5f544c55
 7d8:	54535953 	bnel	v0,s3,16d28 <ota_send_complete+0x16c5c>
 7dc:	455f4d45 	0x455f4d45
 7e0:	5f544958 	0x5f544958
 7e4:	72003353 	udi3	s0,zero,a2,0xd
 7e8:	6f646e61 	0x6f646e61
 7ec:	70755f6d 	0x70755f6d
 7f0:	656b5f67 	0x656b5f67
 7f4:	6e650079 	0x6e650079
 7f8:	656e6967 	0x656e6967
 7fc:	6174735f 	0x6174735f
 800:	52006574 	beqzl	s0,19dd4 <ota_send_complete+0x19d08>
 804:	4c555345 	0x4c555345
 808:	4e455f54 	c3	0x455f54
 80c:	5f524554 	0x5f524554
 810:	52414c41 	beql	s2,at,13918 <ota_send_complete+0x1384c>
 814:	4552004d 	0x4552004d
 818:	544c5553 	bnel	v0,t4,15d68 <ota_send_complete+0x15c9c>
 81c:	4149445f 	0x4149445f
 820:	5f474f4c 	0x5f474f4c
 824:	4f4e4749 	c3	0x14e4749
 828:	66004552 	0x66004552
 82c:	735f7869 	0x735f7869
 830:	6c706d61 	0x6c706d61
 834:	61725f65 	0x61725f65
 838:	665f6574 	0x665f6574
 83c:	0067616c 	0x67616c
 840:	55534552 	bnel	t2,s3,11d8c <ota_send_complete+0x11cc0>
 844:	455f544c 	0x455f544c
 848:	524f5252 	beql	s2,t7,15194 <ota_send_complete+0x150c8>
 84c:	53455200 	beql	k0,a1,15050 <ota_send_complete+0x14f84>
 850:	5f544c55 	0x5f544c55
 854:	45574f50 	0x45574f50
 858:	464f5f52 	c1	0x4f5f52
 85c:	45520046 	0x45520046
 860:	544c5553 	bnel	v0,t4,15db0 <ota_send_complete+0x15ce4>
 864:	4149445f 	0x4149445f
 868:	5f474f4c 	0x5f474f4c
 86c:	00534559 	0x534559
 870:	55534552 	bnel	t2,s3,11dbc <ota_send_complete+0x11cf0>
 874:	445f544c 	0x445f544c
 878:	4f4c4149 	c3	0x14c4149
 87c:	42415f47 	c0	0x415f47
 880:	0054524f 	0x54524f
 884:	65735f67 	0x65735f67
 888:	655f646e 	0x655f646e
 88c:	5f6f7272 	0x5f6f7272
 890:	6e756f63 	0x6e756f63
 894:	6f6c0074 	0x6f6c0074
 898:	6920676e 	0x6920676e
 89c:	5200746e 	beqzl	s0,1da58 <ota_send_complete+0x1d98c>
 8a0:	4c555345 	0x4c555345
 8a4:	454e5f54 	0x454e5f54
 8a8:	465f5458 	c1	0x5f5458
 8ac:	54434e55 	bnel	v0,v1,14204 <ota_send_complete+0x14138>
 8b0:	004e4f49 	0x4e4f49
 8b4:	55534552 	bnel	t2,s3,11e00 <ota_send_complete+0x11d34>
 8b8:	4d5f544c 	0x4d5f544c
 8bc:	43495355 	c0	0x1495355
 8c0:	4c50435f 	0x4c50435f
 8c4:	65005941 	0x65005941
 8c8:	6975716e 	0x6975716e
 8cc:	6d5f7972 	0x6d5f7972
 8d0:	61737365 	0x61737365
 8d4:	745f6567 	jalx	17d959c <ota_send_complete+0x17d94d0>
 8d8:	53455200 	beql	k0,a1,150dc <ota_send_complete+0x15010>
 8dc:	5f544c55 	0x5f544c55
 8e0:	4f434552 	c3	0x1434552
 8e4:	465f4452 	c1	0x5f4452
 8e8:	4f545f4d 	c3	0x1545f4d
 8ec:	5f670043 	0x5f670043
 8f0:	6c706572 	0x6c706572
 8f4:	6b625f79 	0x6b625f79
 8f8:	6f666e69 	0x6f666e69
 8fc:	53455200 	beql	k0,a1,15100 <ota_send_complete+0x15034>
 900:	5f544c55 	0x5f544c55
 904:	4f434552 	c3	0x1434552
 908:	465f4452 	c1	0x5f4452
 90c:	4f545f4d 	c3	0x1545f4d
 910:	61700055 	0x61700055
 914:	646f6d5f 	0x646f6d5f
 918:	74730065 	jalx	1cc0194 <ota_send_complete+0x1cc00c8>
 91c:	705f6275 	0x705f6275
 920:	6f745f63 	0x6f745f63
 924:	5f736c6f 	0x5f736c6f
 928:	65707974 	0x65707974
 92c:	53455200 	beql	k0,a1,15130 <ota_send_complete+0x15064>
 930:	5f544c55 	0x5f544c55
 934:	4d4d4f43 	0x4d4d4f43
 938:	525f4e4f 	beql	s2,ra,14278 <ota_send_complete+0x141ac>
 93c:	52455345 	beql	s2,a1,15654 <ota_send_complete+0x15588>
 940:	72004556 	udi6	s0,zero,t0,0x15
 944:	72657365 	0x72657365
 948:	75006476 	jalx	40191d8 <ota_send_complete+0x401910c>
 94c:	31746e69 	andi	s4,t3,0x6e69
 950:	616c0036 	0x616c0036
 954:	665f7473 	0x665f7473
 958:	5f636e75 	0x5f636e75
 95c:	65646e69 	0x65646e69
 960:	45520078 	0x45520078
 964:	544c5553 	bnel	v0,t4,15eb4 <ota_send_complete+0x15de8>
 968:	544e455f 	bnel	v0,t6,11ee8 <ota_send_complete+0x11e1c>
 96c:	4f5f5245 	c3	0x15f5245
 970:	535f4154 	beql	k0,ra,10ec4 <ota_send_complete+0x10df8>
 974:	5f474e4f 	0x5f474e4f
 978:	54534554 	bnel	v0,s3,11ecc <ota_send_complete+0x11e00>
 97c:	61686300 	0x61686300
 980:	6f630072 	0x6f630072
 984:	63656e6e 	0x63656e6e
 988:	65725f74 	0x65725f74
 98c:	5f796c70 	0x5f796c70
 990:	61630074 	0x61630074
 994:	5f656c62 	0x5f656c62
 998:	74617473 	jalx	185d1cc <ota_send_complete+0x185d100>
 99c:	69750065 	0x69750065
 9a0:	3233746e 	andi	s3,s1,0x746e
 9a4:	655f7000 	0x655f7000
 9a8:	6772656e 	0x6772656e
 9ac:	61765f79 	0x61765f79
 9b0:	5f65756c 	0x5f65756c
 9b4:	71657266 	0x71657266
 9b8:	45520073 	0x45520073
 9bc:	544c5553 	bnel	v0,t4,15f0c <ota_send_complete+0x15e40>
 9c0:	544e455f 	bnel	v0,t6,11f40 <ota_send_complete+0x11e74>
 9c4:	535f5245 	beql	k0,ra,152dc <ota_send_complete+0x15210>
 9c8:	5f425554 	0x5f425554
 9cc:	55424544 	bnel	t2,v0,11ee0 <ota_send_complete+0x11e14>
 9d0:	61700047 	0x61700047
 9d4:	635f6b63 	0x635f6b63
 9d8:	746e756f 	jalx	1b9d5bc <ota_send_complete+0x1b9d4f0>
 9dc:	6b706100 	0x6b706100
 9e0:	6174735f 	0x6174735f
 9e4:	00737574 	teq	v1,s3,0x1d5
 9e8:	55534552 	bnel	t2,s3,11f34 <ota_send_complete+0x11e68>
 9ec:	495f544c 	0x495f544c
 9f0:	524f4e47 	beql	s2,t7,14310 <ota_send_complete+0x14244>
 9f4:	756f0045 	jalx	5bc0114 <ota_send_complete+0x5bc0048>
 9f8:	5f726574 	0x5f726574
 9fc:	6f5f6170 	0x6f5f6170
 a00:	4552006e 	0x4552006e
 a04:	544c5553 	bnel	v0,t4,15f54 <ota_send_complete+0x15e88>
 a08:	544e455f 	bnel	v0,t6,11f88 <ota_send_complete+0x11ebc>
 a0c:	555f5245 	bnel	t2,ra,15324 <ota_send_complete+0x15258>
 a10:	31524553 	andi	s2,t2,0x4553
 a14:	756f6100 	jalx	5bd8400 <ota_send_complete+0x5bd8334>
 a18:	6f6d5f74 	0x6f6d5f74
 a1c:	67006564 	0x67006564
 a20:	5f70685f 	0x5f70685f
 a24:	5f64656c 	0x5f64656c
 a28:	74617473 	jalx	185d1cc <ota_send_complete+0x185d100>
 a2c:	74730065 	jalx	1cc0194 <ota_send_complete+0x1cc00c8>
 a30:	6d5f6275 	0x6d5f6275
 a34:	5f65646f 	0x5f65646f
 a38:	67616c66 	0x67616c66
 a3c:	53455200 	beql	k0,a1,15240 <ota_send_complete+0x15174>
 a40:	5f544c55 	0x5f544c55
 a44:	5453414c 	bnel	v0,s3,10f78 <ota_send_complete+0x10eac>
 a48:	59414c50 	0x59414c50
 a4c:	74616200 	jalx	1858800 <ota_send_complete+0x1858734>
 a50:	79726574 	0x79726574
 a54:	7065725f 	udi15	v1,a1,t6,0x9
 a58:	5f74726f 	0x5f74726f
 a5c:	62616e65 	0x62616e65
 a60:	6400656c 	0x6400656c
 a64:	6c62756f 	0x6c62756f
 a68:	45520065 	0x45520065
 a6c:	544c5553 	bnel	v0,t4,15fbc <ota_send_complete+0x15ef0>
 a70:	4e4f435f 	c3	0x4f435f
 a74:	5f474946 	0x5f474946
 a78:	52414843 	beql	s2,at,12b88 <ota_send_complete+0x12abc>
 a7c:	64004547 	0x64004547
 a80:	31617461 	andi	at,t3,0x7461
 a84:	74616400 	jalx	1859000 <ota_send_complete+0x1858f34>
 a88:	64003261 	0x64003261
 a8c:	00617461 	0x617461
 a90:	61625f67 	0x61625f67
 a94:	70756b63 	0x70756b63
 a98:	7261705f 	udi15	s3,at,t6,0x1
 a9c:	64615f74 	0x64615f74
 aa0:	52007264 	beqzl	s0,1d434 <ota_send_complete+0x1d368>
 aa4:	4c555345 	0x4c555345
 aa8:	49445f54 	0x49445f54
 aac:	474f4c41 	c1	0x14f4c41
 ab0:	004f4e5f 	0x4f4e5f
 ab4:	55534552 	bnel	t2,s3,12000 <ota_send_complete+0x11f34>
 ab8:	465f544c 	c1	0x5f544c
 abc:	4543524f 	0x4543524f
 ac0:	5354545f 	beql	k0,s4,15c40 <ota_send_complete+0x15b74>
 ac4:	4f54535f 	c3	0x154535f
 ac8:	61640050 	0x61640050
 acc:	6c5f6174 	0x6c5f6174
 ad0:	52006e65 	beqzl	s0,1c468 <ota_send_complete+0x1c39c>
 ad4:	4c555345 	0x4c555345
 ad8:	49445f54 	0x49445f54
 adc:	474f4c41 	c1	0x14f4c41
 ae0:	004b4f5f 	0x4b4f5f
 ae4:	5f737774 	0x5f737774
 ae8:	6e6e6f63 	0x6e6e6f63
 aec:	5f746365 	0x5f746365
 af0:	00617473 	tltu	v1,at,0x1d1
 af4:	6e655f70 	0x6e655f70
 af8:	79677265 	0x79677265
 afc:	6c61765f 	0x6c61765f
 b00:	625f6575 	0x625f6575
 b04:	73646e61 	0x73646e61
 b08:	6e6f6c00 	0x6e6f6c00
 b0c:	6f6c2067 	0x6f6c2067
 b10:	7520676e 	jalx	4819db8 <ota_send_complete+0x4819cec>
 b14:	6769736e 	0x6769736e
 b18:	2064656e 	addi	a0,v1,25966
 b1c:	00746e69 	0x746e69
 b20:	656e6e69 	0x656e6e69
 b24:	61705f72 	0x61705f72
 b28:	696e695f 	0x696e695f
 b2c:	00646574 	teq	v1,a0,0x195
 b30:	55534552 	bnel	t2,s3,1207c <ota_send_complete+0x11fb0>
 b34:	455f544c 	0x455f544c
 b38:	525f4453 	beql	s2,ra,11c88 <ota_send_complete+0x11bbc>
 b3c:	41545345 	0x41545345
 b40:	52005452 	beqzl	s0,15c8c <ota_send_complete+0x15bc0>
 b44:	4c555345 	0x4c555345
 b48:	4e455f54 	c3	0x455f54
 b4c:	5f524554 	0x5f524554
 b50:	5f41544f 	0x5f41544f
 b54:	52475055 	beql	s2,a3,14cac <ota_send_complete+0x14be0>
 b58:	00454441 	0x454441
 b5c:	5f636572 	0x5f636572
 b60:	61746164 	0x61746164
 b64:	6174735f 	0x6174735f
 b68:	72006574 	0x72006574
 b6c:	6f747365 	0x6f747365
 b70:	625f6572 	0x625f6572
 b74:	6b616572 	0x6b616572
 b78:	6e696f70 	0x6e696f70
 b7c:	00745f74 	teq	v1,s4,0x17d
 b80:	55534552 	bnel	t2,s3,120cc <ota_send_complete+0x12000>
 b84:	455f544c 	0x455f544c
 b88:	5245544e 	beql	s2,a1,15cc4 <ota_send_complete+0x15bf8>
 b8c:	5153415f 	beql	t2,s3,1110c <ota_send_complete+0x11040>
 b90:	46485f54 	c1	0x485f54
 b94:	5345545f 	beql	k0,a1,15d14 <ota_send_complete+0x15c48>
 b98:	45520054 	0x45520054
 b9c:	544c5553 	bnel	v0,t4,160ec <ota_send_complete+0x16020>
 ba0:	544e455f 	bnel	v0,t6,12120 <ota_send_complete+0x12054>
 ba4:	4c5f5245 	0x4c5f5245
 ba8:	49454e49 	0x49454e49
 bac:	4552004e 	0x4552004e
 bb0:	544c5553 	bnel	v0,t4,16100 <ota_send_complete+0x16034>
 bb4:	4149445f 	0x4149445f
 bb8:	5f474f4c 	0x5f474f4c
 bbc:	434e4143 	c0	0x14e4143
 bc0:	52004c45 	beqzl	s0,13cd8 <ota_send_complete+0x13c0c>
 bc4:	4c555345 	0x4c555345
 bc8:	49445f54 	0x49445f54
 bcc:	474f4c41 	c1	0x14f4c41
 bd0:	4e41435f 	c3	0x41435f
 bd4:	5f4c4543 	0x5f4c4543
 bd8:	4f545541 	c3	0x1545541
 bdc:	70706100 	0x70706100
 be0:	666e695f 	0x666e695f
 be4:	74735f6f 	jalx	1cd7dbc <ota_send_complete+0x1cd7cf0>
 be8:	5f657461 	0x5f657461
 bec:	45520074 	0x45520074
 bf0:	544c5553 	bnel	v0,t4,16140 <ota_send_complete+0x16074>
 bf4:	414c415f 	0x414c415f
 bf8:	535f4d52 	beql	k0,ra,14144 <ota_send_complete+0x14078>
 bfc:	5a4f4f4e 	0x5a4f4f4e
 c00:	61700045 	0x61700045
 c04:	5f686374 	0x5f686374
 c08:	6e776f64 	0x6e776f64
 c0c:	64616f6c 	0x64616f6c
 c10:	616c665f 	0x616c665f
 c14:	656e0067 	0x656e0067
 c18:	755f6465 	jalx	57d9194 <ota_send_complete+0x57d90c8>
 c1c:	74616470 	jalx	18591c0 <ota_send_complete+0x18590f4>
 c20:	6c705f65 	0x6c705f65
 c24:	696c7961 	0x696c7961
 c28:	52007473 	beqzl	s0,1ddf8 <ota_send_complete+0x1dd2c>
 c2c:	4c555345 	0x4c555345
 c30:	414d5f54 	0x414d5f54
 c34:	4c41554e 	0x4c41554e
 c38:	4145535f 	0x4145535f
 c3c:	5f484352 	0x5f484352
 c40:	4e574f44 	c3	0x574f44
 c44:	53455200 	beql	k0,a1,15448 <ota_send_complete+0x1537c>
 c48:	5f544c55 	0x5f544c55
 c4c:	54535953 	bnel	v0,s3,1719c <ota_send_complete+0x170d0>
 c50:	455f4d45 	0x455f4d45
 c54:	5245544e 	beql	s2,a1,15d90 <ota_send_complete+0x15cc4>
 c58:	0033535f 	0x33535f
 c5c:	5f707061 	0x5f707061
 c60:	74617473 	jalx	185d1cc <ota_send_complete+0x185d100>
 c64:	6e650065 	0x6e650065
 c68:	79677265 	0x79677265
 c6c:	6176615f 	0x6176615f
 c70:	62616c69 	0x62616c69
 c74:	665f656c 	0x665f656c
 c78:	0067616c 	0x67616c
 c7c:	736f6875 	0x736f6875
 c80:	74735f74 	jalx	1cd7dd0 <ota_send_complete+0x1cd7d04>
 c84:	00657461 	0x657461
 c88:	7473616c 	jalx	1cd85b0 <ota_send_complete+0x1cd84e4>
 c8c:	7379735f 	udi15	k1,t9,t6,0xd
 c90:	6174735f 	0x6174735f
 c94:	00737574 	teq	v1,s3,0x1d5
 c98:	6f747561 	0x6f747561
 c9c:	74736574 	jalx	1cd95d0 <ota_send_complete+0x1cd9504>
 ca0:	646f6d5f 	0x646f6d5f
 ca4:	45520065 	0x45520065
 ca8:	544c5553 	bnel	v0,t4,161f8 <ota_send_complete+0x1612c>
 cac:	5455415f 	bnel	v0,s5,1122c <ota_send_complete+0x11160>
 cb0:	45535f4f 	0x45535f4f
 cb4:	48435241 	0x48435241
 cb8:	6f687300 	0x6f687300
 cbc:	69207472 	0x69207472
 cc0:	7200746e 	0x7200746e
 cc4:	72657365 	0x72657365
 cc8:	00326476 	tne	at,s2,0x191
 ccc:	70615f67 	0x70615f67
 cd0:	616c5f70 	0x616c5f70
 cd4:	735f7473 	0x735f7473
 cd8:	65746174 	0x65746174
	...
Disassembly of section .comment:

00000000 <.comment>:
   0:	43434700 	c0	0x1434700
   4:	4728203a 	c1	0x128203a
   8:	2029554e 	addi	t1,at,21838
   c:	2e342e33 	sltiu	s4,s1,11827
  10:	696d2034 	0x696d2034
  14:	64737370 	0x64737370
  18:	2e362d65 	sltiu	s6,s1,11621
  1c:	302e3630 	andi	t6,at,0x3630
  20:	30322d31 	andi	s2,at,0x2d31
  24:	34303730 	ori	s0,at,0x3730
  28:	Address 0x28 is out of bounds.


Ota_rcp_s_cmd_deal.o:     file format elf32-tradlittlemips

Disassembly of section .text:

00000000 <CheckSum16>:
   0:	6b00      	li	v1,0
   2:	2507      	beqz	a1,12 <CheckSum16+0x12>
   4:	acc0      	lhu	a2,0(a0)
   6:	45af      	addiu	a1,a1,-1
   8:	e3c9      	addu	v0,v1,a2
   a:	6762      	move	v1,v0
   c:	eb31      	zeh	v1
   e:	4482      	addiu	a0,a0,2
  10:	2df9      	bnez	a1,4 <CheckSum16+0x4>
  12:	e820      	jr	ra
  14:	6743      	move	v0,v1
	...

00000018 <ota_receive_connect_data>:
  18:	64f6      	save	48,ra,s0-s1
  1a:	ae40      	lhu	v0,0(a2)
  1c:	f440 b104 	lw	s1,460 <.L24+0x26e>
  20:	6706      	move	s0,a2
  22:	f200 6c00 	li	a0,512
  26:	6d20      	li	a1,32
  28:	6e00      	li	a2,0
  2a:	6f16      	li	a3,22
  2c:	e940      	jalr	s1
  2e:	d204      	sw	v0,16(sp)
  30:	4084      	addiu	a0,s0,4
  32:	d407      	sw	a0,28(sp)
  34:	f420 b514 	lw	a1,468 <.L24+0x276>
  38:	f420 b40c 	lw	a0,464 <.L24+0x272>
  3c:	f420 b304 	lw	v1,460 <.L24+0x26e>
  40:	d206      	sw	v0,24(sp)
  42:	6e14      	li	a2,20
  44:	eb40      	jalr	v1
  46:	6f12      	li	a3,18
  48:	2204      	beqz	v0,52 <ota_receive_connect_data+0x3a>
  4a:	f400 b51c 	lw	a1,464 <.L24+0x272>
  4e:	6e00      	li	a2,0
  50:	c5c2      	sb	a2,2(a1)
  52:	f400 b314 	lw	v1,464 <.L24+0x272>
  56:	f400 b718 	lw	a3,46c <.L24+0x27a>
  5a:	a322      	lbu	s1,2(v1)
  5c:	9f80      	lw	a0,0(a3)
  5e:	f080 2908 	bnez	s1,172 <ota_receive_connect_data+0x15a>
  62:	6a00      	li	v0,0
  64:	f020 c44b 	sb	v0,43(a0)
  68:	9307      	lw	v1,28(sp)
  6a:	cc38      	sh	s1,48(a0)
  6c:	cc34      	sh	s1,40(a0)
  6e:	a3f0      	lbu	a3,16(v1)
  70:	6e0a      	li	a2,10
  72:	efd8      	mult	a3,a2
  74:	9407      	lw	a0,28(sp)
  76:	ed12      	mflo	a1
  78:	4542      	addiu	v0,a1,2
  7a:	3546      	srl	a1,v0,1
  7c:	4d08      	addiu	a1,8
  7e:	1800 0000 	jal	0 <CheckSum16>
  82:	ed11      	zeb	a1
  84:	9404      	lw	a0,16(sp)
  86:	ea8e      	xor	v0,a0
  88:	2a69      	bnez	v0,15c <ota_receive_connect_data+0x144>
  8a:	9607      	lw	a2,28(sp)
  8c:	6c0a      	li	a0,10
  8e:	a6b0      	lbu	a1,16(a2)
  90:	4814      	addiu	s0,20
  92:	ed98      	mult	a1,a0
  94:	b3f3      	lw	v1,460 <.L24+0x26e>
  96:	ef12      	mflo	a3
  98:	b5f6      	lw	a1,470 <.L24+0x27e>
  9a:	47c2      	addiu	a2,a3,2
  9c:	6790      	move	a0,s0
  9e:	eb40      	jalr	v1
  a0:	6f13      	li	a3,19
  a2:	b2f5      	lw	v0,474 <.L24+0x282>
  a4:	6c10      	li	a0,16
  a6:	67b0      	move	a1,s0
  a8:	67d1      	move	a2,s1
  aa:	ea40      	jalr	v0
  ac:	6f06      	li	a3,6
  ae:	d205      	sw	v0,20(sp)
  b0:	2a09      	bnez	v0,c4 <ota_receive_connect_data+0xac>
  b2:	b7ef      	lw	a3,46c <.L24+0x27a>
  b4:	6a03      	li	v0,3
  b6:	9f60      	lw	v1,0(a3)
  b8:	0cb5      	la	a0,38c <.L24+0x19a>
  ba:	c340      	sb	v0,0(v1)
  bc:	1054      	b	166 <ota_receive_connect_data+0x14e>
  be:	b0ea      	lw	s0,464 <.L24+0x272>
  c0:	c0c9      	sb	a2,9(s0)
  c2:	1040      	b	144 <ota_receive_connect_data+0x12c>
  c4:	9505      	lw	a1,20(sp)
  c6:	6c0a      	li	a0,10
  c8:	a5e0      	lbu	a3,0(a1)
  ca:	b0e6      	lw	s0,460 <.L24+0x26e>
  cc:	ef98      	mult	a3,a0
  ce:	b5eb      	lw	a1,478 <.L24+0x286>
  d0:	ea12      	mflo	v0
  d2:	9405      	lw	a0,20(sp)
  d4:	42c2      	addiu	a2,v0,2
  d6:	e840      	jalr	s0
  d8:	6f13      	li	a3,19
  da:	b6e5      	lw	a2,46c <.L24+0x27a>
  dc:	b0e8      	lw	s0,47c <.L24+0x28a>
  de:	9e80      	lw	a0,0(a2)
  e0:	9507      	lw	a1,28(sp)
  e2:	4c20      	addiu	a0,32
  e4:	6e08      	li	a2,8
  e6:	e840      	jalr	s0
  e8:	67f1      	move	a3,s1
  ea:	b7e1      	lw	a3,46c <.L24+0x27a>
  ec:	6b02      	li	v1,2
  ee:	9fa0      	lw	a1,0(a3)
  f0:	b4dd      	lw	a0,464 <.L24+0x272>
  f2:	c560      	sb	v1,0(a1)
  f4:	9fa0      	lw	a1,0(a3)
  f6:	4c0c      	addiu	a0,12
  f8:	4d20      	addiu	a1,32
  fa:	6e08      	li	a2,8
  fc:	e840      	jalr	s0
  fe:	67f1      	move	a3,s1
 100:	b4d9      	lw	a0,464 <.L24+0x272>
 102:	9207      	lw	v0,28(sp)
 104:	cc22      	sh	s1,4(a0)
 106:	b5da      	lw	a1,46c <.L24+0x27a>
 108:	a2d3      	lbu	a2,19(v0)
 10a:	b0d7      	lw	s0,464 <.L24+0x272>
 10c:	9de0      	lw	a3,0(a1)
 10e:	c0c8      	sb	a2,8(s0)
 110:	6b00      	li	v1,0
 112:	6e01      	li	a2,1
 114:	c0c2      	sb	a2,2(s0)
 116:	f020 c772 	sb	v1,50(a3)
 11a:	9207      	lw	v0,28(sp)
 11c:	9d60      	lw	v1,0(a1)
 11e:	a213      	lbu	s0,19(v0)
 120:	b7d3      	lw	a3,46c <.L24+0x27a>
 122:	f020 c30a 	sb	s0,42(v1)
 126:	9405      	lw	a0,20(sp)
 128:	9f60      	lw	v1,0(a3)
 12a:	aca4      	lhu	a1,8(a0)
 12c:	cbb7      	sh	a1,46(v1)
 12e:	a480      	lbu	a0,0(a0)
 130:	67b1      	move	a1,s1
 132:	e983      	sltu	s1,a0
 134:	6007      	bteqz	144 <ota_receive_connect_data+0x12c>
 136:	f020 a30a 	lbu	s0,42(v1)
 13a:	5810      	sltiu	s0,16
 13c:	61c0      	btnez	be <ota_receive_connect_data+0xa6>
 13e:	45a1      	addiu	a1,a1,1
 140:	ed83      	sltu	a1,a0
 142:	61fd      	btnez	13e <ota_receive_connect_data+0x126>
 144:	b4c8      	lw	a0,464 <.L24+0x272>
 146:	b5c9      	lw	a1,468 <.L24+0x276>
 148:	b0c6      	lw	s0,460 <.L24+0x26e>
 14a:	6e14      	li	a2,20
 14c:	e840      	jalr	s0
 14e:	6f13      	li	a3,19
 150:	6d00      	li	a1,0
 152:	0c96      	la	a0,3a8 <.L24+0x1b6>
 154:	67c5      	move	a2,a1
 156:	e840      	jalr	s0
 158:	6f4b      	li	a3,75
 15a:	110f      	b	37a <.L24+0x188>
 15c:	b2c4      	lw	v0,46c <.L24+0x27a>
 15e:	6e01      	li	a2,1
 160:	9a60      	lw	v1,0(v0)
 162:	0c97      	la	a0,3bc <.L24+0x1ca>
 164:	c3c0      	sb	a2,0(v1)
 166:	b3bf      	lw	v1,460 <.L24+0x26e>
 168:	67b1      	move	a1,s1
 16a:	67d1      	move	a2,s1
 16c:	eb40      	jalr	v1
 16e:	6f4b      	li	a3,75
 170:	1104      	b	37a <.L24+0x188>
 172:	b1c3      	lw	s1,47c <.L24+0x28a>
 174:	9507      	lw	a1,28(sp)
 176:	4c20      	addiu	a0,32
 178:	6e08      	li	a2,8
 17a:	e940      	jalr	s1
 17c:	6f00      	li	a3,0
 17e:	b0bd      	lw	s0,470 <.L24+0x27e>
 180:	9406      	lw	a0,24(sp)
 182:	b3b8      	lw	v1,460 <.L24+0x26e>
 184:	67b0      	move	a1,s0
 186:	6e01      	li	a2,1
 188:	eb40      	jalr	v1
 18a:	6f12      	li	a3,18
 18c:	9406      	lw	a0,24(sp)
 18e:	6d0a      	li	a1,10
 190:	a4c0      	lbu	a2,0(a0)
 192:	b3b4      	lw	v1,460 <.L24+0x26e>
 194:	eeb8      	mult	a2,a1
 196:	67b0      	move	a1,s0
 198:	ef12      	mflo	a3
 19a:	47c2      	addiu	a2,a3,2
 19c:	eb40      	jalr	v1
 19e:	6f12      	li	a3,18
 1a0:	9406      	lw	a0,24(sp)
 1a2:	6e0a      	li	a2,10
 1a4:	a440      	lbu	v0,0(a0)
 1a6:	b3b7      	lw	v1,480 <.L24+0x28e>
 1a8:	ead8      	mult	v0,a2
 1aa:	9ba0      	lw	a1,0(v1)
 1ac:	ef12      	mflo	a3
 1ae:	4d24      	addiu	a1,36
 1b0:	47c2      	addiu	a2,a3,2
 1b2:	e940      	jalr	s1
 1b4:	6f02      	li	a3,2
 1b6:	b4ae      	lw	a0,46c <.L24+0x27a>
 1b8:	6722      	move	s1,v0
 1ba:	9c60      	lw	v1,0(a0)
 1bc:	220f      	beqz	v0,1dc <ota_receive_connect_data+0x1c4>
 1be:	6c04      	li	a0,4
 1c0:	c380      	sb	a0,0(v1)
 1c2:	6d00      	li	a1,0
 1c4:	b3a7      	lw	v1,460 <.L24+0x26e>
 1c6:	67c5      	move	a2,a1
 1c8:	0c83      	la	a0,3d4 <.L24+0x1e2>
 1ca:	eb40      	jalr	v1
 1cc:	6f4b      	li	a3,75
 1ce:	9406      	lw	a0,24(sp)
 1d0:	b3a4      	lw	v1,460 <.L24+0x26e>
 1d2:	6d20      	li	a1,32
 1d4:	6e00      	li	a2,0
 1d6:	eb40      	jalr	v1
 1d8:	6f17      	li	a3,23
 1da:	10d5      	b	386 <.L24+0x194>
 1dc:	a300      	lbu	s0,0(v1)
 1de:	7002      	cmpi	s0,2
 1e0:	615f      	btnez	2a0 <.L24+0xae>
 1e2:	9707      	lw	a3,28(sp)
 1e4:	f020 a34a 	lbu	v0,42(v1)
 1e8:	a78e      	lbu	a0,14(a3)
 1ea:	67c4      	move	a2,a0
 1ec:	ee11      	zeb	a2
 1ee:	eace      	xor	v0,a2
 1f0:	2a0f      	bnez	v0,210 <.L24+0x1e>

000001f2 <.L24>:
 1f2:	6d00      	li	a1,0
 1f4:	b09b      	lw	s0,460 <.L24+0x26e>
 1f6:	67c5      	move	a2,a1
 1f8:	0c7f      	la	a0,3f4 <.L24+0x202>
 1fa:	e840      	jalr	s0
 1fc:	6f4b      	li	a3,75
 1fe:	9406      	lw	a0,24(sp)
 200:	6d20      	li	a1,32
 202:	6e00      	li	a2,0
 204:	e840      	jalr	s0
 206:	6f17      	li	a3,23
 208:	10be      	b	386 <.L24+0x194>
 20a:	afa4      	lhu	a1,8(a3)
 20c:	cbb7      	sh	a1,46(v1)
 20e:	1035      	b	27a <.L24+0x88>
 210:	76ff      	cmpi	a2,255
 212:	60ef      	bteqz	1f2 <.L24>
 214:	b099      	lw	s0,478 <.L24+0x286>
 216:	f020 c38a 	sb	a0,42(v1)
 21a:	9406      	lw	a0,24(sp)
 21c:	b391      	lw	v1,460 <.L24+0x26e>
 21e:	67b0      	move	a1,s0
 220:	6e01      	li	a2,1
 222:	eb40      	jalr	v1
 224:	6f12      	li	a3,18
 226:	9406      	lw	a0,24(sp)
 228:	6d0a      	li	a1,10
 22a:	a4c0      	lbu	a2,0(a0)
 22c:	b38d      	lw	v1,460 <.L24+0x26e>
 22e:	eeb8      	mult	a2,a1
 230:	67b0      	move	a1,s0
 232:	e812      	mflo	s0
 234:	6f12      	li	a3,18
 236:	eb40      	jalr	v1
 238:	40c2      	addiu	a2,s0,2
 23a:	b78d      	lw	a3,46c <.L24+0x27a>
 23c:	b089      	lw	s0,460 <.L24+0x26e>
 23e:	9f40      	lw	v0,0(a3)
 240:	0c72      	la	a0,408 <.L24+0x216>
 242:	f020 a2aa 	lbu	a1,42(v0)
 246:	6e02      	li	a2,2
 248:	e840      	jalr	s0
 24a:	6f4b      	li	a3,75
 24c:	b488      	lw	a0,46c <.L24+0x27a>
 24e:	67b1      	move	a1,s1
 250:	9c60      	lw	v1,0(a0)
 252:	f020 c32b 	sb	s1,43(v1)
 256:	9606      	lw	a2,24(sp)
 258:	cb38      	sh	s1,48(v1)
 25a:	cb34      	sh	s1,40(v1)
 25c:	a680      	lbu	a0,0(a2)
 25e:	e983      	sltu	s1,a0
 260:	600c      	bteqz	27a <.L24+0x88>
 262:	b283      	lw	v0,46c <.L24+0x27a>
 264:	9706      	lw	a3,24(sp)
 266:	9a60      	lw	v1,0(v0)
 268:	f020 a3ca 	lbu	a2,42(v1)
 26c:	a703      	lbu	s0,3(a3)
 26e:	e8ce      	xor	s0,a2
 270:	20cc      	beqz	s0,20a <.L24+0x18>
 272:	45a1      	addiu	a1,a1,1
 274:	ed83      	sltu	a1,a0
 276:	4f0a      	addiu	a3,10
 278:	61f9      	btnez	26c <.L24+0x7a>
 27a:	b47b      	lw	a0,464 <.L24+0x272>
 27c:	b57b      	lw	a1,468 <.L24+0x276>
 27e:	b079      	lw	s0,460 <.L24+0x26e>
 280:	6e14      	li	a2,20
 282:	e840      	jalr	s0
 284:	6f13      	li	a3,19
 286:	b47a      	lw	a0,46c <.L24+0x27a>
 288:	6e02      	li	a2,2
 28a:	9ce0      	lw	a3,0(a0)
 28c:	0c65      	la	a0,420 <.L24+0x22e>
 28e:	afb7      	lhu	a1,46(a3)
 290:	e840      	jalr	s0
 292:	6f4b      	li	a3,75
 294:	1063      	b	35c <.L24+0x16a>
 296:	b676      	lw	a2,46c <.L24+0x27a>
 298:	afa4      	lhu	a1,8(a3)
 29a:	9e20      	lw	s1,0(a2)
 29c:	c9b7      	sh	a1,46(s1)
 29e:	1031      	b	302 <.L24+0x110>
 2a0:	b076      	lw	s0,478 <.L24+0x286>
 2a2:	b370      	lw	v1,460 <.L24+0x26e>
 2a4:	9406      	lw	a0,24(sp)
 2a6:	67b0      	move	a1,s0
 2a8:	6e01      	li	a2,1
 2aa:	eb40      	jalr	v1
 2ac:	6f12      	li	a3,18
 2ae:	9406      	lw	a0,24(sp)
 2b0:	6e0a      	li	a2,10
 2b2:	a4e0      	lbu	a3,0(a0)
 2b4:	67b0      	move	a1,s0
 2b6:	efd8      	mult	a3,a2
 2b8:	b06a      	lw	s0,460 <.L24+0x26e>
 2ba:	ea12      	mflo	v0
 2bc:	6f12      	li	a3,18
 2be:	e840      	jalr	s0
 2c0:	42c2      	addiu	a2,v0,2
 2c2:	b368      	lw	v1,460 <.L24+0x26e>
 2c4:	0c5c      	la	a0,434 <.L24+0x242>
 2c6:	67b1      	move	a1,s1
 2c8:	67d1      	move	a2,s1
 2ca:	eb40      	jalr	v1
 2cc:	6f4b      	li	a3,75
 2ce:	9407      	lw	a0,28(sp)
 2d0:	6f0a      	li	a3,10
 2d2:	a4b0      	lbu	a1,16(a0)
 2d4:	b363      	lw	v1,460 <.L24+0x26e>
 2d6:	edf8      	mult	a1,a3
 2d8:	9406      	lw	a0,24(sp)
 2da:	e812      	mflo	s0
 2dc:	6e03      	li	a2,3
 2de:	40a2      	addiu	a1,s0,2
 2e0:	eb40      	jalr	v1
 2e2:	6f4b      	li	a3,75
 2e4:	9206      	lw	v0,24(sp)
 2e6:	67b1      	move	a1,s1
 2e8:	a260      	lbu	v1,0(v0)
 2ea:	e963      	sltu	s1,v1
 2ec:	600a      	bteqz	302 <.L24+0x110>
 2ee:	b15e      	lw	s1,464 <.L24+0x272>
 2f0:	9706      	lw	a3,24(sp)
 2f2:	a188      	lbu	a0,8(s1)
 2f4:	a743      	lbu	v0,3(a3)
 2f6:	ea8e      	xor	v0,a0
 2f8:	22ce      	beqz	v0,296 <.L24+0xa4>
 2fa:	45a1      	addiu	a1,a1,1
 2fc:	ed63      	sltu	a1,v1
 2fe:	4f0a      	addiu	a3,10
 300:	61f9      	btnez	2f4 <.L24+0x102>
 302:	b05b      	lw	s0,46c <.L24+0x27a>
 304:	0c4f      	la	a0,440 <.L24+0x24e>
 306:	9820      	lw	s1,0(s0)
 308:	6e02      	li	a2,2
 30a:	a9b7      	lhu	a1,46(s1)
 30c:	b155      	lw	s1,460 <.L24+0x26e>
 30e:	e940      	jalr	s1
 310:	6f4b      	li	a3,75
 312:	98c0      	lw	a2,0(s0)
 314:	b354      	lw	v1,464 <.L24+0x272>
 316:	6d02      	li	a1,2
 318:	c6a0      	sb	a1,0(a2)
 31a:	abe2      	lhu	a3,4(v1)
 31c:	9880      	lw	a0,0(s0)
 31e:	ccf8      	sh	a3,48(a0)
 320:	a348      	lbu	v0,8(v1)
 322:	f020 c44a 	sb	v0,42(a0)
 326:	aba2      	lhu	a1,4(v1)
 328:	98c0      	lw	a2,0(s0)
 32a:	6c05      	li	a0,5
 32c:	ceb4      	sh	a1,40(a2)
 32e:	6d00      	li	a1,0
 330:	f020 c6ab 	sb	a1,43(a2)
 334:	98e0      	lw	a3,0(s0)
 336:	f020 c7b2 	sb	a1,50(a3)
 33a:	98c0      	lw	a2,0(s0)
 33c:	c690      	sb	a0,16(a2)
 33e:	98e0      	lw	a3,0(s0)
 340:	f020 a76a 	lbu	v1,42(a3)
 344:	af58      	lhu	v0,48(a3)
 346:	c778      	sb	v1,24(a3)
 348:	9880      	lw	a0,0(s0)
 34a:	cf49      	sh	v0,18(a3)
 34c:	c4b9      	sb	a1,25(a0)
 34e:	98c0      	lw	a2,0(s0)
 350:	0c2e      	la	a0,408 <.L24+0x216>
 352:	f020 a6aa 	lbu	a1,42(a2)
 356:	6f4b      	li	a3,75
 358:	e940      	jalr	s1
 35a:	6e02      	li	a2,2
 35c:	b442      	lw	a0,464 <.L24+0x272>
 35e:	a462      	lbu	v1,2(a0)
 360:	7302      	cmpi	v1,2
 362:	610b      	btnez	37a <.L24+0x188>
 364:	b542      	lw	a1,46c <.L24+0x27a>
 366:	6e02      	li	a2,2
 368:	9de0      	lw	a3,0(a1)
 36a:	b23e      	lw	v0,460 <.L24+0x26e>
 36c:	6d00      	li	a1,0
 36e:	f020 c7cb 	sb	a2,43(a3)
 372:	0c39      	la	a0,454 <.L24+0x262>
 374:	67c5      	move	a2,a1
 376:	ea40      	jalr	v0
 378:	6f4b      	li	a3,75
 37a:	9406      	lw	a0,24(sp)
 37c:	b239      	lw	v0,460 <.L24+0x26e>
 37e:	6d20      	li	a1,32
 380:	6e00      	li	a2,0
 382:	ea40      	jalr	v0
 384:	6f17      	li	a3,23
 386:	6a00      	li	v0,0
 388:	6476      	restore	48,ra,s0-s1
 38a:	e8a0      	jrc	ra
 38c:	6f63      	li	a3,99
 38e:	6e6e      	li	a2,110
 390:	6365      	addiu	sp,808
 392:	2074      	beqz	s0,47c <.L24+0x28a>
 394:	6166      	btnez	462 <.L24+0x270>
 396:	6c69      	li	a0,105
 398:	2820      	bnez	s0,3da <.L24+0x1e8>
 39a:	5746      	slti	a3,70
 39c:	7420      	cmpi	a0,32
 39e:	6f6f      	li	a3,111
 3a0:	4220      	addiu	s1,v0,0
 3a2:	6769      	move	v1,t1
 3a4:	2921      	bnez	s1,3e8 <.L24+0x1f6>
 3a6:	0000      	addiu	s0,sp,0
 3a8:	6f63      	li	a3,99
 3aa:	6e6e      	li	a2,110
 3ac:	6365      	addiu	sp,808
 3ae:	2074      	beqz	s0,498 <fw_download_new+0x14>
 3b0:	7573      	cmpi	a1,115
 3b2:	6363      	addiu	sp,792
 3b4:	7365      	cmpi	v1,101
 3b6:	2173      	beqz	s1,49e <fw_download_new+0x1a>
 3b8:	0021      	addiu	s0,sp,132
 3ba:	0000      	addiu	s0,sp,0
 3bc:	6f63      	li	a3,99
 3be:	6e6e      	li	a2,110
 3c0:	6365      	addiu	sp,808
 3c2:	2074      	beqz	s0,4ac <fw_download_new+0x28>
 3c4:	656d      	move	t3,a1
 3c6:	7373      	cmpi	v1,115
 3c8:	6761      	move	v1,at
 3ca:	2065      	beqz	s0,496 <fw_download_new+0x12>
 3cc:	5245      	slti	v0,69
 3ce:	4f52      	addiu	a3,82
 3d0:	2121      	beqz	s1,414 <.L24+0x222>
 3d2:	0000      	addiu	s0,sp,0
 3d4:	6f63      	li	a3,99
 3d6:	6e6e      	li	a2,110
 3d8:	6365      	addiu	sp,808
 3da:	2074      	beqz	s0,4c4 <fw_download_new+0x40>
 3dc:	656d      	move	t3,a1
 3de:	7373      	cmpi	v1,115
 3e0:	6761      	move	v1,at
 3e2:	2065      	beqz	s0,4ae <fw_download_new+0x2a>
 3e4:	7369      	cmpi	v1,105
 3e6:	6420      	restore	128,s0
 3e8:	6669      	0x6669
 3ea:	6566      	move	v1,a2
 3ec:	6572      	move	s3,v0
 3ee:	746e      	cmpi	a0,110
 3f0:	0000      	addiu	s0,sp,0
 3f2:	0000      	addiu	s0,sp,0
 3f4:	6863      	li	s0,99
 3f6:	6e61      	li	a2,97
 3f8:	6567      	move	v1,a3
 3fa:	6120      	btnez	43c <.L24+0x24a>
 3fc:	7070      	cmpi	s0,112
 3fe:	696c      	li	s1,108
 400:	6163      	btnez	4c8 <fw_download_new+0x44>
 402:	746e      	cmpi	a0,110
 404:	2121      	beqz	s1,448 <.L24+0x256>
 406:	0000      	addiu	s0,sp,0
 408:	5f67      	sltiu	a3,103
 40a:	7563      	cmpi	a1,99
 40c:	5f72      	sltiu	a3,114
 40e:	6572      	move	s3,v0
 410:	5f63      	sltiu	a3,99
 412:	7473      	cmpi	a0,115
 414:	7461      	cmpi	a0,97
 416:	2e65      	bnez	a2,4e2 <fw_download_new+0x5e>
 418:	6170      	btnez	4fa <fw_download_new+0x76>
 41a:	7472      	cmpi	a0,114
 41c:	695f      	li	s1,95
 41e:	0064      	addiu	s0,sp,400
 420:	5f67      	sltiu	a3,103
 422:	6162      	btnez	4e8 <fw_download_new+0x64>
 424:	6b63      	li	v1,99
 426:	7075      	cmpi	s0,117
 428:	705f      	cmpi	s0,95
 42a:	7261      	cmpi	v0,97
 42c:	5f74      	sltiu	a3,116
 42e:	6461      	restore	8,ra,s0
 430:	7264      	cmpi	v0,100
 432:	0000      	addiu	s0,sp,0
 434:	643c      	restore	96,s0-s1
 436:	7672      	cmpi	a2,114
 438:	6420      	restore	128,s0
 43a:	7461      	cmpi	a0,97
 43c:	3e61      	ld	v1,8(a2)
 43e:	0020      	addiu	s0,sp,128
 440:	5f67      	sltiu	a3,103
 442:	6162      	btnez	508 <fw_download_new+0x84>
 444:	6b63      	li	v1,99
 446:	7075      	cmpi	s0,117
 448:	705f      	cmpi	s0,95
 44a:	7261      	cmpi	v0,97
 44c:	5f74      	sltiu	a3,116
 44e:	6461      	restore	8,ra,s0
 450:	7264      	cmpi	v0,100
 452:	0020      	addiu	s0,sp,128
 454:	7073      	cmpi	s0,115
 456:	2165      	beqz	s1,522 <fw_download_new+0x9e>
 458:	2121      	beqz	s1,49c <fw_download_new+0x18>
 45a:	7e7e      	sd	v1,240(a2)
 45c:	7e7e      	sd	v1,240(a2)
	...
 46a:	0015      	addiu	s0,sp,84
 46c:	0000      	addiu	s0,sp,0
 46e:	0000      	addiu	s0,sp,0
 470:	0000      	addiu	s0,sp,0
 472:	0017      	addiu	s0,sp,92
 474:	0000      	addiu	s0,sp,0
 476:	0000      	addiu	s0,sp,0
 478:	0000      	addiu	s0,sp,0
 47a:	0016      	addiu	s0,sp,88
	...

00000484 <fw_download_new>:
 484:	64f6      	save	48,ra,s0-s1
 486:	6901      	li	s1,1
 488:	b422      	lw	a0,510 <fw_download_new+0x8c>
 48a:	d106      	sw	s1,24(sp)
 48c:	b122      	lw	s1,514 <fw_download_new+0x90>
 48e:	9c40      	lw	v0,0(a0)
 490:	9960      	lw	v1,0(s1)
 492:	4a14      	addiu	v0,20
 494:	abd7      	lhu	a2,46(v1)
 496:	d205      	sw	v0,20(sp)
 498:	679d      	move	a0,sp
 49a:	f020 a3ea 	lbu	a3,42(v1)
 49e:	ccce      	sh	a2,28(a0)
 4a0:	abb8      	lhu	a1,48(v1)
 4a2:	b21e      	lw	v0,518 <fw_download_new+0x94>
 4a4:	ccaf      	sh	a1,30(a0)
 4a6:	6d00      	li	a1,0
 4a8:	d704      	sw	a3,16(sp)
 4aa:	0404      	addiu	a0,sp,16
 4ac:	67c5      	move	a2,a1
 4ae:	ea40      	jalr	v0
 4b0:	6f04      	li	a3,4
 4b2:	ea4f      	not	v0
 4b4:	6b00      	li	v1,0
 4b6:	2229      	beqz	v0,50a <fw_download_new+0x86>
 4b8:	9940      	lw	v0,0(s1)
 4ba:	6c01      	li	a0,1
 4bc:	f020 c28b 	sb	a0,43(v0)
 4c0:	9960      	lw	v1,0(s1)
 4c2:	aab8      	lhu	a1,48(v0)
 4c4:	abf8      	lhu	a3,48(v1)
 4c6:	cab4      	sh	a1,40(v0)
 4c8:	47c1      	addiu	a2,a3,1
 4ca:	cbd8      	sh	a2,48(v1)
 4cc:	6766      	move	v1,a2
 4ce:	eb31      	zeh	v1
 4d0:	6d7f      	li	a1,127
 4d2:	ed6c      	and	a1,v1
 4d4:	2502      	beqz	a1,4da <fw_download_new+0x56>
 4d6:	7301      	cmpi	v1,1
 4d8:	6117      	btnez	508 <fw_download_new+0x84>
 4da:	b011      	lw	s0,51c <fw_download_new+0x98>
 4dc:	b511      	lw	a1,520 <fw_download_new+0x9c>
 4de:	b312      	lw	v1,524 <fw_download_new+0xa0>
 4e0:	6790      	move	a0,s0
 4e2:	6e14      	li	a2,20
 4e4:	eb40      	jalr	v1
 4e6:	6f12      	li	a3,18
 4e8:	9980      	lw	a0,0(s1)
 4ea:	6d01      	li	a1,1
 4ec:	c0a2      	sb	a1,2(s0)
 4ee:	f020 a44a 	lbu	v0,42(a0)
 4f2:	6e00      	li	a2,0
 4f4:	c048      	sb	v0,8(s0)
 4f6:	acf8      	lhu	a3,48(a0)
 4f8:	b50a      	lw	a1,520 <fw_download_new+0x9c>
 4fa:	b30b      	lw	v1,524 <fw_download_new+0xa0>
 4fc:	c8e2      	sh	a3,4(s0)
 4fe:	c0c3      	sb	a2,3(s0)
 500:	6790      	move	a0,s0
 502:	6e14      	li	a2,20
 504:	eb40      	jalr	v1
 506:	6f13      	li	a3,19
 508:	6b01      	li	v1,1
 50a:	6743      	move	v0,v1
 50c:	6476      	restore	48,ra,s0-s1
 50e:	e8a0      	jrc	ra
	...
 520:	0000      	addiu	s0,sp,0
 522:	0015      	addiu	s0,sp,84
 524:	0000      	addiu	s0,sp,0
	...

00000528 <ota_receive_data>:
 528:	64f4      	save	32,ra,s0-s1
 52a:	6dff      	li	a1,255
 52c:	ae00      	lhu	s0,0(a2)
 52e:	45a2      	addiu	a1,a1,2
 530:	4682      	addiu	a0,a2,2
 532:	1800 0000 	jal	0 <CheckSum16>
 536:	ae21      	lhu	s1,2(a2)
 538:	ea0e      	xor	v0,s0
 53a:	b015      	lw	s0,58c <ota_receive_data+0x64>
 53c:	98a0      	lw	a1,0(s0)
 53e:	2a14      	bnez	v0,568 <ota_receive_data+0x40>
 540:	adb8      	lhu	a1,48(a1)
 542:	6745      	move	v0,a1
 544:	ea2e      	xor	v0,s1
 546:	220c      	beqz	v0,560 <ota_receive_data+0x38>
 548:	b212      	lw	v0,590 <ota_receive_data+0x68>
 54a:	6e02      	li	a2,2
 54c:	0c0b      	la	a0,578 <ota_receive_data+0x50>
 54e:	ea40      	jalr	v0
 550:	6f4b      	li	a3,75
 552:	9860      	lw	v1,0(s0)
 554:	f020 a3f2 	lbu	a3,50(v1)
 558:	47c1      	addiu	a2,a3,1
 55a:	f020 c3d2 	sb	a2,50(v1)
 55e:	1009      	b	572 <ota_receive_data+0x4a>
 560:	1800 0000 	jal	0 <CheckSum16>
 564:	6500      	nop
 566:	1005      	b	572 <ota_receive_data+0x4a>
 568:	ad78      	lhu	v1,48(a1)
 56a:	6c00      	li	a0,0
 56c:	cd74      	sh	v1,40(a1)
 56e:	f020 c58b 	sb	a0,43(a1)
 572:	6a00      	li	v0,0
 574:	6474      	restore	32,ra,s0-s1
 576:	e8a0      	jrc	ra
 578:	6170      	btnez	65a <CheckSum32+0xc2>
 57a:	676b      	move	v1,t3
 57c:	6920      	li	s1,32
 57e:	2073      	beqz	s0,666 <CheckSum32+0xce>
 580:	6f6e      	li	a3,110
 582:	2074      	beqz	s0,66c <CheckSum32+0xd4>
 584:	656e      	move	t3,a2
 586:	6465      	restore	40,ra,s0
 588:	0021      	addiu	s0,sp,132
	...

00000594 <ota_receive_vram_data>:
 594:	e820      	jr	ra
 596:	6a00      	li	v0,0

00000598 <CheckSum32>:
 598:	6b00      	li	v1,0
 59a:	2505      	beqz	a1,5a6 <CheckSum32+0xe>
 59c:	9c40      	lw	v0,0(a0)
 59e:	45af      	addiu	a1,a1,-1
 5a0:	e34d      	addu	v1,v0
 5a2:	4484      	addiu	a0,a0,4
 5a4:	2dfb      	bnez	a1,59c <CheckSum32+0x4>
 5a6:	e820      	jr	ra
 5a8:	6743      	move	v0,v1
 5aa:	6500      	nop
Disassembly of section .reginfo:

00000000 <.reginfo>:
   0:	a10300ff 	sb	v1,255(t0)
	...
Disassembly of section .pdr:

00000000 <.pdr>:
	...
  18:	0000001d 	0x1d
  1c:	0000001f 	0x1f
  20:	00000000 	nop
  24:	80030000 	lb	v1,0(zero)
  28:	fffffffc 	sdc3	$31,-4(ra)
	...
  34:	00000030 	tge	zero,zero
  38:	0000001d 	0x1d
  3c:	0000001f 	0x1f
  40:	00000000 	nop
  44:	80030000 	lb	v1,0(zero)
  48:	fffffffc 	sdc3	$31,-4(ra)
	...
  54:	00000030 	tge	zero,zero
  58:	0000001d 	0x1d
  5c:	0000001f 	0x1f
  60:	00000000 	nop
  64:	80030000 	lb	v1,0(zero)
  68:	fffffffc 	sdc3	$31,-4(ra)
	...
  74:	00000020 	add	zero,zero,zero
  78:	0000001d 	0x1d
  7c:	0000001f 	0x1f
	...
  98:	0000001d 	0x1d
  9c:	0000001f 	0x1f
	...
  b8:	0000001d 	0x1d
  bc:	0000001f 	0x1f
Disassembly of section .debug_abbrev:

00000000 <.debug_abbrev>:
   0:	10011101 	beq	zero,at,4408 <CheckSum32+0x3e70>
   4:	11011206 	beq	t0,at,4820 <CheckSum32+0x4288>
   8:	130e2501 	beq	t8,t6,9410 <CheckSum32+0x8e78>
   c:	1b0e030b 	0x1b0e030b
  10:	0200000e 	0x200000e
  14:	0e030024 	jal	80c0090 <CheckSum32+0x80bfaf8>
  18:	0b3e0b0b 	j	cf82c2c <CheckSum32+0xcf82694>
  1c:	16030000 	bne	s0,v1,20 <.debug_abbrev+0x20>
  20:	3a0e0300 	xori	t6,s0,0x300
  24:	490b3b0b 	bc2tl	$cc2,ec54 <CheckSum32+0xe6bc>
  28:	04000013 	bltz	zero,78 <.debug_abbrev+0x78>
  2c:	08030024 	j	c0090 <CheckSum32+0xbfaf8>
  30:	0b3e0b0b 	j	cf82c2c <CheckSum32+0xcf82694>
  34:	0f050000 	jal	c140000 <CheckSum32+0xc13fa68>
  38:	000b0b00 	sll	at,t3,0xc
  3c:	000f0600 	sll	zero,t7,0x18
  40:	13490b0b 	beq	k0,t1,2c70 <CheckSum32+0x26d8>
  44:	13070000 	beq	t8,a3,48 <.debug_abbrev+0x48>
  48:	0b130101 	j	c4c0404 <CheckSum32+0xc4bfe6c>
  4c:	3b0b3a0b 	xori	t3,t8,0x3a0b
  50:	0800000b 	j	2c <.debug_abbrev+0x2c>
  54:	0e03000d 	jal	80c0034 <CheckSum32+0x80bfa9c>
  58:	0b3b0b3a 	j	cec2ce8 <CheckSum32+0xcec2750>
  5c:	0a381349 	j	8e04d24 <CheckSum32+0x8e0478c>
  60:	01090000 	0x1090000
  64:	49130101 	bc2tl	$cc4,46c <.L24+0x27a>
  68:	0a000013 	j	800004c <CheckSum32+0x7fffab4>
  6c:	13490021 	beq	k0,t1,f4 <.debug_abbrev+0xf4>
  70:	0d0b0000 	jal	42c0000 <CheckSum32+0x42bfa68>
  74:	3a080300 	xori	t0,s0,0x300
  78:	490b3b0b 	bc2tl	$cc2,eca8 <CheckSum32+0xe710>
  7c:	000a3813 	0xa3813
  80:	00210c00 	0x210c00
  84:	0b2f1349 	j	cbc4d24 <CheckSum32+0xcbc478c>
  88:	040d0000 	0x40d0000
  8c:	0b130101 	j	c4c0404 <CheckSum32+0xc4bfe6c>
  90:	3b0b3a0b 	xori	t3,t8,0x3a0b
  94:	0e00000b 	jal	800002c <CheckSum32+0x7fffa94>
  98:	0e030028 	jal	80c00a0 <CheckSum32+0x80bfb08>
  9c:	00000d1c 	0xd1c
  a0:	0300160f 	0x300160f
  a4:	3b0b3a0e 	xori	t3,t8,0x3a0e
  a8:	00134905 	0x134905
  ac:	01131000 	0x1131000
  b0:	0b0b1301 	j	c2c4c04 <CheckSum32+0xc2c466c>
  b4:	053b0b3a 	0x53b0b3a
  b8:	0d110000 	jal	4440000 <CheckSum32+0x443fa68>
  bc:	3a0e0300 	xori	t6,s0,0x300
  c0:	49053b0b 	bc2t	$cc1,ecf0 <CheckSum32+0xe758>
  c4:	000a3813 	0xa3813
  c8:	000d1200 	sll	v0,t5,0x8
  cc:	0b3a0e03 	j	ce8380c <CheckSum32+0xce83274>
  d0:	1349053b 	beq	k0,t1,15c0 <CheckSum32+0x1028>
  d4:	0b0d0b0b 	j	c342c2c <CheckSum32+0xc342694>
  d8:	0a380b0c 	j	8e02c30 <CheckSum32+0x8e02698>
  dc:	2e130000 	sltiu	s3,s0,0
  e0:	3f130101 	0x3f130101
  e4:	3a0e030c 	xori	t6,s0,0x30c
  e8:	27053b0b 	addiu	a1,t8,15115
  ec:	1113490c 	beq	t0,s3,12520 <CheckSum32+0x11f88>
  f0:	40011201 	0x40011201
  f4:	1400000a 	bnez	zero,120 <.debug_abbrev+0x120>
  f8:	08030005 	j	c0014 <CheckSum32+0xbfa7c>
  fc:	053b0b3a 	0x53b0b3a
 100:	0a021349 	j	8084d24 <CheckSum32+0x808478c>
 104:	34150000 	li	s5,0x0
 108:	3a0e0300 	xori	t6,s0,0x300
 10c:	49053b0b 	bc2t	$cc1,ed3c <CheckSum32+0xe7a4>
 110:	000a0213 	0xa0213
 114:	00341600 	0x341600
 118:	0b3a0803 	j	ce8200c <CheckSum32+0xce81a74>
 11c:	1349053b 	beq	k0,t1,160c <CheckSum32+0x1074>
 120:	00000a02 	srl	at,zero,0x8
 124:	01012e17 	0x1012e17
 128:	030c3f13 	0x30c3f13
 12c:	3b0b3a0e 	xori	t3,t8,0x3a0e
 130:	490c270b 	bc2f	$cc3,9d60 <CheckSum32+0x97c8>
 134:	12011113 	beq	s0,at,4584 <CheckSum32+0x3fec>
 138:	000a4001 	0xa4001
 13c:	00051800 	sll	v1,a1,0x0
 140:	0b3a0e03 	j	ce8380c <CheckSum32+0xce83274>
 144:	13490b3b 	beq	k0,t1,2e34 <CheckSum32+0x289c>
 148:	00000a02 	srl	at,zero,0x8
 14c:	03003419 	0x3003419
 150:	3b0b3a08 	xori	t3,t8,0x3a08
 154:	0213490b 	0x213490b
 158:	1a00000a 	blez	s0,184 <.debug_abbrev+0x184>
 15c:	08030034 	j	c00d0 <CheckSum32+0xbfb38>
 160:	0b3b0b3a 	j	cec2ce8 <CheckSum32+0xcec2750>
 164:	00001349 	0x1349
 168:	0300341b 	0x300341b
 16c:	3b0b3a0e 	xori	t3,t8,0x3a0e
 170:	0013490b 	0x13490b
 174:	00341c00 	0x341c00
 178:	0b3a0e03 	j	ce8380c <CheckSum32+0xce83274>
 17c:	13490b3b 	beq	k0,t1,2e6c <CheckSum32+0x28d4>
 180:	00000a02 	srl	at,zero,0x8
 184:	03000a1d 	0x3000a1d
 188:	3b0b3a0e 	xori	t3,t8,0x3a0e
 18c:	0001110b 	0x1110b
 190:	00341e00 	0x341e00
 194:	0b3a0e03 	j	ce8380c <CheckSum32+0xce83274>
 198:	1349053b 	beq	k0,t1,1688 <CheckSum32+0x10f0>
 19c:	341f0000 	li	ra,0x0
 1a0:	3a0e0300 	xori	t6,s0,0x300
 1a4:	490b3b0b 	bc2tl	$cc2,edd4 <CheckSum32+0xe83c>
 1a8:	3c0c3f13 	lui	t4,0x3f13
 1ac:	2000000c 	addi	zero,zero,12
 1b0:	0e030034 	jal	80c00d0 <CheckSum32+0x80bfb38>
 1b4:	053b0b3a 	0x53b0b3a
 1b8:	0c3f1349 	jal	fc4d24 <CheckSum32+0xfc478c>
 1bc:	00000c3c 	0xc3c
	...
Disassembly of section .debug_info:

00000000 <.debug_info>:
   0:	00000d2d 	0xd2d
   4:	00000002 	srl	zero,zero,0x0
   8:	01040000 	0x1040000
   c:	00000000 	nop
  10:	000005aa 	0x5aa
  14:	00000000 	nop
  18:	00000566 	0x566
  1c:	000a0501 	0xa0501
  20:	00043a00 	sll	a3,a0,0x8
  24:	04b30200 	bgezall	a1,828 <.debug_info+0x828>
  28:	08010000 	j	40000 <CheckSum32+0x3fa68>
  2c:	00071103 	sra	v0,a3,0x4
  30:	250f0800 	addiu	t7,t0,2048
  34:	02000000 	0x2000000
  38:	00000883 	sra	at,zero,0x2
  3c:	0c020601 	jal	81804 <CheckSum32+0x8126c>
  40:	02000001 	movf	zero,s0,$fcc0
  44:	0e700207 	jal	9c0081c <CheckSum32+0x9c00284>
  48:	05020000 	bltzl	t0,4c <.debug_info+0x4c>
  4c:	0003b302 	srl	s6,v1,0xc
  50:	02070400 	0x2070400
  54:	00000989 	0x989
  58:	dd020504 	ldc3	$2,1284(t0)
  5c:	04000004 	bltz	zero,70 <.debug_info+0x70>
  60:	0b930204 	j	e4c0810 <CheckSum32+0xe4c0278>
  64:	04080000 	tgei	zero,0
  68:	000c5602 	srl	t2,t4,0x18
  6c:	02070800 	0x2070800
  70:	000004f9 	0x4f9
  74:	14020508 	bne	zero,v0,1498 <CheckSum32+0xf00>
  78:	04000000 	bltz	zero,7c <.debug_info+0x7c>
  7c:	022a0307 	0x22a0307
  80:	15020000 	bne	t0,v0,84 <.debug_info+0x84>
  84:	00000025 	move	zero,zero
  88:	000a5303 	sra	t2,t2,0xc
  8c:	3e1d0200 	0x3e1d0200
  90:	03000000 	0x3000000
  94:	00000aa6 	0xaa6
  98:	00762502 	0x762502
  9c:	c5030000 	lwc1	$f3,0(t0)
  a0:	02000006 	srlv	zero,zero,s0
  a4:	0000a929 	0xa929
  a8:	6e690400 	0x6e690400
  ac:	05040074 	0x5040074
  b0:	000a8502 	srl	s0,t2,0x14
  b4:	03060100 	0x3060100
  b8:	000003ac 	0x3ac
  bc:	003e6802 	ror	t5,s8,0x0
  c0:	1b030000 	0x1b030000
  c4:	02000004 	sllv	zero,zero,s0
  c8:	00007670 	tge	zero,zero,0x1d9
  cc:	03b30200 	0x3b30200
  d0:	07040000 	0x7040000
  d4:	04060405 	0x4060405
  d8:	0000007d 	0x7d
  dc:	00013907 	0x13907
  e0:	62050a00 	0x62050a00
  e4:	0001a308 	0x1a308
  e8:	7d5c0500 	0x7d5c0500
  ec:	02000000 	0x2000000
  f0:	58080023 	0x58080023
  f4:	05000006 	bltz	t0,110 <.debug_info+0x110>
  f8:	00007d5d 	0x7d5d
  fc:	01230200 	0x1230200
 100:	00011f08 	0x11f08
 104:	885e0500 	lwl	s8,1280(v0)
 108:	02000000 	0x2000000
 10c:	73080223 	0x73080223
 110:	05000002 	bltz	t0,11c <.debug_info+0x11c>
 114:	0000885f 	0x885f
 118:	04230200 	bgezl	at,91c <.debug_info+0x91c>
 11c:	0004c108 	0x4c108
 120:	88600500 	lwl	zero,1280(v1)
 124:	02000000 	0x2000000
 128:	d6080623 	ldc1	$f8,1571(s0)
 12c:	0500000d 	bltz	t0,164 <.debug_info+0x164>
 130:	00008861 	0x8861
 134:	08230200 	j	8c0800 <CheckSum32+0x8c0268>
 138:	07870300 	0x7870300
 13c:	62050000 	0x62050000
 140:	000000dc 	0xdc
 144:	00017707 	0x17707
 148:	6a050200 	0x6a050200
 14c:	00013308 	0x13308
 150:	7d660500 	0x7d660500
 154:	02000000 	0x2000000
 158:	66080023 	0x66080023
 15c:	05000000 	bltz	t0,160 <.debug_info+0x160>
 160:	00007d68 	0x7d68
 164:	01230200 	0x1230200
 168:	00070708 	0x70708
 16c:	77690500 	jalx	da41400 <CheckSum32+0xda40e68>
 170:	02000001 	movf	zero,s0,$fcc0
 174:	09000223 	j	400088c <CheckSum32+0x40002f4>
 178:	00000186 	0x186
 17c:	00000139 	0x139
 180:	0000cd0a 	0xcd0a
 184:	b4030000 	0xb4030000
 188:	05000000 	bltz	t0,18c <.debug_info+0x18c>
 18c:	0001446a 	0x1446a
 190:	01c40700 	0x1c40700
 194:	05080000 	tgei	t0,0
 198:	49500b78 	0x49500b78
 19c:	75050044 	jalx	4140110 <CheckSum32+0x413fb78>
 1a0:	0000003e 	0x3e
 1a4:	0b002302 	j	c008c08 <CheckSum32+0xc008670>
 1a8:	00444956 	0x444956
 1ac:	003e7605 	0x3e7605
 1b0:	23020000 	addi	v0,t8,0
 1b4:	055e0802 	0x55e0802
 1b8:	77050000 	jalx	c140000 <CheckSum32+0xc13fa68>
 1bc:	000001c4 	0x1c4
 1c0:	00042302 	srl	a0,a0,0xc
 1c4:	0001d409 	0x1d409
 1c8:	0000b000 	sll	s6,zero,0x0
 1cc:	00cd0c00 	0xcd0c00
 1d0:	00030000 	sll	zero,v1,0x0
 1d4:	00062503 	sra	a0,a2,0x14
 1d8:	91780500 	lbu	t8,1280(t3)
 1dc:	07000001 	bltz	t8,1e4 <.debug_info+0x1e4>
 1e0:	00000274 	teq	zero,zero,0x9
 1e4:	088f0514 	j	23c1450 <CheckSum32+0x23c0eb8>
 1e8:	00000816 	0x816
 1ec:	00888405 	0x888405
 1f0:	23020000 	addi	v0,t8,0
 1f4:	06940800 	0x6940800
 1f8:	85050000 	lh	a1,0(t0)
 1fc:	0000007d 	0x7d
 200:	08022302 	j	88c08 <CheckSum32+0x88670>
 204:	000006a4 	0x6a4
 208:	007d8605 	0x7d8605
 20c:	23020000 	addi	v0,t8,0
 210:	0ada0803 	j	b68200c <CheckSum32+0xb681a74>
 214:	87050000 	lh	a1,0(t8)
 218:	00000088 	0x88
 21c:	08042302 	j	108c08 <CheckSum32+0x108670>
 220:	000006f5 	0x6f5
 224:	00888805 	0x888805
 228:	23020000 	addi	v0,t8,0
 22c:	06580806 	0x6580806
 230:	89050000 	lwl	a1,0(t0)
 234:	0000007d 	0x7d
 238:	08082302 	j	208c08 <CheckSum32+0x208670>
 23c:	000001e1 	0x1e1
 240:	007d8a05 	0x7d8a05
 244:	23020000 	addi	v0,t8,0
 248:	03ff0809 	0x3ff0809
 24c:	8b050000 	lwl	a1,0(t8)
 250:	0000007d 	0x7d
 254:	080a2302 	j	288c08 <CheckSum32+0x288670>
 258:	000007a3 	0x7a3
 25c:	02748c05 	0x2748c05
 260:	23020000 	addi	v0,t8,0
 264:	005b080b 	movn	at,v0,k1
 268:	8d050000 	lw	a1,0(t0)
 26c:	000001d4 	0x1d4
 270:	000c2302 	srl	a0,t4,0xc
 274:	00028409 	0x28409
 278:	00007d00 	sll	t7,zero,0x14
 27c:	00cd0c00 	0xcd0c00
 280:	00000000 	nop
 284:	000cc103 	sra	t8,t4,0x4
 288:	df8f0500 	ldc3	$15,1280(gp)
 28c:	07000001 	bltz	t8,294 <.debug_info+0x294>
 290:	000002de 	0x2de
 294:	08990510 	j	2641440 <CheckSum32+0x2640ea8>
 298:	00000658 	0x658
 29c:	00939405 	0x939405
 2a0:	23020000 	addi	v0,t8,0
 2a4:	05990800 	0x5990800
 2a8:	95050000 	lhu	a1,0(t0)
 2ac:	000000d6 	0xd6
 2b0:	08042302 	j	108c08 <CheckSum32+0x108670>
 2b4:	00000c17 	0xc17
 2b8:	00939605 	0x939605
 2bc:	23020000 	addi	v0,t8,0
 2c0:	0d710808 	jal	5c42020 <CheckSum32+0x5c41a88>
 2c4:	97050000 	lhu	a1,0(t8)
 2c8:	00000088 	0x88
 2cc:	080c2302 	j	308c08 <CheckSum32+0x308670>
 2d0:	00000e3d 	0xe3d
 2d4:	00889805 	0x889805
 2d8:	23020000 	addi	v0,t8,0
 2dc:	0a03000e 	j	80c0038 <CheckSum32+0x80bfaa0>
 2e0:	0500000b 	bltz	t0,310 <.debug_info+0x310>
 2e4:	00028f99 	0x28f99
 2e8:	05080d00 	tgei	t0,3328
 2ec:	03020000 	0x3020000
 2f0:	03a00ee0 	0x3a00ee0
 2f4:	0e000000 	jal	8000000 <CheckSum32+0x7fffa68>
 2f8:	00000af0 	tge	zero,zero,0x2b
 2fc:	073e0e01 	0x73e0e01
 300:	0e020000 	jal	8080000 <CheckSum32+0x807fa68>
 304:	000005cb 	0x5cb
 308:	0a350e03 	j	8d4380c <CheckSum32+0x8d43274>
 30c:	0e200000 	jal	8800000 <CheckSum32+0x87ffa68>
 310:	00000933 	tltu	zero,zero,0x24
 314:	8a0e0180 	lwl	t6,384(s0)
 318:	81000004 	lb	zero,4(t0)
 31c:	02300e01 	0x2300e01
 320:	01820000 	0x1820000
 324:	0000920e 	0x920e
 328:	0e018300 	jal	8060c00 <CheckSum32+0x8060668>
 32c:	00000281 	0x281
 330:	010e0184 	0x10e0184
 334:	8500000c 	lh	zero,12(t0)
 338:	0c900e01 	jal	2403804 <CheckSum32+0x240326c>
 33c:	01a10000 	0x1a10000
 340:	0001ce0e 	0x1ce0e
 344:	0e01ff00 	jal	807fc00 <CheckSum32+0x807f668>
 348:	000004cd 	break	0x0,0x13
 34c:	750e0280 	jalx	4380a00 <CheckSum32+0x4380468>
 350:	81000007 	lb	zero,7(t0)
 354:	09a70e02 	j	69c3808 <CheckSum32+0x69c3270>
 358:	02820000 	0x2820000
 35c:	0005410e 	0x5410e
 360:	0e028300 	jal	80a0c00 <CheckSum32+0x80a0668>
 364:	00000cfa 	0xcfa
 368:	2c0e0284 	sltiu	t6,zero,644
 36c:	85000000 	lh	zero,0(t0)
 370:	01690e02 	0x1690e02
 374:	02860000 	0x2860000
 378:	0004e30e 	0x4e30e
 37c:	0e028700 	jal	80a1c00 <CheckSum32+0x80a1668>
 380:	00000821 	move	at,zero
 384:	0a0e0288 	j	8380a20 <CheckSum32+0x8380488>
 388:	89000004 	lwl	zero,4(t0)
 38c:	09400e02 	j	5003808 <CheckSum32+0x5003270>
 390:	028a0000 	0x28a0000
 394:	0001bd0e 	0x1bd0e
 398:	0e028b00 	jal	80a2c00 <CheckSum32+0x80a2668>
 39c:	00000081 	0x81
 3a0:	8f0e028c 	lw	t6,652(t8)
 3a4:	8d000008 	lw	zero,8(t0)
 3a8:	030a0e02 	0x30a0e02
 3ac:	028e0000 	0x28e0000
 3b0:	0005b20e 	0x5b20e
 3b4:	0e028f00 	jal	80a3c00 <CheckSum32+0x80a3668>
 3b8:	000009cc 	syscall	0x27
 3bc:	d00e0290 	0xd00e0290
 3c0:	91000000 	lbu	zero,0(t0)
 3c4:	05de0e02 	0x5de0e02
 3c8:	02920000 	0x2920000
 3cc:	0009f00e 	0x9f00e
 3d0:	0e029300 	jal	80a4c00 <CheckSum32+0x80a4668>
 3d4:	000000e6 	0xe6
 3d8:	6d0e0294 	0x6d0e0294
 3dc:	9500000b 	lhu	zero,11(t0)
 3e0:	09920e02 	j	6483808 <CheckSum32+0x6483270>
 3e4:	02960000 	0x2960000
 3e8:	0007290e 	0x7290e
 3ec:	0e029700 	jal	80a5c00 <CheckSum32+0x80a5668>
 3f0:	00000263 	0x263
 3f4:	f60e0298 	sdc1	$f14,664(s0)
 3f8:	99000008 	lwr	zero,8(t0)
 3fc:	0d5d0e02 	jal	5743808 <CheckSum32+0x5743270>
 400:	029a0000 	0x29a0000
 404:	00013e0e 	0x13e0e
 408:	0e029b00 	jal	80a6c00 <CheckSum32+0x80a6668>
 40c:	000001f2 	tlt	zero,zero,0x7
 410:	5d0e029c 	0x5d0e029c
 414:	9d00000e 	0x9d00000e
 418:	01510e02 	0x1510e02
 41c:	029e0000 	0x29e0000
 420:	000dbc0e 	0xdbc0e
 424:	0e029f00 	jal	80a7c00 <CheckSum32+0x80a7668>
 428:	000006b2 	tlt	zero,zero,0x1a
 42c:	9a0e02a0 	lwr	t6,672(s0)
 430:	a100000b 	sb	zero,11(t0)
 434:	07fc0e02 	0x7fc0e02
 438:	02a20000 	0x2a20000
 43c:	000cd60e 	0xcd60e
 440:	0e02a300 	jal	80a8c00 <CheckSum32+0x80a8668>
 444:	00000b1c 	0xb1c
 448:	e40e02a4 	swc1	$f14,676(zero)
 44c:	a500000d 	sh	zero,13(t0)
 450:	08c40e02 	j	3103808 <CheckSum32+0x3103270>
 454:	02a60000 	0x2a60000
 458:	000ac20e 	0xac20e
 45c:	0e02a700 	jal	80a9c00 <CheckSum32+0x80a9668>
 460:	00000c7d 	0xc7d
 464:	df0e02a8 	ldc3	$14,680(t8)
 468:	a9000007 	swl	zero,7(t0)
 46c:	0a6a0e02 	j	9a83808 <CheckSum32+0x9a83270>
 470:	02aa0000 	0x2aa0000
 474:	0002a10e 	0x2a10e
 478:	0e02ab00 	jal	80aac00 <CheckSum32+0x80aa668>
 47c:	000002b7 	0x2b7
 480:	cd0e02ac 	pref	0xe,684(t0)
 484:	ad000002 	sw	zero,2(t0)
 488:	02e30e02 	0x2e30e02
 48c:	02ae0000 	0x2ae0000
 490:	00031e0e 	0x31e0e
 494:	0e02af00 	jal	80abc00 <CheckSum32+0x80ab668>
 498:	00000334 	teq	zero,zero,0xc
 49c:	5f0e02b0 	0x5f0e02b0
 4a0:	b1000007 	0xb1000007
 4a4:	034a0e02 	0x34a0e02
 4a8:	02b20000 	0x2b20000
 4ac:	0003600e 	0x3600e
 4b0:	0e02b300 	jal	80acc00 <CheckSum32+0x80ac668>
 4b4:	00000376 	tne	zero,zero,0xd
 4b8:	200e02b4 	addi	t6,zero,692
 4bc:	8000000c 	lb	zero,12(zero)
 4c0:	0d1d0e04 	jal	4743810 <CheckSum32+0x4743278>
 4c4:	04810000 	bgez	a0,4c8 <.debug_info+0x4c8>
 4c8:	0009630e 	0x9630e
 4cc:	0e048200 	jal	8120800 <CheckSum32+0x8120268>
 4d0:	0000051d 	0x51d
 4d4:	090e0483 	j	438120c <CheckSum32+0x4380c74>
 4d8:	84000009 	lh	zero,9(zero)
 4dc:	09510e04 	j	5443810 <CheckSum32+0x5443278>
 4e0:	04850000 	0x4850000
 4e4:	000bdf0e 	0xbdf0e
 4e8:	0e048600 	jal	8121800 <CheckSum32+0x8121268>
 4ec:	00000d32 	tlt	zero,zero,0x34
 4f0:	020e0487 	0x20e0487
 4f4:	88000006 	lwl	zero,6(zero)
 4f8:	06710e04 	bgezal	s3,3d0c <CheckSum32+0x3774>
 4fc:	04890000 	tgeiu	a0,0
 500:	0003e50e 	0x3e50e
 504:	00048a00 	sll	s1,a0,0x8
 508:	0008420f 	0x8420f
 50c:	017a0300 	0x17a0300
 510:	000002e9 	0x2e9
 514:	00052409 	0x52409
 518:	00007d00 	sll	t7,zero,0x14
 51c:	00cd0c00 	0xcd0c00
 520:	00050000 	sll	zero,a1,0x0
 524:	00064210 	0x64210
 528:	3d071c00 	0x3d071c00
 52c:	01971101 	0x1971101
 530:	18070000 	0x18070000
 534:	00007d01 	0x7d01
 538:	00230200 	0x230200
 53c:	0008e911 	0x8e911
 540:	011a0700 	0x11a0700
 544:	0000007d 	0x7d
 548:	11012302 	beq	t0,at,9154 <CheckSum32+0x8bbc>
 54c:	00000dfb 	0xdfb
 550:	7d011c07 	0x7d011c07
 554:	02000000 	0x2000000
 558:	30110223 	andi	s1,zero,0x223
 55c:	07000004 	bltz	t8,570 <.debug_info+0x570>
 560:	007d011e 	0x7d011e
 564:	23020000 	addi	v0,t8,0
 568:	05071103 	0x5071103
 56c:	23070000 	addi	a3,t8,0
 570:	00007d01 	0x7d01
 574:	04230200 	bgezl	at,d78 <CheckSum32+0x7e0>
 578:	00038c11 	0x38c11
 57c:	01240700 	0x1240700
 580:	0000007d 	0x7d
 584:	12052302 	beq	s0,a1,9190 <CheckSum32+0x8bf8>
 588:	000004a5 	0x4a5
 58c:	7d012507 	0x7d012507
 590:	01000000 	0x1000000
 594:	23020404 	addi	v0,t8,1028
 598:	0b5e1206 	j	d784818 <CheckSum32+0xd784280>
 59c:	26070000 	addiu	a3,s0,0
 5a0:	00007d01 	0x7d01
 5a4:	00040100 	sll	zero,a0,0x4
 5a8:	11062302 	beq	t0,a2,91b4 <CheckSum32+0x8c1c>
 5ac:	00000b4f 	0xb4f
 5b0:	7d012807 	0x7d012807
 5b4:	02000000 	0x2000000
 5b8:	f0110723 	0xf0110723
 5bc:	07000007 	bltz	t8,5dc <.debug_info+0x5dc>
 5c0:	007d012b 	0x7d012b
 5c4:	23020000 	addi	v0,t8,0
 5c8:	091e1108 	j	4784420 <CheckSum32+0x4783e88>
 5cc:	2d070000 	sltiu	a3,t0,0
 5d0:	00007d01 	0x7d01
 5d4:	09230200 	j	48c0800 <CheckSum32+0x48c0268>
 5d8:	000b7d11 	0xb7d11
 5dc:	01300700 	0x1300700
 5e0:	0000007d 	0x7d
 5e4:	110a2302 	beq	t0,t2,91f0 <CheckSum32+0x8c58>
 5e8:	00000e05 	0xe05
 5ec:	2c013307 	sltiu	at,zero,13063
 5f0:	02000000 	0x2000000
 5f4:	ae110b23 	sw	s1,2851(s0)
 5f8:	07000001 	bltz	t8,600 <.debug_info+0x600>
 5fc:	06420134 	bltzl	s2,ad0 <.debug_info+0xad0>
 600:	23020000 	addi	v0,t8,0
 604:	0c41110c 	jal	1044430 <CheckSum32+0x1043e98>
 608:	37070000 	ori	a3,t8,0x0
 60c:	00064201 	0x64201
 610:	10230200 	beq	at,v1,e14 <CheckSum32+0x87c>
 614:	000aad11 	0xaad11
 618:	01380700 	0x1380700
 61c:	00000642 	srl	zero,zero,0x19
 620:	11142302 	beq	t0,s4,922c <CheckSum32+0x8c94>
 624:	00000a22 	0xa22
 628:	7d013b07 	0x7d013b07
 62c:	02000000 	0x2000000
 630:	8b111823 	lwl	s1,6179(t8)
 634:	07000005 	bltz	t8,64c <.debug_info+0x64c>
 638:	007d013c 	0x7d013c
 63c:	23020000 	addi	v0,t8,0
 640:	04060019 	0x4060019
 644:	00000045 	0x45
 648:	0006e00f 	0x6e00f
 64c:	013d0700 	0x13d0700
 650:	00000524 	0x524
 654:	0007db10 	0x7db10
 658:	77071800 	jalx	c1c6000 <CheckSum32+0xc1c5a68>
 65c:	00211101 	0x211101
 660:	46070000 	add.s	$f0,$f0,$f7
 664:	00002c01 	0x2c01
 668:	00230200 	0x230200
 66c:	000a1a11 	0xa1a11
 670:	01480700 	0x1480700
 674:	0000002c 	0x2c
 678:	11012302 	beq	t0,at,9284 <CheckSum32+0x8cec>
 67c:	00000b45 	0xb45
 680:	7d014a07 	0x7d014a07
 684:	02000000 	0x2000000
 688:	fc110223 	sdc3	$17,547(zero)
 68c:	07000000 	bltz	t8,690 <.debug_info+0x690>
 690:	007d014c 	syscall	0x1f405
 694:	23020000 	addi	v0,t8,0
 698:	061a1103 	0x61a1103
 69c:	4e070000 	c3	0x70000
 6a0:	00007d01 	0x7d01
 6a4:	04230200 	bgezl	at,ea8 <CheckSum32+0x910>
 6a8:	000e2111 	0xe2111
 6ac:	01500700 	0x1500700
 6b0:	0000007d 	0x7d
 6b4:	11052302 	beq	t0,a1,92c0 <CheckSum32+0x8d28>
 6b8:	00000876 	tne	zero,zero,0x21
 6bc:	7d015207 	0x7d015207
 6c0:	02000000 	0x2000000
 6c4:	9a110623 	lwr	s1,1571(s0)
 6c8:	0700000a 	bltz	t8,6f4 <.debug_info+0x6f4>
 6cc:	007d0154 	0x7d0154
 6d0:	23020000 	addi	v0,t8,0
 6d4:	068b1107 	tltiu	s4,4359
 6d8:	56070000 	bnel	s0,a3,6dc <.debug_info+0x6dc>
 6dc:	00002c01 	0x2c01
 6e0:	08230200 	j	8c0800 <CheckSum32+0x8c0268>
 6e4:	0005a511 	0x5a511
 6e8:	01580700 	0x1580700
 6ec:	0000007d 	0x7d
 6f0:	11092302 	beq	t0,t1,92fc <CheckSum32+0x8d64>
 6f4:	00000129 	0x129
 6f8:	7d015a07 	0x7d015a07
 6fc:	02000000 	0x2000000
 700:	c5110a23 	lwc1	$f17,2595(t0)
 704:	07000003 	bltz	t8,714 <.debug_info+0x714>
 708:	002c015c 	0x2c015c
 70c:	23020000 	addi	v0,t8,0
 710:	0531120b 	bgezal	t1,4f40 <CheckSum32+0x49a8>
 714:	5e070000 	0x5e070000
 718:	00007d01 	0x7d01
 71c:	01070100 	0x1070100
 720:	120c2302 	beq	s0,t4,932c <CheckSum32+0x8d94>
 724:	0000058b 	0x58b
 728:	7d015f07 	0x7d015f07
 72c:	01000000 	0x1000000
 730:	23020001 	addi	v0,t8,1
 734:	0e4f110c 	jal	93c4430 <CheckSum32+0x93c3e98>
 738:	61070000 	0x61070000
 73c:	00007d01 	0x7d01
 740:	0d230200 	jal	48c0800 <CheckSum32+0x48c0268>
 744:	000d8211 	0xd8211
 748:	01640700 	0x1640700
 74c:	0000002c 	0x2c
 750:	110e2302 	beq	t0,t6,935c <CheckSum32+0x8dc4>
 754:	0000085b 	0x85b
 758:	2c016607 	sltiu	at,zero,26119
 75c:	02000000 	0x2000000
 760:	6d110f23 	0x6d110f23
 764:	0700000c 	bltz	t8,798 <.debug_info+0x798>
 768:	002c0168 	0x2c0168
 76c:	23020000 	addi	v0,t8,0
 770:	0afe1110 	j	bf84440 <CheckSum32+0xbf83ea8>
 774:	6a070000 	0x6a070000
 778:	00002c01 	0x2c01
 77c:	11230200 	beq	t1,v1,f80 <CheckSum32+0x9e8>
 780:	00024211 	0x24211
 784:	016c0700 	0x16c0700
 788:	0000007d 	0x7d
 78c:	11122302 	beq	t0,s2,9398 <CheckSum32+0x8e00>
 790:	0000018b 	0x18b
 794:	7d016e07 	0x7d016e07
 798:	02000000 	0x2000000
 79c:	e5111323 	swc1	$f17,4899(t0)
 7a0:	0700000a 	bltz	t8,7cc <.debug_info+0x7cc>
 7a4:	007d0170 	tge	v1,sp,0x5
 7a8:	23020000 	addi	v0,t8,0
 7ac:	00001114 	0x1114
 7b0:	72070000 	madd	s0,a3
 7b4:	00007d01 	0x7d01
 7b8:	15230200 	bne	t1,v1,fbc <CheckSum32+0xa24>
 7bc:	000da711 	0xda711
 7c0:	01740700 	0x1740700
 7c4:	0000007d 	0x7d
 7c8:	11162302 	beq	t0,s6,93d4 <CheckSum32+0x8e3c>
 7cc:	000007bc 	0x7bc
 7d0:	7d017607 	0x7d017607
 7d4:	02000000 	0x2000000
 7d8:	0f001723 	jal	c005c8c <CheckSum32+0xc0056f4>
 7dc:	00000d4c 	syscall	0x35
 7e0:	54017707 	bnel	zero,at,1e400 <CheckSum32+0x1de68>
 7e4:	10000006 	b	800 <.debug_info+0x800>
 7e8:	0000082d 	0x82d
 7ec:	01870704 	0x1870704
 7f0:	00055411 	0x55411
 7f4:	01800700 	0x1800700
 7f8:	0000007d 	0x7d
 7fc:	11002302 	beqz	t0,9408 <CheckSum32+0x8e70>
 800:	00000a5a 	0xa5a
 804:	7d018207 	0x7d018207
 808:	02000000 	0x2000000
 80c:	2d110123 	sltiu	s1,t0,291
 810:	0700000e 	bltz	t8,84c <.debug_info+0x84c>
 814:	007d0184 	0x7d0184
 818:	23020000 	addi	v0,t8,0
 81c:	021b1102 	0x21b1102
 820:	86070000 	lh	a3,0(s0)
 824:	00007d01 	0x7d01
 828:	03230200 	0x3230200
 82c:	02f90f00 	0x2f90f00
 830:	87070000 	lh	a3,0(t8)
 834:	0007e701 	0x7e701
 838:	88040600 	lwl	a0,1536(zero)
 83c:	07000000 	bltz	t8,840 <.debug_info+0x840>
 840:	0000089c 	0x89c
 844:	0826040e 	j	981038 <CheckSum32+0x980aa0>
 848:	0000005b 	0x5b
 84c:	01d41f04 	0x1d41f04
 850:	23020000 	addi	v0,t8,0
 854:	08670800 	j	19c2000 <CheckSum32+0x19c1a68>
 858:	20040000 	addi	a0,zero,0
 85c:	00000088 	0x88
 860:	08082302 	j	208c08 <CheckSum32+0x208670>
 864:	00000658 	0x658
 868:	007d2104 	0x7d2104
 86c:	23020000 	addi	v0,t8,0
 870:	0ca9080a 	jal	2a42028 <CheckSum32+0x2a41a90>
 874:	22040000 	addi	a0,s0,0
 878:	0000007d 	0x7d
 87c:	080b2302 	j	2c8c08 <CheckSum32+0x2c8670>
 880:	00000c31 	tgeu	zero,zero,0x30
 884:	007d2404 	0x7d2404
 888:	23020000 	addi	v0,t8,0
 88c:	07a3080c 	bgezl	sp,28c0 <CheckSum32+0x2328>
 890:	25040000 	addiu	a0,t0,0
 894:	0000007d 	0x7d
 898:	000d2302 	srl	a0,t5,0xc
 89c:	0009ba03 	sra	s7,t1,0x8
 8a0:	3f260400 	0x3f260400
 8a4:	07000008 	bltz	t8,8c8 <.debug_info+0x8c8>
 8a8:	000008cc 	syscall	0x23
 8ac:	082c0410 	j	b01040 <CheckSum32+0xb00aa8>
 8b0:	00000422 	0x422
 8b4:	007d2a04 	0x7d2a04
 8b8:	23020000 	addi	v0,t8,0
 8bc:	07a30800 	bgezl	sp,28c0 <CheckSum32+0x2328>
 8c0:	2b040000 	slti	a0,t8,0
 8c4:	000008cc 	syscall	0x23
 8c8:	00012302 	srl	a0,at,0xc
 8cc:	0008dc09 	0x8dc09
 8d0:	00007d00 	sll	t7,zero,0x14
 8d4:	00cd0c00 	0xcd0c00
 8d8:	000e0000 	sll	zero,t6,0x0
 8dc:	000a8a03 	sra	s1,t2,0x8
 8e0:	a72c0400 	sh	t4,1024(t9)
 8e4:	07000008 	bltz	t8,908 <.debug_info+0x908>
 8e8:	00000952 	0x952
 8ec:	08380410 	j	e01040 <CheckSum32+0xe00aa8>
 8f0:	00000422 	0x422
 8f4:	007d3104 	0x7d3104
 8f8:	23020000 	addi	v0,t8,0
 8fc:	0a4b0800 	j	92c2000 <CheckSum32+0x92c1a68>
 900:	32040000 	andi	a0,s0,0x0
 904:	0000007d 	0x7d
 908:	08012302 	j	48c08 <CheckSum32+0x48670>
 90c:	00000867 	0x867
 910:	00883304 	0x883304
 914:	23020000 	addi	v0,t8,0
 918:	08da0802 	j	3682008 <CheckSum32+0x3681a70>
 91c:	34040000 	li	a0,0x0
 920:	00000093 	0x93
 924:	08042302 	j	108c08 <CheckSum32+0x108670>
 928:	00000658 	0x658
 92c:	007d3504 	0x7d3504
 930:	23020000 	addi	v0,t8,0
 934:	0ca90808 	jal	2a42020 <CheckSum32+0x2a41a88>
 938:	36040000 	ori	a0,s0,0x0
 93c:	0000007d 	0x7d
 940:	08092302 	j	248c08 <CheckSum32+0x248670>
 944:	00000e7a 	0xe7a
 948:	05143704 	0x5143704
 94c:	23020000 	addi	v0,t8,0
 950:	d003000a 	0xd003000a
 954:	04000003 	bltz	zero,964 <.debug_info+0x964>
 958:	0008e738 	0x8e738
 95c:	09ba0700 	j	6e81c00 <CheckSum32+0x6e81668>
 960:	04140000 	0x4140000
 964:	005b0843 	0x5b0843
 968:	3d040000 	0x3d040000
 96c:	000001d4 	0x1d4
 970:	08002302 	j	8c08 <CheckSum32+0x8670>
 974:	00000d0e 	0xd0e
 978:	00933e04 	0x933e04
 97c:	23020000 	addi	v0,t8,0
 980:	06f50808 	0x6f50808
 984:	3f040000 	0x3f040000
 988:	00000088 	0x88
 98c:	080c2302 	j	308c08 <CheckSum32+0x308670>
 990:	00000658 	0x658
 994:	007d4004 	sllv	t0,sp,v1
 998:	23020000 	addi	v0,t8,0
 99c:	07a3080e 	bgezl	sp,29d8 <CheckSum32+0x2440>
 9a0:	41040000 	0x41040000
 9a4:	00000274 	teq	zero,zero,0x9
 9a8:	080f2302 	j	3c8c08 <CheckSum32+0x3c8670>
 9ac:	00000180 	sll	zero,zero,0x6
 9b0:	01864204 	0x1864204
 9b4:	23020000 	addi	v0,t8,0
 9b8:	17030010 	bne	t8,v1,9fc <.debug_info+0x9fc>
 9bc:	04000007 	bltz	zero,9dc <.debug_info+0x9dc>
 9c0:	00095d43 	sra	t3,t1,0x15
 9c4:	0a220700 	j	8881c00 <CheckSum32+0x8881668>
 9c8:	04340000 	0x4340000
 9cc:	07500861 	bltzal	k0,2b54 <CheckSum32+0x25bc>
 9d0:	5b040000 	0x5b040000
 9d4:	000008dc 	0x8dc
 9d8:	08002302 	j	8c08 <CheckSum32+0x8670>
 9dc:	000009e1 	0x9e1
 9e0:	09525c04 	j	5497010 <CheckSum32+0x5496a78>
 9e4:	23020000 	addi	v0,t8,0
 9e8:	07ac0810 	teqi	sp,2064
 9ec:	5d040000 	0x5d040000
 9f0:	0000089c 	0x89c
 9f4:	08202302 	j	808c08 <CheckSum32+0x808670>
 9f8:	00000bcc 	syscall	0x2f
 9fc:	00885e04 	0x885e04
 a00:	23020000 	addi	v0,t8,0
 a04:	0647082e 	0x647082e
 a08:	5f040000 	0x5f040000
 a0c:	00000088 	0x88
 a10:	08302302 	j	c08c08 <CheckSum32+0xc08670>
 a14:	00000977 	0x977
 a18:	007d6004 	sllv	t4,sp,v1
 a1c:	23020000 	addi	v0,t8,0
 a20:	6e030032 	0x6e030032
 a24:	04000000 	bltz	zero,a28 <.debug_info+0xa28>
 a28:	0009c561 	0x9c561
 a2c:	0a821300 	j	a084c00 <CheckSum32+0xa084668>
 a30:	98010000 	lwr	at,0(zero)
 a34:	01000007 	srav	zero,zero,t0
 a38:	b701015e 	0xb701015e
 a3c:	00000000 	nop
 a40:	18000000 	blez	zero,a44 <.debug_info+0xa44>
 a44:	01000000 	0x1000000
 a48:	7562146d 	jalx	58851b4 <CheckSum32+0x5884c1c>
 a4c:	5d010066 	0x5d010066
 a50:	000a8201 	0xa8201
 a54:	14680100 	bne	v1,t0,e58 <CheckSum32+0x8c0>
 a58:	006e656c 	0x6e656c
 a5c:	c2015d01 	ll	at,23809(s0)
 a60:	01000000 	0x1000000
 a64:	0e1b1555 	jal	86c5554 <CheckSum32+0x86c4fbc>
 a68:	5f010000 	0x5f010000
 a6c:	0000c201 	0xc201
 a70:	16550100 	bne	s2,s5,e74 <CheckSum32+0x8dc>
 a74:	006d7573 	tltu	v1,t5,0x1d5
 a78:	b7016001 	0xb7016001
 a7c:	01000000 	0x1000000
 a80:	04060053 	0x4060053
 a84:	000000b7 	0xb7
 a88:	000b5c17 	0xb5c17
 a8c:	062e0100 	tnei	s1,256
 a90:	0e010000 	jal	8040000 <CheckSum32+0x803fa68>
 a94:	00050801 	movt	at,zero,$fcc1
 a98:	00000000 	nop
 a9c:	00038c00 	sll	s1,v1,0x10
 aa0:	186d0100 	0x186d0100
 aa4:	00000bbb 	0xbbb
 aa8:	00930d01 	0x930d01
 aac:	54010000 	bnel	zero,at,ab0 <.debug_info+0xab0>
 ab0:	000bc118 	0xbc118
 ab4:	930d0100 	lbu	t5,256(t8)
 ab8:	01000000 	0x1000000
 abc:	0bc71855 	j	f1c6154 <CheckSum32+0xf1c5bbc>
 ac0:	0d010000 	jal	4040000 <CheckSum32+0x403fa68>
 ac4:	000000d4 	0xd4
 ac8:	17186001 	bne	t8,t8,18ad0 <CheckSum32+0x18538>
 acc:	0100000c 	syscall	0x40000
 ad0:	0000880d 	break	0x0,0x220
 ad4:	19570100 	0x19570100
 ad8:	0f010069 	jal	c0401a4 <CheckSum32+0xc03fc0c>
 adc:	00000093 	0x93
 ae0:	621a5501 	0x621a5501
 ae4:	01006675 	0x1006675
 ae8:	00083910 	0x83910
 aec:	081c1b00 	j	706c00 <CheckSum32+0x706668>
 af0:	11010000 	beq	t0,at,af4 <.debug_info+0xaf4>
 af4:	000000d6 	0xd6
 af8:	000cb81c 	0xcb81c
 afc:	88120100 	lwl	s2,256(zero)
 b00:	02000000 	0x2000000
 b04:	f01b1091 	0xf01b1091
 b08:	0100000c 	syscall	0x40000
 b0c:	00007d13 	0x7d13
 b10:	65721a00 	0x65721a00
 b14:	14010074 	bne	zero,at,ce8 <.debug_info+0xce8>
 b18:	000000a9 	0xa9
 b1c:	000baf1b 	0xbaf1b
 b20:	5c150100 	0x5c150100
 b24:	1c00000b 	bgtz	zero,b54 <.debug_info+0xb54>
 b28:	00000210 	0x210
 b2c:	0b621601 	j	d885804 <CheckSum32+0xd88526c>
 b30:	60010000 	0x60010000
 b34:	00004c1c 	0x4c1c
 b38:	62170100 	0x62170100
 b3c:	0200000b 	movn	zero,s0,zero
 b40:	961c1491 	lhu	gp,5265(s0)
 b44:	0100000d 	break	0x100
 b48:	0000d618 	0xd618
 b4c:	18910200 	0x18910200
 b50:	0005f71d 	0x5f71d
 b54:	008a0100 	0x8a0100
 b58:	00000000 	nop
 b5c:	09ba0406 	j	6e81018 <CheckSum32+0x6e80a80>
 b60:	04060000 	0x4060000
 b64:	00000186 	0x186
 b68:	000ba013 	0xba013
 b6c:	08b40100 	j	2d00400 <CheckSum32+0x2cffe68>
 b70:	07010000 	bgez	t8,b74 <.debug_info+0xb74>
 b74:	00930101 	0x930101
 b78:	00000000 	nop
 b7c:	05100000 	bltzal	t0,b80 <.debug_info+0xb80>
 b80:	6d010000 	0x6d010000
 b84:	0003dd1e 	0x3dd1e
 b88:	01080100 	0x1080100
 b8c:	0000009e 	0x9e
 b90:	00084f15 	0x84f15
 b94:	01090100 	0x1090100
 b98:	000002de 	0x2de
 b9c:	00109102 	srl	s2,s0,0x4
 ba0:	000c2017 	0xc2017
 ba4:	0bf00100 	j	fc00400 <CheckSum32+0xfbffe68>
 ba8:	d4010000 	ldc1	$f1,0(zero)
 bac:	00050801 	movt	at,zero,$fcc1
 bb0:	00000000 	nop
 bb4:	00057800 	sll	t7,a1,0x0
 bb8:	186d0100 	0x186d0100
 bbc:	00000bbb 	0xbbb
 bc0:	0093d301 	0x93d301
 bc4:	54010000 	bnel	zero,at,bc8 <.debug_info+0xbc8>
 bc8:	000bc118 	0xbc118
 bcc:	93d30100 	lbu	s3,256(s8)
 bd0:	01000000 	0x1000000
 bd4:	0bc71855 	j	f1c6154 <CheckSum32+0xf1c5bbc>
 bd8:	d3010000 	0xd3010000
 bdc:	000000d4 	0xd4
 be0:	17185401 	bne	t8,t8,15be8 <CheckSum32+0x15650>
 be4:	0100000c 	syscall	0x40000
 be8:	000088d3 	0x88d3
 bec:	1a570100 	0x1a570100
 bf0:	00667562 	0x667562
 bf4:	0839d501 	j	e75404 <CheckSum32+0xe74e6c>
 bf8:	b81c0000 	swr	gp,0(zero)
 bfc:	0100000c 	syscall	0x40000
 c00:	000088d6 	0x88d6
 c04:	1c600100 	bgtz	v1,1008 <CheckSum32+0xa70>
 c08:	00000660 	0x660
 c0c:	0088d701 	0x88d701
 c10:	61010000 	0x61010000
 c14:	0003dd1b 	0x3dd1b
 c18:	9ed80100 	0x9ed80100
 c1c:	00000000 	nop
 c20:	000c7017 	0xc7017
 c24:	0b2f0100 	j	cbc0400 <CheckSum32+0xcbbfe68>
 c28:	f8010000 	sdc2	$1,0(zero)
 c2c:	00050801 	movt	at,zero,$fcc1
 c30:	00000000 	nop
 c34:	00059800 	sll	s3,a1,0x0
 c38:	186d0100 	0x186d0100
 c3c:	00000bbb 	0xbbb
 c40:	0093f701 	0x93f701
 c44:	54010000 	bnel	zero,at,c48 <.debug_info+0xc48>
 c48:	000bc118 	0xbc118
 c4c:	93f70100 	lbu	s7,256(ra)
 c50:	01000000 	0x1000000
 c54:	0bc71855 	j	f1c6154 <CheckSum32+0xf1c5bbc>
 c58:	f7010000 	sdc1	$f1,0(t8)
 c5c:	000000d4 	0xd4
 c60:	17185601 	bne	t8,t8,16468 <CheckSum32+0x15ed0>
 c64:	0100000c 	syscall	0x40000
 c68:	000088f7 	0x88f7
 c6c:	00570100 	0x570100
 c70:	000cc513 	0xcc513
 c74:	00c50100 	0xc50100
 c78:	6b010000 	0x6b010000
 c7c:	00c20101 	0xc20101
 c80:	00000000 	nop
 c84:	05aa0000 	tlti	t5,0
 c88:	6d010000 	0x6d010000
 c8c:	66756214 	0x66756214
 c90:	016a0100 	0x16a0100
 c94:	00000cc5 	0xcc5
 c98:	6c146801 	0x6c146801
 c9c:	01006e65 	0x1006e65
 ca0:	00c2016a 	0xc2016a
 ca4:	55010000 	bnel	t0,at,ca8 <.debug_info+0xca8>
 ca8:	000e1b15 	0xe1b15
 cac:	016c0100 	0x16c0100
 cb0:	000000c2 	srl	zero,zero,0x3
 cb4:	73165501 	0x73165501
 cb8:	01006d75 	0x1006d75
 cbc:	00c2016d 	0xc2016d
 cc0:	53010000 	beql	t8,at,cc4 <.debug_info+0xcc4>
 cc4:	c2040600 	ll	a0,1536(s0)
 cc8:	1f000000 	bgtz	t8,ccc <.debug_info+0xccc>
 ccc:	000006cb 	0x6cb
 cd0:	007d8a06 	0x7d8a06
 cd4:	01010000 	0x1010000
 cd8:	0007ca20 	0x7ca20
 cdc:	019b0700 	0x19b0700
 ce0:	00000648 	0x648
 ce4:	83200101 	lb	zero,257(t9)
 ce8:	0700000e 	bltz	t8,d24 <.debug_info+0xd24>
 cec:	082d01a1 	j	b40684 <CheckSum32+0xb400ec>
 cf0:	01010000 	0x1010000
 cf4:	0008a320 	0x8a320
 cf8:	01a70700 	0x1a70700
 cfc:	000007db 	0x7db
 d00:	51200101 	beqzl	t1,1108 <CheckSum32+0xb70>
 d04:	09000002 	j	4000008 <CheckSum32+0x3fffa70>
 d08:	00d60215 	0xd60215
 d0c:	01010000 	0x1010000
 d10:	0000391f 	0x391f
 d14:	84640400 	lh	a0,1024(v1)
 d18:	01000002 	0x1000002
 d1c:	01e81f01 	0x1e81f01
 d20:	65040000 	0x65040000
 d24:	00000d2a 	0xd2a
 d28:	04060101 	0x4060101
 d2c:	00000a22 	0xa22
	...
Disassembly of section .debug_line:

00000000 <.debug_line>:
   0:	0000020d 	break	0x0,0x8
   4:	00f60002 	0xf60002
   8:	01010000 	0x1010000
   c:	000a0efb 	0xa0efb
  10:	01010101 	0x1010101
  14:	01000000 	0x1000000
  18:	2e2e2f2e 	sltiu	t6,s1,12078
  1c:	2f2e2e2f 	sltiu	t6,t9,11823
  20:	2e2f2e2e 	sltiu	t7,s1,11822
  24:	73702f2e 	0x73702f2e
  28:	65725f70 	0x65725f70
  2c:	6e692f6c 	0x6e692f6c
  30:	64756c63 	0x64756c63
  34:	2f2e0065 	sltiu	t6,t9,101
  38:	2e2f2e2e 	sltiu	t7,s1,11822
  3c:	2e2e2f2e 	sltiu	t6,s1,12078
  40:	636e692f 	0x636e692f
  44:	2e2f2e00 	sltiu	t7,s1,11776
  48:	2e2e2f2e 	sltiu	t6,s1,12078
  4c:	2f2e2e2f 	sltiu	t6,t9,11823
  50:	702f2e2e 	0x702f2e2e
  54:	725f7073 	0x725f7073
  58:	692f6c65 	0x692f6c65
  5c:	756c636e 	jalx	5b18db8 <CheckSum32+0x5b18820>
  60:	752f6564 	jalx	4bd9590 <CheckSum32+0x4bd8ff8>
  64:	00736f63 	0x736f63
  68:	61744f00 	0x61744f00
  6c:	7063725f 	udi15	v1,v1,t6,0x9
  70:	635f735f 	0x635f735f
  74:	645f646d 	0x645f646d
  78:	2e6c6165 	sltiu	t4,s3,24933
  7c:	00000063 	0x63
  80:	70797400 	0x70797400
  84:	74786565 	jalx	1e19594 <CheckSum32+0x1e18ffc>
  88:	0100682e 	0x100682e
  8c:	61630000 	0x61630000
  90:	745f6573 	jalx	17d95cc <CheckSum32+0x17d9034>
  94:	2e657079 	sltiu	a1,s3,28793
  98:	00020068 	0x20068
  9c:	6d6f4300 	0x6d6f4300
  a0:	5f6e6f6d 	0x5f6e6f6d
  a4:	2e61746f 	sltiu	at,s3,29807
  a8:	00020068 	0x20068
  ac:	73797300 	0x73797300
  b0:	61746f5f 	0x61746f5f
  b4:	746e695f 	jalx	1b9a57c <CheckSum32+0x1b99fe4>
  b8:	61667265 	0x61667265
  bc:	682e6563 	0x682e6563
  c0:	00000100 	sll	zero,zero,0x4
  c4:	5f707061 	0x5f707061
  c8:	656d6974 	0x656d6974
  cc:	00682e72 	tlt	v1,t0,0xb9
  d0:	61000002 	0x61000002
  d4:	696c7070 	0x696c7070
  d8:	00682e62 	0x682e62
  dc:	75000002 	jalx	4000008 <CheckSum32+0x3fffa70>
  e0:	5f736f63 	0x5f736f63
  e4:	65707974 	0x65707974
  e8:	00682e73 	tltu	v1,t0,0xb9
  ec:	63000003 	0x63000003
  f0:	6f6d6d6f 	0x6f6d6d6f
  f4:	63725f6e 	0x63725f6e
  f8:	00682e70 	tge	v1,t0,0xb9
  fc:	00000002 	srl	zero,zero,0x0
 100:	01020500 	0x1020500
 104:	03000000 	0x3000000
 108:	490102e1 	bc2t	c90 <CheckSum32+0x6f8>
 10c:	039f2d29 	0x39f2d29
 110:	2f637da6 	sltiu	v1,k1,32166
 114:	032b0a03 	0x32b0a03
 118:	0e034772 	jal	80d1dc8 <CheckSum32+0x80d1830>
 11c:	494b9b2b 	0x494b9b2b
 120:	31b77a03 	andi	s7,t5,0x7a03
 124:	f3822d64 	0xf3822d64
 128:	2f2c2666 	sltiu	t4,t9,9830
 12c:	bc832767 	cache	0x3,10087(a0)
 130:	d4f22d61 	ldc1	$f18,11617(a3)
 134:	032a642d 	0x32a642d
 138:	03484716 	0x3484716
 13c:	56082b6f 	bnel	s0,t0,aefc <CheckSum32+0xa964>
 140:	2c2a64f0 	sltiu	t2,at,25840
 144:	2f2a2cb8 	sltiu	t2,t9,11448
 148:	2e284a28 	sltiu	t0,s1,18984
 14c:	6449482a 	0x6449482a
 150:	d580482a 	ldc1	$f0,18474(t4)
 154:	63100329 	0x63100329
 158:	2a64bdb9 	slti	a0,s3,-16967
 15c:	d4b8bc2c 	ldc1	$f24,-17364(a1)
 160:	c8083b08 	lwc2	$8,15112(zero)
 164:	2fb8b848 	sltiu	t8,sp,-18360
 168:	9cb8f266 	0x9cb8f266
 16c:	482b1803 	0x482b1803
 170:	4e2b6b03 	c3	0x2b6b03
 174:	08b84a28 	j	2e128a0 <CheckSum32+0x2e12308>
 178:	2f1f083b 	sltiu	ra,t8,2107
 17c:	27492d27 	addiu	t1,k0,11559
 180:	61f12e2c 	0x61f12e2c
 184:	0e03b887 	jal	80ee21c <CheckSum32+0x80edc84>
 188:	770380ef 	jalx	c0e03bc <CheckSum32+0xc0dfe24>
 18c:	3a08d42b 	xori	t0,s0,0xd42b
 190:	61f1ff08 	0x61f1ff08
 194:	f07f0903 	0xf07f0903
 198:	64482a2c 	0x64482a2c
 19c:	2c274b64 	sltiu	a3,at,19300
 1a0:	2c486564 	sltiu	t0,v0,25956
 1a4:	282d2c46 	slti	t5,at,11334
 1a8:	81d72c2e 	lb	s7,11310(t6)
 1ac:	83484664 	lb	t0,18020(k0)
 1b0:	023903b9 	0x23903b9
 1b4:	300101fe 	andi	at,zero,0x1fe
 1b8:	292c2c2a 	slti	t4,t1,11306
 1bc:	282e292d 	slti	t6,at,10541
 1c0:	2c482a2e 	sltiu	t0,v0,10798
 1c4:	032b0b03 	0x32b0b03
 1c8:	0b032b75 	j	c0cadd4 <CheckSum32+0xc0ca83c>
 1cc:	2b73032b 	slti	s3,k1,811
 1d0:	812b0d03 	lb	t3,3331(t1)
 1d4:	2c33282e 	sltiu	s3,at,10286
 1d8:	292d2964 	slti	t5,t1,10596
 1dc:	d5d5482d 	ldc1	$f21,18477(t6)
 1e0:	2949482a 	slti	t1,t2,18474
 1e4:	2c452d2c 	sltiu	a1,v0,11564
 1e8:	032e822c 	0x32e822c
 1ec:	c5087fa0 	lwc1	$f8,32672(t0)
 1f0:	272b0a03 	addiu	t3,t9,2563
 1f4:	81d5472f 	lb	s5,18223(t6)
 1f8:	852eb89c 	lh	t6,-18276(t1)
 1fc:	4d2c2a2c 	0x4d2c2a2c
 200:	fd081003 	sdc3	$8,4099(t0)
 204:	4700eb03 	c1	0x100eb03
 208:	672d2949 	0x672d2949
 20c:	01000302 	0x1000302
 210:	Address 0x210 is out of bounds.

Disassembly of section .debug_frame:

00000000 <.debug_frame>:
   0:	0000000c 	syscall
   4:	ffffffff 	sdc3	$31,-1(ra)
   8:	04010001 	b	10 <.debug_frame+0x10>
   c:	001d0c1f 	0x1d0c1f
  10:	0000000c 	syscall
	...
  1c:	00000017 	0x17
  20:	00000020 	add	zero,zero,zero
	...
  2c:	00000373 	tltu	zero,zero,0xd
  30:	0e040e42 	jal	8103908 <CheckSum32+0x8103370>
  34:	0e0c0e08 	jal	8303820 <CheckSum32+0x8303288>
  38:	7d101130 	0x7d101130
  3c:	117e1111 	beq	t3,s8,4484 <CheckSum32+0x3eec>
  40:	00007f1f 	0x7f1f
  44:	00000020 	add	zero,zero,zero
	...
  50:	0000008b 	0x8b
  54:	0e040e42 	jal	8103908 <CheckSum32+0x8103370>
  58:	0e0c0e08 	jal	8303820 <CheckSum32+0x8303288>
  5c:	7d101130 	0x7d101130
  60:	117e1111 	beq	t3,s8,44a8 <CheckSum32+0x3f10>
  64:	00007f1f 	0x7f1f
  68:	00000020 	add	zero,zero,zero
	...
  74:	0000004f 	0x4f
  78:	0e040e42 	jal	8103908 <CheckSum32+0x8103370>
  7c:	0e0c0e08 	jal	8303820 <CheckSum32+0x8303288>
  80:	7d101120 	0x7d101120
  84:	117e1111 	beq	t3,s8,44cc <CheckSum32+0x3f34>
  88:	00007f1f 	0x7f1f
  8c:	0000000c 	syscall
	...
  98:	00000003 	sra	zero,zero,0x0
  9c:	0000000c 	syscall
	...
  a8:	00000011 	mthi	zero
Disassembly of section .debug_pubnames:

00000000 <.debug_pubnames>:
   0:	0000008c 	syscall	0x2
   4:	00000002 	srl	zero,zero,0x0
   8:	0d310000 	jal	4c40000 <CheckSum32+0x4c3fa68>
   c:	0a2d0000 	j	8b40000 <CheckSum32+0x8b3fa68>
  10:	68430000 	0x68430000
  14:	536b6365 	beql	k1,t3,18dac <CheckSum32+0x18814>
  18:	36316d75 	ori	s1,s1,0x6d75
  1c:	000a8800 	sll	s1,t2,0x0
  20:	61746f00 	0x61746f00
  24:	6365725f 	0x6365725f
  28:	65766965 	0x65766965
  2c:	6e6f635f 	0x6e6f635f
  30:	7463656e 	jalx	18d95b8 <CheckSum32+0x18d9020>
  34:	7461645f 	jalx	185917c <CheckSum32+0x1858be4>
  38:	0b680061 	j	da00184 <CheckSum32+0xd9ffbec>
  3c:	77660000 	jalx	d980000 <CheckSum32+0xd97fa68>
  40:	776f645f 	jalx	dbd917c <CheckSum32+0xdbd8be4>
  44:	616f6c6e 	0x616f6c6e
  48:	656e5f64 	0x656e5f64
  4c:	0ba00077 	j	e8001dc <CheckSum32+0xe7ffc44>
  50:	746f0000 	jalx	1bc0000 <CheckSum32+0x1bbfa68>
  54:	65725f61 	0x65725f61
  58:	76696563 	jalx	9a5958c <CheckSum32+0x9a58ff4>
  5c:	61645f65 	0x61645f65
  60:	20006174 	addi	zero,zero,24948
  64:	6f00000c 	0x6f00000c
  68:	725f6174 	0x725f6174
  6c:	69656365 	0x69656365
  70:	765f6576 	jalx	97d95d8 <CheckSum32+0x97d9040>
  74:	5f6d6172 	0x5f6d6172
  78:	61746164 	0x61746164
  7c:	000c7000 	sll	t6,t4,0x0
  80:	65684300 	0x65684300
  84:	75536b63 	jalx	54dad8c <CheckSum32+0x54da7f4>
  88:	0032336d 	0x32336d
  8c:	00000000 	nop
Disassembly of section .debug_aranges:

00000000 <.debug_aranges>:
   0:	0000001c 	0x1c
   4:	00000002 	srl	zero,zero,0x0
   8:	00040000 	sll	zero,a0,0x0
	...
  14:	000005aa 	0x5aa
	...
Disassembly of section .debug_str:

00000000 <.debug_str>:
   0:	69726576 	0x69726576
   4:	61636966 	0x61636966
   8:	6e6f6974 	0x6e6f6974
   c:	6174735f 	0x6174735f
  10:	00737574 	teq	v1,s3,0x1d5
  14:	69736e75 	0x69736e75
  18:	64656e67 	0x64656e67
  1c:	746e6920 	jalx	1b9a480 <CheckSum32+0x1b99ee8>
  20:	74756d00 	jalx	1d5b400 <CheckSum32+0x1d5ae68>
  24:	74735f65 	jalx	1cd7d94 <CheckSum32+0x1cd77fc>
  28:	00657461 	0x657461
  2c:	55534552 	bnel	t2,s3,11578 <CheckSum32+0x10fe0>
  30:	525f544c 	beql	s2,ra,15164 <CheckSum32+0x14bcc>
  34:	4f494441 	c3	0x1494441
  38:	6f5f6700 	0x6f5f6700
  3c:	725f6174 	0x725f6174
  40:	6f747365 	0x6f747365
  44:	645f6572 	0x645f6572
  48:	00617461 	0x617461
  4c:	74697277 	jalx	1a5c9dc <CheckSum32+0x1a5c444>
  50:	6e695f65 	0x6e695f65
  54:	725f6f66 	0x725f6f66
  58:	63007465 	0x63007465
  5c:	755f7572 	jalx	57dd5c8 <CheckSum32+0x57dd030>
  60:	74616470 	jalx	18591c0 <CheckSum32+0x1858c28>
  64:	77660061 	jalx	d980184 <CheckSum32+0xd97fbec>
  68:	646f6d5f 	0x646f6d5f
  6c:	544f0065 	bnel	v0,t7,204 <.debug_str+0x204>
  70:	616d5f41 	0x616d5f41
  74:	636f6c6c 	0x636f6c6c
  78:	7261705f 	udi15	s3,at,t6,0x1
  7c:	745f6d61 	jalx	17db584 <CheckSum32+0x17dafec>
  80:	53455200 	beql	k0,a1,14884 <CheckSum32+0x142ec>
  84:	5f544c55 	0x5f544c55
  88:	5f425355 	0x5f425355
  8c:	4e415254 	c3	0x415254
  90:	45520053 	0x45520053
  94:	544c5553 	bnel	v0,t4,155e4 <CheckSum32+0x1504c>
  98:	59454b5f 	0x59454b5f
  9c:	4556455f 	0x4556455f
  a0:	525f544e 	beql	s2,ra,151dc <CheckSum32+0x14c44>
  a4:	41454445 	0x41454445
  a8:	59425f4c 	0x59425f4c
  ac:	4d4f435f 	0x4d4f435f
  b0:	004e4f4d 	break	0x4e,0x13d
  b4:	5f61746f 	0x5f61746f
  b8:	74697277 	jalx	1a5c9dc <CheckSum32+0x1a5c444>
  bc:	6e695f65 	0x6e695f65
  c0:	745f6f66 	jalx	17dbd98 <CheckSum32+0x17db800>
  c4:	65684300 	0x65684300
  c8:	75536b63 	jalx	54dad8c <CheckSum32+0x54da7f4>
  cc:	0032336d 	0x32336d
  d0:	55534552 	bnel	t2,s3,1161c <CheckSum32+0x11084>
  d4:	525f544c 	beql	s2,ra,15208 <CheckSum32+0x14c70>
  d8:	524f4345 	beql	s2,t7,10df0 <CheckSum32+0x10858>
  dc:	494d5f44 	0x494d5f44
  e0:	4f545f43 	c3	0x1545f43
  e4:	45520043 	0x45520043
  e8:	544c5553 	bnel	v0,t4,15638 <CheckSum32+0x150a0>
  ec:	4345525f 	c0	0x145525f
  f0:	5f44524f 	0x5f44524f
  f4:	5f43494d 	0x5f43494d
  f8:	00554f54 	0x554f54
  fc:	6b636162 	0x6b636162
 100:	6867696c 	0x6867696c
 104:	74735f74 	jalx	1cd7dd0 <CheckSum32+0x1cd7838>
 108:	00657461 	0x657461
 10c:	726f6873 	0x726f6873
 110:	6e752074 	0x6e752074
 114:	6e676973 	0x6e676973
 118:	69206465 	0x69206465
 11c:	7000746e 	0x7000746e
 120:	5f747261 	0x5f747261
 124:	657a6973 	0x657a6973
 128:	74616200 	jalx	1858800 <CheckSum32+0x1858268>
 12c:	6c61765f 	0x6c61765f
 130:	70006575 	0x70006575
 134:	5f747261 	0x5f747261
 138:	61746f74 	0x61746f74
 13c:	4552006c 	0x4552006c
 140:	544c5553 	bnel	v0,t4,15690 <CheckSum32+0x150f8>
 144:	414c415f 	0x414c415f
 148:	435f4d52 	c0	0x15f4d52
 14c:	45534f4c 	0x45534f4c
 150:	53455200 	beql	k0,a1,14954 <CheckSum32+0x143bc>
 154:	5f544c55 	0x5f544c55
 158:	554e414d 	bnel	t2,t6,10690 <CheckSum32+0x100f8>
 15c:	535f4c41 	beql	k0,ra,13264 <CheckSum32+0x12ccc>
 160:	43524145 	c0	0x1524145
 164:	50555f48 	beql	v0,s5,17e88 <CheckSum32+0x178f0>
 168:	53455200 	beql	k0,a1,1496c <CheckSum32+0x143d4>
 16c:	5f544c55 	0x5f544c55
 170:	45554c42 	0x45554c42
 174:	54454554 	bnel	v0,a1,116c8 <CheckSum32+0x11130>
 178:	4f535f48 	c3	0x1535f48
 17c:	00444e55 	0x444e55
 180:	74726977 	jalx	1c9a5dc <CheckSum32+0x1c9a044>
 184:	6e695f65 	0x6e695f65
 188:	63006f66 	0x63006f66
 18c:	665f7275 	0x665f7275
 190:	5f636e75 	0x5f636e75
 194:	65006469 	0x65006469
 198:	6e69676e 	0x6e69676e
 19c:	79745f65 	0x79745f65
 1a0:	77006570 	jalx	c0195c0 <CheckSum32+0xc019028>
 1a4:	65746972 	0x65746972
 1a8:	646f6d5f 	0x646f6d5f
 1ac:	5f700065 	0x5f700065
 1b0:	72656e65 	0x72656e65
 1b4:	765f7967 	jalx	97de59c <CheckSum32+0x97de004>
 1b8:	65756c61 	0x65756c61
 1bc:	53455200 	beql	k0,a1,149c0 <CheckSum32+0x14428>
 1c0:	5f544c55 	0x5f544c55
 1c4:	5f574f4c 	0x5f574f4c
 1c8:	45574f50 	0x45574f50
 1cc:	45520052 	0x45520052
 1d0:	544c5553 	bnel	v0,t4,15720 <CheckSum32+0x15188>
 1d4:	5345545f 	beql	k0,a1,15354 <CheckSum32+0x14dbc>
 1d8:	5f504154 	0x5f504154
 1dc:	54495551 	bnel	v0,t1,15724 <CheckSum32+0x1518c>
 1e0:	5f647500 	0x5f647500
 1e4:	00747461 	0x747461
 1e8:	544f5f67 	bnel	v0,t7,17f88 <CheckSum32+0x179f0>
 1ec:	61765f41 	0x61765f41
 1f0:	45520072 	0x45520072
 1f4:	544c5553 	bnel	v0,t4,15744 <CheckSum32+0x151ac>
 1f8:	414c415f 	0x414c415f
 1fc:	525f4d52 	beql	s2,ra,13748 <CheckSum32+0x131b0>
 200:	5f474e49 	0x5f474e49
 204:	444c4f46 	0x444c4f46
 208:	535f5245 	beql	k0,ra,14b20 <CheckSum32+0x14588>
 20c:	004e4143 	0x4e4143
 210:	74697277 	jalx	1a5c9dc <CheckSum32+0x1a5c444>
 214:	6e695f65 	0x6e695f65
 218:	6c006f66 	0x6c006f66
 21c:	5f747361 	0x5f747361
 220:	735f6975 	0x735f6975
 224:	75746174 	jalx	5d185d0 <CheckSum32+0x5d18038>
 228:	69750073 	0x69750073
 22c:	0038746e 	0x38746e
 230:	55534552 	bnel	t2,s3,1177c <CheckSum32+0x111e4>
 234:	535f544c 	beql	k0,ra,15368 <CheckSum32+0x14dd0>
 238:	454e4543 	0x454e4543
 23c:	4958455f 	0x4958455f
 240:	75630054 	jalx	58c0150 <CheckSum32+0x58bfbb8>
 244:	75665f72 	jalx	5997dc8 <CheckSum32+0x5997830>
 248:	695f636e 	0x695f636e
 24c:	7865646e 	0x7865646e
 250:	725f6700 	0x725f6700
 254:	6c5f7063 	0x6c5f7063
 258:	5f676e6f 	0x5f676e6f
 25c:	66667562 	0x66667562
 260:	52007265 	beqzl	s0,1cbf8 <CheckSum32+0x1c660>
 264:	4c555345 	0x4c555345
 268:	414d5f54 	0x414d5f54
 26c:	415f4e49 	0x415f4e49
 270:	70005050 	udi0	zero,zero,t2,0x1
 274:	5f747261 	0x5f747261
 278:	5f78616d 	0x5f78616d
 27c:	657a6973 	0x657a6973
 280:	53455200 	beql	k0,a1,14a84 <CheckSum32+0x144ec>
 284:	5f544c55 	0x5f544c55
 288:	5f535953 	0x5f535953
 28c:	5f47534d 	0x5f47534d
 290:	45444552 	0x45444552
 294:	425f4c41 	c0	0x5f4c41
 298:	4f435f59 	c3	0x1435f59
 29c:	4e4f4d4d 	c3	0x4f4d4d
 2a0:	53455200 	beql	k0,a1,14aa4 <CheckSum32+0x1450c>
 2a4:	5f544c55 	0x5f544c55
 2a8:	59414c50 	0x59414c50
 2ac:	4444535f 	0x4444535f
 2b0:	4449465f 	0x4449465f
 2b4:	52003631 	beqzl	s0,db7c <CheckSum32+0xd5e4>
 2b8:	4c555345 	0x4c555345
 2bc:	4c505f54 	0x4c505f54
 2c0:	535f5941 	beql	k0,ra,167c8 <CheckSum32+0x16230>
 2c4:	465f4444 	c1	0x5f4444
 2c8:	37314449 	ori	s1,t9,0x4449
 2cc:	53455200 	beql	k0,a1,14ad0 <CheckSum32+0x14538>
 2d0:	5f544c55 	0x5f544c55
 2d4:	59414c50 	0x59414c50
 2d8:	4444535f 	0x4444535f
 2dc:	4449465f 	0x4449465f
 2e0:	52003831 	beqzl	s0,e3a8 <CheckSum32+0xde10>
 2e4:	4c555345 	0x4c555345
 2e8:	4c505f54 	0x4c505f54
 2ec:	535f5941 	beql	k0,ra,167f4 <CheckSum32+0x1625c>
 2f0:	465f4444 	c1	0x5f4444
 2f4:	39314449 	xori	s1,t1,0x4449
 2f8:	70706100 	0x70706100
 2fc:	73616c5f 	udi15	k1,at,t5,0x11
 300:	74735f74 	jalx	1cd7dd0 <CheckSum32+0x1cd7838>
 304:	5f657461 	0x5f657461
 308:	45520074 	0x45520074
 30c:	544c5553 	bnel	v0,t4,1585c <CheckSum32+0x152c4>
 310:	4345525f 	c0	0x145525f
 314:	5f44524f 	0x5f44524f
 318:	414c5055 	0x414c5055
 31c:	45520059 	0x45520059
 320:	544c5553 	bnel	v0,t4,15870 <CheckSum32+0x152d8>
 324:	414c505f 	0x414c505f
 328:	44535f59 	0x44535f59
 32c:	49465f44 	0x49465f44
 330:	00303244 	0x303244
 334:	55534552 	bnel	t2,s3,11880 <CheckSum32+0x112e8>
 338:	505f544c 	beql	v0,ra,1546c <CheckSum32+0x14ed4>
 33c:	5f59414c 	0x5f59414c
 340:	5f444453 	0x5f444453
 344:	32444946 	andi	a0,s2,0x4946
 348:	45520031 	0x45520031
 34c:	544c5553 	bnel	v0,t4,1589c <CheckSum32+0x15304>
 350:	414c505f 	0x414c505f
 354:	44535f59 	0x44535f59
 358:	49465f44 	0x49465f44
 35c:	00333244 	0x333244
 360:	55534552 	bnel	t2,s3,118ac <CheckSum32+0x11314>
 364:	505f544c 	beql	v0,ra,15498 <CheckSum32+0x14f00>
 368:	5f59414c 	0x5f59414c
 36c:	5f444453 	0x5f444453
 370:	32444946 	andi	a0,s2,0x4946
 374:	45520034 	0x45520034
 378:	544c5553 	bnel	v0,t4,158c8 <CheckSum32+0x15330>
 37c:	414c505f 	0x414c505f
 380:	44535f59 	0x44535f59
 384:	49465f44 	0x49465f44
 388:	00353244 	0x353244
 38c:	65735f67 	0x65735f67
 390:	655f646e 	0x655f646e
 394:	5f746978 	0x5f746978
 398:	5f6d6d6d 	0x5f6d6d6d
 39c:	00737474 	teq	v1,s3,0x1d1
 3a0:	55534552 	bnel	t2,s3,118ec <CheckSum32+0x11354>
 3a4:	4e5f544c 	c3	0x5f544c
 3a8:	004c4c55 	0x4c4c55
 3ac:	544e4955 	bnel	v0,t6,12904 <CheckSum32+0x1236c>
 3b0:	6c003631 	0x6c003631
 3b4:	20676e6f 	addi	a3,v1,28271
 3b8:	69736e75 	0x69736e75
 3bc:	64656e67 	0x64656e67
 3c0:	746e6920 	jalx	1b9a480 <CheckSum32+0x1b99ee8>
 3c4:	6e697200 	0x6e697200
 3c8:	6c615f67 	0x6c615f67
 3cc:	006d7261 	0x6d7261
 3d0:	5f61746f 	0x5f61746f
 3d4:	6e696b62 	0x6e696b62
 3d8:	745f6f66 	jalx	17dbd98 <CheckSum32+0x17db800>
 3dc:	74657200 	jalx	195c800 <CheckSum32+0x195c268>
 3e0:	6c61765f 	0x6c61765f
 3e4:	53455200 	beql	k0,a1,14be8 <CheckSum32+0x14650>
 3e8:	5f544c55 	0x5f544c55
 3ec:	5f444948 	0x5f444948
 3f0:	444e4553 	0x444e4553
 3f4:	59454b5f 	0x59454b5f
 3f8:	4556455f 	0x4556455f
 3fc:	7200544e 	0x7200544e
 400:	6f6f6265 	0x6f6f6265
 404:	6c665f74 	0x6c665f74
 408:	45520067 	0x45520067
 40c:	544c5553 	bnel	v0,t4,1595c <CheckSum32+0x153c4>
 410:	4253555f 	c0	0x53555f
 414:	554f535f 	bnel	t2,t7,15194 <CheckSum32+0x14bfc>
 418:	5500444e 	bnezl	t0,11554 <CheckSum32+0x10fbc>
 41c:	33544e49 	andi	s4,k0,0x4e49
 420:	6f630032 	0x6f630032
 424:	63656e6e 	0x63656e6e
 428:	74735f74 	jalx	1cd7dd0 <CheckSum32+0x1cd7838>
 42c:	00657461 	0x657461
 430:	735f6975 	0x735f6975
 434:	75746174 	jalx	5d185d0 <CheckSum32+0x5d18038>
 438:	632f0073 	0x632f0073
 43c:	72646779 	0x72646779
 440:	2f657669 	sltiu	a1,k1,30313
 444:	63612f64 	0x63612f64
 448:	6e6f6974 	0x6e6f6974
 44c:	74732f73 	jalx	1ccbdcc <CheckSum32+0x1ccb834>
 450:	6b647364 	0x6b647364
 454:	5f70752f 	0x5f70752f
 458:	33323832 	andi	s2,t9,0x3832
 45c:	6f635f62 	0x6f635f62
 460:	752f6564 	jalx	4bd9590 <CheckSum32+0x4bd8ff8>
 464:	32383273 	andi	t8,s1,0x3273
 468:	31765f61 	andi	s6,t3,0x5f61
 46c:	2f706d37 	sltiu	s0,k1,27959
 470:	65736163 	0x65736163
 474:	2f70612f 	sltiu	s0,k1,24879
 478:	6d6d6f63 	0x6d6d6f63
 47c:	632f6e6f 	0x632f6e6f
 480:	6f6d6d6f 	0x6f6d6d6f
 484:	746f5f6e 	jalx	1bd7db8 <CheckSum32+0x1bd7820>
 488:	45520061 	0x45520061
 48c:	544c5553 	bnel	v0,t4,159dc <CheckSum32+0x15444>
 490:	4341425f 	c0	0x141425f
 494:	43535f4b 	c0	0x1535f4b
 498:	5f454e45 	0x5f454e45
 49c:	50534944 	beql	v0,s3,129b0 <CheckSum32+0x12418>
 4a0:	48435441 	0x48435441
 4a4:	776f7000 	jalx	dbdc000 <CheckSum32+0xdbdba68>
 4a8:	6f5f7265 	0x6f5f7265
 4ac:	6c665f6e 	0x6c665f6e
 4b0:	75006761 	jalx	4019d84 <CheckSum32+0x40197ec>
 4b4:	6769736e 	0x6769736e
 4b8:	2064656e 	addi	a0,v1,25966
 4bc:	72616863 	0x72616863
 4c0:	72617000 	0x72617000
 4c4:	666f5f74 	0x666f5f74
 4c8:	74657366 	jalx	195cd98 <CheckSum32+0x195c800>
 4cc:	53455200 	beql	k0,a1,14cd0 <CheckSum32+0x14738>
 4d0:	5f544c55 	0x5f544c55
 4d4:	5f505041 	0x5f505041
 4d8:	54495551 	bnel	v0,t1,15a20 <CheckSum32+0x15488>
 4dc:	6f6c6600 	0x6f6c6600
 4e0:	52007461 	beqzl	s0,1d668 <CheckSum32+0x1d0d0>
 4e4:	4c555345 	0x4c555345
 4e8:	4c425f54 	0x4c425f54
 4ec:	45544555 	0x45544555
 4f0:	5f485445 	0x5f485445
 4f4:	4c4c4143 	0x4c4c4143
 4f8:	6e6f6c00 	0x6e6f6c00
 4fc:	6f6c2067 	0x6f6c2067
 500:	6920676e 	0x6920676e
 504:	6700746e 	0x6700746e
 508:	5f6f6e5f 	0x5f6f6e5f
 50c:	70707573 	0x70707573
 510:	5f74726f 	0x5f74726f
 514:	5f737474 	0x5f737474
 518:	67616c66 	0x67616c66
 51c:	53455200 	beql	k0,a1,14d20 <CheckSum32+0x14788>
 520:	5f544c55 	0x5f544c55
 524:	4c414944 	0x4c414944
 528:	525f474f 	beql	s2,ra,12268 <CheckSum32+0x11cd0>
 52c:	59525445 	0x59525445
 530:	75747300 	jalx	5d1cc00 <CheckSum32+0x5d1c668>
 534:	6f745f62 	0x6f745f62
 538:	5f736c6f 	0x5f736c6f
 53c:	65707974 	0x65707974
 540:	53455200 	beql	k0,a1,14d44 <CheckSum32+0x147ac>
 544:	5f544c55 	0x5f544c55
 548:	4953554d 	0x4953554d
 54c:	50555f43 	beql	v0,s5,1825c <CheckSum32+0x17cc4>
 550:	0059414c 	syscall	0x16505
 554:	7473616c 	jalx	1cd85b0 <CheckSum32+0x1cd8018>
 558:	7369645f 	udi15	k1,t1,t4,0x11
 55c:	6556006b 	0x6556006b
 560:	6f697372 	0x6f697372
 564:	4e47006e 	c3	0x47006e
 568:	20432055 	addi	v1,v0,8277
 56c:	2e342e33 	sltiu	s4,s1,11827
 570:	696d2034 	0x696d2034
 574:	64737370 	0x64737370
 578:	2e362d65 	sltiu	s6,s1,11621
 57c:	302e3630 	andi	t6,at,0x3630
 580:	30322d31 	andi	s2,at,0x2d31
 584:	34303730 	ori	s0,at,0x3730
 588:	73003032 	0x73003032
 58c:	5f627574 	0x5f627574
 590:	5f796870 	0x5f796870
 594:	65707974 	0x65707974
 598:	74616400 	jalx	1859000 <CheckSum32+0x1858a68>
 59c:	75625f61 	jalx	5897d84 <CheckSum32+0x58977ec>
 5a0:	72656666 	0x72656666
 5a4:	61686300 	0x61686300
 5a8:	5f656772 	0x5f656772
 5ac:	74617473 	jalx	185d1cc <CheckSum32+0x185cc34>
 5b0:	45520065 	0x45520065
 5b4:	544c5553 	bnel	v0,t4,15b04 <CheckSum32+0x1556c>
 5b8:	4345525f 	c0	0x145525f
 5bc:	5f44524f 	0x5f44524f
 5c0:	454e494c 	0x454e494c
 5c4:	545f4e49 	bnel	v0,ra,13eec <CheckSum32+0x13954>
 5c8:	5200434f 	beqzl	s0,11308 <CheckSum32+0x10d70>
 5cc:	4c555345 	0x4c555345
 5d0:	43525f54 	c0	0x1525f54
 5d4:	434c5f50 	c0	0x14c5f50
 5d8:	4941575f 	0x4941575f
 5dc:	45520054 	0x45520054
 5e0:	544c5553 	bnel	v0,t4,15b30 <CheckSum32+0x15598>
 5e4:	4345525f 	c0	0x145525f
 5e8:	5f44524f 	0x5f44524f
 5ec:	454e494c 	0x454e494c
 5f0:	545f4e49 	bnel	v0,ra,13f18 <CheckSum32+0x13980>
 5f4:	6300554f 	0x6300554f
 5f8:	676e6168 	0x676e6168
 5fc:	70615f65 	0x70615f65
 600:	45520070 	0x45520070
 604:	544c5553 	bnel	v0,t4,15b54 <CheckSum32+0x155bc>
 608:	4149445f 	0x4149445f
 60c:	5f474f4c 	0x5f474f4c
 610:	5f425355 	0x5f425355
 614:	4e554f53 	c3	0x554f53
 618:	61630044 	0x61630044
 61c:	735f6472 	0x735f6472
 620:	65746174 	0x65746174
 624:	5f774600 	0x5f774600
 628:	5f726556 	0x5f726556
 62c:	746f0074 	jalx	1bc01d0 <CheckSum32+0x1bbfc38>
 630:	65725f61 	0x65725f61
 634:	76696563 	jalx	9a5958c <CheckSum32+0x9a58ff4>
 638:	6f635f65 	0x6f635f65
 63c:	63656e6e 	0x63656e6e
 640:	61645f74 	0x61645f74
 644:	67006174 	0x67006174
 648:	7572635f 	jalx	5c98d7c <CheckSum32+0x5c987e4>
 64c:	6361705f 	0x6361705f
 650:	6f635f6b 	0x6f635f6b
 654:	00746e75 	0x746e75
 658:	74726170 	jalx	1c985c0 <CheckSum32+0x1c98028>
 65c:	0064695f 	0x64695f
 660:	5f6b7061 	0x5f6b7061
 664:	646e6573 	0x646e6573
 668:	6b61705f 	0x6b61705f
 66c:	6d756e5f 	0x6d756e5f
 670:	53455200 	beql	k0,a1,14e74 <CheckSum32+0x148dc>
 674:	5f544c55 	0x5f544c55
 678:	4c414944 	0x4c414944
 67c:	4f5f474f 	c3	0x15f474f
 680:	5f594c4e 	0x5f594c4e
 684:	52414843 	beql	s2,at,12794 <CheckSum32+0x121fc>
 688:	68004547 	0x68004547
 68c:	74735f70 	jalx	1cd7dc0 <CheckSum32+0x1cd7828>
 690:	00657461 	0x657461
 694:	6d776f64 	0x6d776f64
 698:	64616f6c 	0x64616f6c
 69c:	6174735f 	0x6174735f
 6a0:	00657574 	teq	v1,a1,0x1d5
 6a4:	61647075 	0x61647075
 6a8:	735f6174 	0x735f6174
 6ac:	75746174 	jalx	5d185d0 <CheckSum32+0x5d18038>
 6b0:	45520065 	0x45520065
 6b4:	544c5553 	bnel	v0,t4,15c04 <CheckSum32+0x1566c>
 6b8:	4f54535f 	c3	0x154535f
 6bc:	45535f50 	0x45535f50
 6c0:	48435241 	0x48435241
 6c4:	746e6900 	jalx	1b9a400 <CheckSum32+0x1b99e68>
 6c8:	67003233 	0x67003233
 6cc:	6968745f 	0x6968745f
 6d0:	70615f73 	0x70615f73
 6d4:	69745f70 	0x69745f70
 6d8:	5f72656d 	0x5f72656d
 6dc:	00676174 	teq	v1,a3,0x185
 6e0:	5f707061 	0x5f707061
 6e4:	6f666e69 	0x6f666e69
 6e8:	6174735f 	0x6174735f
 6ec:	615f6574 	0x615f6574
 6f0:	745f6c6c 	jalx	17db1b0 <CheckSum32+0x17dac18>
 6f4:	6d6f6300 	0x6d6f6300
 6f8:	74656c70 	jalx	195b1c0 <CheckSum32+0x195ac28>
 6fc:	65735f65 	0x65735f65
 700:	6e5f646e 	0x6e5f646e
 704:	70006d75 	0x70006d75
 708:	5f747261 	0x5f747261
 70c:	6f666e69 	0x6f666e69
 710:	544e4900 	bnel	v0,t6,12b14 <CheckSum32+0x1257c>
 714:	63005538 	0x63005538
 718:	656e6e6f 	0x656e6e6f
 71c:	6d5f7463 	0x6d5f7463
 720:	61737365 	0x61737365
 724:	745f6567 	jalx	17d959c <CheckSum32+0x17d9004>
 728:	53455200 	beql	k0,a1,14f2c <CheckSum32+0x14994>
 72c:	5f544c55 	0x5f544c55
 730:	45544e45 	0x45544e45
 734:	50555f52 	beql	v0,s5,18480 <CheckSum32+0x17ee8>
 738:	44415247 	0x44415247
 73c:	45520045 	0x45520045
 740:	544c5553 	bnel	v0,t4,15c90 <CheckSum32+0x156f8>
 744:	4e4f4e5f 	c3	0x4f4e5f
 748:	56455f45 	bnel	s2,a1,18460 <CheckSum32+0x17ec8>
 74c:	00544e45 	0x544e45
 750:	6f635f67 	0x6f635f67
 754:	63656e6e 	0x63656e6e
 758:	65725f74 	0x65725f74
 75c:	52007970 	beqzl	s0,1ed20 <CheckSum32+0x1e788>
 760:	4c555345 	0x4c555345
 764:	4c505f54 	0x4c505f54
 768:	535f5941 	beql	k0,ra,16c70 <CheckSum32+0x166d8>
 76c:	465f4444 	c1	0x5f4444
 770:	32324449 	andi	s2,s1,0x4449
 774:	53455200 	beql	k0,a1,14f78 <CheckSum32+0x149e0>
 778:	5f544c55 	0x5f544c55
 77c:	4953554d 	0x4953554d
 780:	4c505f43 	0x4c505f43
 784:	6f005941 	0x6f005941
 788:	775f6174 	jalx	d7d85d0 <CheckSum32+0xd7d8038>
 78c:	65746972 	0x65746972
 790:	6574695f 	0x6574695f
 794:	00745f6d 	0x745f6d
 798:	63656843 	0x63656843
 79c:	6d75536b 	0x6d75536b
 7a0:	72003631 	0x72003631
 7a4:	72657365 	0x72657365
 7a8:	00646576 	tne	v1,a0,0x195
 7ac:	75635f67 	jalx	58d7d9c <CheckSum32+0x58d7804>
 7b0:	65725f72 	0x65725f72
 7b4:	74735f63 	jalx	1cd7d8c <CheckSum32+0x1cd77f4>
 7b8:	00657461 	0x657461
 7bc:	65747865 	0x65747865
 7c0:	625f6e72 	0x625f6e72
 7c4:	695f7461 	0x695f7461
 7c8:	5f67006e 	0x5f67006e
 7cc:	5f707061 	0x5f707061
 7d0:	6f666e69 	0x6f666e69
 7d4:	6174735f 	0x6174735f
 7d8:	615f6574 	0x615f6574
 7dc:	52006c6c 	beqzl	s0,1b990 <CheckSum32+0x1b3f8>
 7e0:	4c555345 	0x4c555345
 7e4:	44495f54 	0x44495f54
 7e8:	4d5f454c 	0x4d5f454c
 7ec:	0045444f 	0x45444f
 7f0:	6e756f73 	0x6e756f73
 7f4:	74735f64 	jalx	1cd7d90 <CheckSum32+0x1cd77f8>
 7f8:	00657461 	0x657461
 7fc:	55534552 	bnel	t2,s3,11d48 <CheckSum32+0x117b0>
 800:	435f544c 	c0	0x15f544c
 804:	49464e4f 	0x49464e4f
 808:	48435f47 	0x48435f47
 80c:	45475241 	0x45475241
 810:	4955515f 	0x4955515f
 814:	616d0054 	0x616d0054
 818:	00636967 	0x636967
 81c:	38667562 	xori	a2,v1,0x7562
 820:	53455200 	beql	k0,a1,15024 <CheckSum32+0x14a8c>
 824:	5f544c55 	0x5f544c55
 828:	45554c42 	0x45554c42
 82c:	54454554 	bnel	v0,a1,11d80 <CheckSum32+0x117e8>
 830:	41435f48 	0x41435f48
 834:	425f4c4c 	c0	0x5f4c4c
 838:	474b4341 	c1	0x14b4341
 83c:	4e554f52 	c3	0x554f52
 840:	70610044 	0x70610044
 844:	65725f70 	0x65725f70
 848:	746c7573 	jalx	1b1d5cc <CheckSum32+0x1b1d034>
 84c:	7700655f 	jalx	c01957c <CheckSum32+0xc018fe4>
 850:	65746972 	0x65746972
 854:	7261705f 	udi15	s3,at,t6,0x1
 858:	62006d61 	0x62006d61
 85c:	6f705f74 	0x6f705f74
 860:	5f726577 	0x5f726577
 864:	63006e6f 	0x63006e6f
 868:	705f7572 	0x705f7572
 86c:	5f6b6361 	0x5f6b6361
 870:	6e756f63 	0x6e756f63
 874:	696c0074 	0x696c0074
 878:	6e69656e 	0x6e69656e
 87c:	6174735f 	0x6174735f
 880:	73006574 	0x73006574
 884:	656e6769 	0x656e6769
 888:	68632064 	0x68632064
 88c:	52007261 	beqzl	s0,1d214 <CheckSum32+0x1cc7c>
 890:	4c555345 	0x4c555345
 894:	45525f54 	0x45525f54
 898:	44524f43 	0x44524f43
 89c:	4c50435f 	0x4c50435f
 8a0:	67005941 	0x67005941
 8a4:	7070615f 	udi15	v1,s0,t4,0x5
 8a8:	666e695f 	0x666e695f
 8ac:	74735f6f 	jalx	1cd7dbc <CheckSum32+0x1cd7824>
 8b0:	00657461 	0x657461
 8b4:	645f7766 	0x645f7766
 8b8:	6c6e776f 	0x6c6e776f
 8bc:	5f64616f 	0x5f64616f
 8c0:	0077656e 	0x77656e
 8c4:	55534552 	bnel	t2,s3,11e10 <CheckSum32+0x11878>
 8c8:	535f544c 	beql	k0,ra,159fc <CheckSum32+0x15464>
 8cc:	45545359 	0x45545359
 8d0:	58455f4d 	0x58455f4d
 8d4:	535f5449 	beql	k0,ra,159fc <CheckSum32+0x15464>
 8d8:	61720033 	0x61720033
 8dc:	6d6f646e 	0x6d6f646e
 8e0:	6770755f 	0x6770755f
 8e4:	79656b5f 	0x79656b5f
 8e8:	676e6500 	0x676e6500
 8ec:	5f656e69 	0x5f656e69
 8f0:	74617473 	jalx	185d1cc <CheckSum32+0x185cc34>
 8f4:	45520065 	0x45520065
 8f8:	544c5553 	bnel	v0,t4,15e48 <CheckSum32+0x158b0>
 8fc:	544e455f 	bnel	v0,t6,11e7c <CheckSum32+0x118e4>
 900:	415f5245 	0x415f5245
 904:	4d52414c 	0x4d52414c
 908:	53455200 	beql	k0,a1,1510c <CheckSum32+0x14b74>
 90c:	5f544c55 	0x5f544c55
 910:	4c414944 	0x4c414944
 914:	495f474f 	0x495f474f
 918:	524f4e47 	beql	s2,t7,14238 <CheckSum32+0x13ca0>
 91c:	69660045 	0x69660045
 920:	61735f78 	0x61735f78
 924:	656c706d 	0x656c706d
 928:	7461725f 	jalx	185c97c <CheckSum32+0x185c3e4>
 92c:	6c665f65 	0x6c665f65
 930:	52006761 	beqzl	s0,1a6b8 <CheckSum32+0x1a120>
 934:	4c555345 	0x4c555345
 938:	52455f54 	beql	s2,a1,1868c <CheckSum32+0x180f4>
 93c:	00524f52 	0x524f52
 940:	55534552 	bnel	t2,s3,11e8c <CheckSum32+0x118f4>
 944:	505f544c 	beql	v0,ra,15a78 <CheckSum32+0x154e0>
 948:	5245574f 	beql	s2,a1,16688 <CheckSum32+0x160f0>
 94c:	46464f5f 	c1	0x464f5f
 950:	53455200 	beql	k0,a1,15154 <CheckSum32+0x14bbc>
 954:	5f544c55 	0x5f544c55
 958:	4c414944 	0x4c414944
 95c:	595f474f 	0x595f474f
 960:	52005345 	beqzl	s0,15678 <CheckSum32+0x150e0>
 964:	4c555345 	0x4c555345
 968:	49445f54 	0x49445f54
 96c:	474f4c41 	c1	0x14f4c41
 970:	4f42415f 	c3	0x142415f
 974:	67005452 	0x67005452
 978:	6e65735f 	0x6e65735f
 97c:	72655f64 	0x72655f64
 980:	635f6f72 	0x635f6f72
 984:	746e756f 	jalx	1b9d5bc <CheckSum32+0x1b9d024>
 988:	6e6f6c00 	0x6e6f6c00
 98c:	6e692067 	0x6e692067
 990:	45520074 	0x45520074
 994:	544c5553 	bnel	v0,t4,15ee4 <CheckSum32+0x1594c>
 998:	58454e5f 	0x58454e5f
 99c:	55465f54 	bnel	t2,a2,186f0 <CheckSum32+0x18158>
 9a0:	4954434e 	0x4954434e
 9a4:	52004e4f 	beqzl	s0,142e4 <CheckSum32+0x13d4c>
 9a8:	4c555345 	0x4c555345
 9ac:	554d5f54 	bnel	t2,t5,18700 <CheckSum32+0x18168>
 9b0:	5f434953 	0x5f434953
 9b4:	414c5043 	0x414c5043
 9b8:	6e650059 	0x6e650059
 9bc:	72697571 	0x72697571
 9c0:	656d5f79 	0x656d5f79
 9c4:	67617373 	0x67617373
 9c8:	00745f65 	0x745f65
 9cc:	55534552 	bnel	t2,s3,11f18 <CheckSum32+0x11980>
 9d0:	525f544c 	beql	s2,ra,15b04 <CheckSum32+0x1556c>
 9d4:	524f4345 	beql	s2,t7,116ec <CheckSum32+0x11154>
 9d8:	4d465f44 	0x4d465f44
 9dc:	434f545f 	c0	0x14f545f
 9e0:	725f6700 	0x725f6700
 9e4:	796c7065 	0x796c7065
 9e8:	696b625f 	0x696b625f
 9ec:	006f666e 	0x6f666e
 9f0:	55534552 	bnel	t2,s3,11f3c <CheckSum32+0x119a4>
 9f4:	525f544c 	beql	s2,ra,15b28 <CheckSum32+0x15590>
 9f8:	524f4345 	beql	s2,t7,11710 <CheckSum32+0x11178>
 9fc:	4d465f44 	0x4d465f44
 a00:	554f545f 	bnel	t2,t7,15b80 <CheckSum32+0x155e8>
 a04:	61744f00 	0x61744f00
 a08:	7063725f 	udi15	v1,v1,t6,0x9
 a0c:	635f735f 	0x635f735f
 a10:	645f646d 	0x645f646d
 a14:	2e6c6165 	sltiu	t4,s3,24933
 a18:	61700063 	0x61700063
 a1c:	646f6d5f 	0x646f6d5f
 a20:	74730065 	jalx	1cc0194 <CheckSum32+0x1cbfbfc>
 a24:	705f6275 	0x705f6275
 a28:	6f745f63 	0x6f745f63
 a2c:	5f736c6f 	0x5f736c6f
 a30:	65707974 	0x65707974
 a34:	53455200 	beql	k0,a1,15238 <CheckSum32+0x14ca0>
 a38:	5f544c55 	0x5f544c55
 a3c:	4d4d4f43 	0x4d4d4f43
 a40:	525f4e4f 	beql	s2,ra,14380 <CheckSum32+0x13de8>
 a44:	52455345 	beql	s2,a1,1575c <CheckSum32+0x151c4>
 a48:	72004556 	udi6	s0,zero,t0,0x15
 a4c:	72657365 	0x72657365
 a50:	75006476 	jalx	40191d8 <CheckSum32+0x4018c40>
 a54:	31746e69 	andi	s4,t3,0x6e69
 a58:	616c0036 	0x616c0036
 a5c:	665f7473 	0x665f7473
 a60:	5f636e75 	0x5f636e75
 a64:	65646e69 	0x65646e69
 a68:	45520078 	0x45520078
 a6c:	544c5553 	bnel	v0,t4,15fbc <CheckSum32+0x15a24>
 a70:	544e455f 	bnel	v0,t6,11ff0 <CheckSum32+0x11a58>
 a74:	4f5f5245 	c3	0x15f5245
 a78:	535f4154 	beql	k0,ra,10fcc <CheckSum32+0x10a34>
 a7c:	5f474e4f 	0x5f474e4f
 a80:	54534554 	bnel	v0,s3,11fd4 <CheckSum32+0x11a3c>
 a84:	61686300 	0x61686300
 a88:	6f630072 	0x6f630072
 a8c:	63656e6e 	0x63656e6e
 a90:	65725f74 	0x65725f74
 a94:	5f796c70 	0x5f796c70
 a98:	61630074 	0x61630074
 a9c:	5f656c62 	0x5f656c62
 aa0:	74617473 	jalx	185d1cc <CheckSum32+0x185cc34>
 aa4:	69750065 	0x69750065
 aa8:	3233746e 	andi	s3,s1,0x746e
 aac:	655f7000 	0x655f7000
 ab0:	6772656e 	0x6772656e
 ab4:	61765f79 	0x61765f79
 ab8:	5f65756c 	0x5f65756c
 abc:	71657266 	0x71657266
 ac0:	45520073 	0x45520073
 ac4:	544c5553 	bnel	v0,t4,16014 <CheckSum32+0x15a7c>
 ac8:	544e455f 	bnel	v0,t6,12048 <CheckSum32+0x11ab0>
 acc:	535f5245 	beql	k0,ra,153e4 <CheckSum32+0x14e4c>
 ad0:	5f425554 	0x5f425554
 ad4:	55424544 	bnel	t2,v0,11fe8 <CheckSum32+0x11a50>
 ad8:	61700047 	0x61700047
 adc:	635f6b63 	0x635f6b63
 ae0:	746e756f 	jalx	1b9d5bc <CheckSum32+0x1b9d024>
 ae4:	6b706100 	0x6b706100
 ae8:	6174735f 	0x6174735f
 aec:	00737574 	teq	v1,s3,0x1d5
 af0:	55534552 	bnel	t2,s3,1203c <CheckSum32+0x11aa4>
 af4:	495f544c 	0x495f544c
 af8:	524f4e47 	beql	s2,t7,14418 <CheckSum32+0x13e80>
 afc:	756f0045 	jalx	5bc0114 <CheckSum32+0x5bbfb7c>
 b00:	5f726574 	0x5f726574
 b04:	6f5f6170 	0x6f5f6170
 b08:	746f006e 	jalx	1bc01b8 <CheckSum32+0x1bbfc20>
 b0c:	72775f61 	0x72775f61
 b10:	5f657469 	0x5f657469
 b14:	61726170 	0x61726170
 b18:	00745f6d 	0x745f6d
 b1c:	55534552 	bnel	t2,s3,12068 <CheckSum32+0x11ad0>
 b20:	455f544c 	0x455f544c
 b24:	5245544e 	beql	s2,a1,15c60 <CheckSum32+0x156c8>
 b28:	4553555f 	0x4553555f
 b2c:	6f003152 	0x6f003152
 b30:	725f6174 	0x725f6174
 b34:	69656365 	0x69656365
 b38:	765f6576 	jalx	97d95d8 <CheckSum32+0x97d9040>
 b3c:	5f6d6172 	0x5f6d6172
 b40:	61746164 	0x61746164
 b44:	756f6100 	jalx	5bd8400 <CheckSum32+0x5bd7e68>
 b48:	6f6d5f74 	0x6f6d5f74
 b4c:	67006564 	0x67006564
 b50:	5f70685f 	0x5f70685f
 b54:	5f64656c 	0x5f64656c
 b58:	74617473 	jalx	185d1cc <CheckSum32+0x185cc34>
 b5c:	74730065 	jalx	1cc0194 <CheckSum32+0x1cbfbfc>
 b60:	6d5f6275 	0x6d5f6275
 b64:	5f65646f 	0x5f65646f
 b68:	67616c66 	0x67616c66
 b6c:	53455200 	beql	k0,a1,15370 <CheckSum32+0x14dd8>
 b70:	5f544c55 	0x5f544c55
 b74:	5453414c 	bnel	v0,s3,110a8 <CheckSum32+0x10b10>
 b78:	59414c50 	0x59414c50
 b7c:	74616200 	jalx	1858800 <CheckSum32+0x1858268>
 b80:	79726574 	0x79726574
 b84:	7065725f 	udi15	v1,a1,t6,0x9
 b88:	5f74726f 	0x5f74726f
 b8c:	62616e65 	0x62616e65
 b90:	6400656c 	0x6400656c
 b94:	6c62756f 	0x6c62756f
 b98:	45520065 	0x45520065
 b9c:	544c5553 	bnel	v0,t4,160ec <CheckSum32+0x15b54>
 ba0:	4e4f435f 	c3	0x4f435f
 ba4:	5f474946 	0x5f474946
 ba8:	52414843 	beql	s2,at,12cb8 <CheckSum32+0x12720>
 bac:	63004547 	0x63004547
 bb0:	656e6e6f 	0x656e6e6f
 bb4:	6d5f7463 	0x6d5f7463
 bb8:	64006773 	0x64006773
 bbc:	31617461 	andi	at,t3,0x7461
 bc0:	74616400 	jalx	1859000 <CheckSum32+0x1858a68>
 bc4:	64003261 	0x64003261
 bc8:	00617461 	0x617461
 bcc:	61625f67 	0x61625f67
 bd0:	70756b63 	0x70756b63
 bd4:	7261705f 	udi15	s3,at,t6,0x1
 bd8:	64615f74 	0x64615f74
 bdc:	52007264 	beqzl	s0,1d570 <CheckSum32+0x1cfd8>
 be0:	4c555345 	0x4c555345
 be4:	49445f54 	0x49445f54
 be8:	474f4c41 	c1	0x14f4c41
 bec:	004f4e5f 	0x4f4e5f
 bf0:	5f61746f 	0x5f61746f
 bf4:	65636572 	0x65636572
 bf8:	5f657669 	0x5f657669
 bfc:	61746164 	0x61746164
 c00:	53455200 	beql	k0,a1,15404 <CheckSum32+0x14e6c>
 c04:	5f544c55 	0x5f544c55
 c08:	43524f46 	c0	0x1524f46
 c0c:	54545f45 	bnel	v0,s4,18924 <CheckSum32+0x1838c>
 c10:	54535f53 	bnel	v0,s3,18960 <CheckSum32+0x183c8>
 c14:	6400504f 	0x6400504f
 c18:	5f617461 	0x5f617461
 c1c:	006e656c 	0x6e656c
 c20:	55534552 	bnel	t2,s3,1216c <CheckSum32+0x11bd4>
 c24:	445f544c 	0x445f544c
 c28:	4f4c4149 	c3	0x14c4149
 c2c:	4b4f5f47 	c2	0x14f5f47
 c30:	73777400 	0x73777400
 c34:	6e6f635f 	0x6e6f635f
 c38:	7463656e 	jalx	18d95b8 <CheckSum32+0x18d9020>
 c3c:	6174735f 	0x6174735f
 c40:	655f7000 	0x655f7000
 c44:	6772656e 	0x6772656e
 c48:	61765f79 	0x61765f79
 c4c:	5f65756c 	0x5f65756c
 c50:	646e6162 	0x646e6162
 c54:	6f6c0073 	0x6f6c0073
 c58:	6c20676e 	0x6c20676e
 c5c:	20676e6f 	addi	a3,v1,28271
 c60:	69736e75 	0x69736e75
 c64:	64656e67 	0x64656e67
 c68:	746e6920 	jalx	1b9a480 <CheckSum32+0x1b99ee8>
 c6c:	6e6e6900 	0x6e6e6900
 c70:	705f7265 	0x705f7265
 c74:	6e695f61 	0x6e695f61
 c78:	64657469 	0x64657469
 c7c:	53455200 	beql	k0,a1,15480 <CheckSum32+0x14ee8>
 c80:	5f544c55 	0x5f544c55
 c84:	5f445345 	0x5f445345
 c88:	54534552 	bnel	v0,s3,121d4 <CheckSum32+0x11c3c>
 c8c:	00545241 	0x545241
 c90:	55534552 	bnel	t2,s3,121dc <CheckSum32+0x11c44>
 c94:	455f544c 	0x455f544c
 c98:	5245544e 	beql	s2,a1,15dd4 <CheckSum32+0x1583c>
 c9c:	41544f5f 	0x41544f5f
 ca0:	4750555f 	c1	0x150555f
 ca4:	45444152 	0x45444152
 ca8:	63657200 	0x63657200
 cac:	7461645f 	jalx	185917c <CheckSum32+0x1858be4>
 cb0:	74735f61 	jalx	1cd7d84 <CheckSum32+0x1cd77ec>
 cb4:	00657461 	0x657461
 cb8:	63656863 	0x63656863
 cbc:	6d75736b 	0x6d75736b
 cc0:	73657200 	0x73657200
 cc4:	65726f74 	0x65726f74
 cc8:	6572625f 	0x6572625f
 ccc:	6f706b61 	0x6f706b61
 cd0:	5f746e69 	0x5f746e69
 cd4:	45520074 	0x45520074
 cd8:	544c5553 	bnel	v0,t4,16228 <CheckSum32+0x15c90>
 cdc:	544e455f 	bnel	v0,t6,1225c <CheckSum32+0x11cc4>
 ce0:	415f5245 	0x415f5245
 ce4:	5f545153 	0x5f545153
 ce8:	545f4648 	bnel	v0,ra,1260c <CheckSum32+0x12074>
 cec:	00545345 	0x545345
 cf0:	63656863 	0x63656863
 cf4:	656c5f6b 	0x656c5f6b
 cf8:	4552006e 	0x4552006e
 cfc:	544c5553 	bnel	v0,t4,1624c <CheckSum32+0x15cb4>
 d00:	544e455f 	bnel	v0,t6,12280 <CheckSum32+0x11ce8>
 d04:	4c5f5245 	0x4c5f5245
 d08:	49454e49 	0x49454e49
 d0c:	6172004e 	0x6172004e
 d10:	6d6f646e 	0x6d6f646e
 d14:	6770755f 	0x6770755f
 d18:	6c61765f 	0x6c61765f
 d1c:	53455200 	beql	k0,a1,15520 <CheckSum32+0x14f88>
 d20:	5f544c55 	0x5f544c55
 d24:	4c414944 	0x4c414944
 d28:	435f474f 	c0	0x15f474f
 d2c:	45434e41 	0x45434e41
 d30:	4552004c 	0x4552004c
 d34:	544c5553 	bnel	v0,t4,16284 <CheckSum32+0x15cec>
 d38:	4149445f 	0x4149445f
 d3c:	5f474f4c 	0x5f474f4c
 d40:	434e4143 	c0	0x14e4143
 d44:	415f4c45 	0x415f4c45
 d48:	004f5455 	0x4f5455
 d4c:	5f707061 	0x5f707061
 d50:	6f666e69 	0x6f666e69
 d54:	6174735f 	0x6174735f
 d58:	745f6574 	jalx	17d95d0 <CheckSum32+0x17d9038>
 d5c:	53455200 	beql	k0,a1,15560 <CheckSum32+0x14fc8>
 d60:	5f544c55 	0x5f544c55
 d64:	52414c41 	beql	s2,at,13e6c <CheckSum32+0x138d4>
 d68:	4e535f4d 	c3	0x535f4d
 d6c:	455a4f4f 	0x455a4f4f
 d70:	72617000 	0x72617000
 d74:	61625f74 	0x61625f74
 d78:	6f5f6573 	0x6f5f6573
 d7c:	65736666 	0x65736666
 d80:	61700074 	0x61700074
 d84:	5f686374 	0x5f686374
 d88:	6e776f64 	0x6e776f64
 d8c:	64616f6c 	0x64616f6c
 d90:	616c665f 	0x616c665f
 d94:	65740067 	0x65740067
 d98:	645f706d 	0x645f706d
 d9c:	5f617461 	0x5f617461
 da0:	66667562 	0x66667562
 da4:	6e007265 	0x6e007265
 da8:	5f646565 	0x5f646565
 dac:	61647075 	0x61647075
 db0:	705f6574 	0x705f6574
 db4:	6c79616c 	0x6c79616c
 db8:	00747369 	0x747369
 dbc:	55534552 	bnel	t2,s3,12308 <CheckSum32+0x11d70>
 dc0:	4d5f544c 	0x4d5f544c
 dc4:	41554e41 	0x41554e41
 dc8:	45535f4c 	0x45535f4c
 dcc:	48435241 	0x48435241
 dd0:	574f445f 	bnel	k0,t7,11f50 <CheckSum32+0x119b8>
 dd4:	6170004e 	0x6170004e
 dd8:	635f7472 	0x635f7472
 ddc:	6b636568 	0x6b636568
 de0:	006d7573 	tltu	v1,t5,0x1d5
 de4:	55534552 	bnel	t2,s3,12330 <CheckSum32+0x11d98>
 de8:	535f544c 	beql	k0,ra,15f1c <CheckSum32+0x15984>
 dec:	45545359 	0x45545359
 df0:	4e455f4d 	c3	0x455f4d
 df4:	5f524554 	0x5f524554
 df8:	61003353 	0x61003353
 dfc:	735f7070 	0x735f7070
 e00:	65746174 	0x65746174
 e04:	656e6500 	0x656e6500
 e08:	5f796772 	0x5f796772
 e0c:	69617661 	0x69617661
 e10:	6c62616c 	0x6c62616c
 e14:	6c665f65 	0x6c665f65
 e18:	69006761 	0x69006761
 e1c:	7865646e 	0x7865646e
 e20:	6f687500 	0x6f687500
 e24:	735f7473 	0x735f7473
 e28:	65746174 	0x65746174
 e2c:	73616c00 	0x73616c00
 e30:	79735f74 	0x79735f74
 e34:	74735f73 	jalx	1cd7dcc <CheckSum32+0x1cd7834>
 e38:	73757461 	0x73757461
 e3c:	72617000 	0x72617000
 e40:	72775f74 	0x72775f74
 e44:	5f657469 	0x5f657469
 e48:	7366666f 	0x7366666f
 e4c:	61007465 	0x61007465
 e50:	746f7475 	jalx	1bdd1d4 <CheckSum32+0x1bdcc3c>
 e54:	5f747365 	0x5f747365
 e58:	65646f6d 	0x65646f6d
 e5c:	53455200 	beql	k0,a1,15660 <CheckSum32+0x150c8>
 e60:	5f544c55 	0x5f544c55
 e64:	4f545541 	c3	0x1545541
 e68:	4145535f 	0x4145535f
 e6c:	00484352 	0x484352
 e70:	726f6873 	0x726f6873
 e74:	6e692074 	0x6e692074
 e78:	65720074 	0x65720074
 e7c:	76726573 	jalx	9c995cc <CheckSum32+0x9c99034>
 e80:	67003264 	0x67003264
 e84:	7070615f 	udi15	v1,s0,t4,0x5
 e88:	73616c5f 	udi15	k1,at,t5,0x11
 e8c:	74735f74 	jalx	1cd7dd0 <CheckSum32+0x1cd7838>
 e90:	00657461 	0x657461
Disassembly of section .comment:

00000000 <.comment>:
   0:	43434700 	c0	0x1434700
   4:	4728203a 	c1	0x128203a
   8:	2029554e 	addi	t1,at,21838
   c:	2e342e33 	sltiu	s4,s1,11827
  10:	696d2034 	0x696d2034
  14:	64737370 	0x64737370
  18:	2e362d65 	sltiu	s6,s1,11621
  1c:	302e3630 	andi	t6,at,0x3630
  20:	30322d31 	andi	s2,at,0x2d31
  24:	34303730 	ori	s0,at,0x3730
  28:	Address 0x28 is out of bounds.

